
out.elf:     file format elf32-tradlittlemips


Disassembly of section .reset:

bd007000 <_reset>:
bd007000:	0f401c02 	jal	bd007008 <_startup>
bd007004:	00000000 	nop

bd007008 <_startup>:
bd007008:	401a6000 	mfc0	k0,c0_status
bd00700c:	7f5a04c0 	ext	k0,k0,0x13,0x1
bd007010:	13400005 	beqz	k0,bd007028 <_no_nmi>
bd007014:	00000000 	nop
bd007018:	3c1a9d01 	lui	k0,0x9d01
bd00701c:	275a4aa8 	addiu	k0,k0,19112
bd007020:	03400008 	jr	k0
bd007024:	00000000 	nop

bd007028 <_no_nmi>:
bd007028:	3c1da001 	lui	sp,0xa001
bd00702c:	27bdfff8 	addiu	sp,sp,-8
bd007030:	3c1ca000 	lui	gp,0xa000
bd007034:	279c7ff0 	addiu	gp,gp,32752
bd007038:	3c089d01 	lui	t0,0x9d01
bd00703c:	25084b54 	addiu	t0,t0,19284
bd007040:	0100f809 	jalr	t0
bd007044:	00000000 	nop

bd007048 <_start_bss_init>:
bd007048:	3c08a000 	lui	t0,0xa000
bd00704c:	2508000c 	addiu	t0,t0,12
bd007050:	3c09a000 	lui	t1,0xa000
bd007054:	2529506c 	addiu	t1,t1,20588
bd007058:	10000003 	b	bd007068 <_bss_check>
bd00705c:	00000000 	nop

bd007060 <_bss_init>:
bd007060:	ad000000 	sw	zero,0(t0)
bd007064:	25080004 	addiu	t0,t0,4

bd007068 <_bss_check>:
bd007068:	0109082b 	sltu	at,t0,t1
bd00706c:	1420fffc 	bnez	at,bd007060 <_bss_init>
bd007070:	00000000 	nop
bd007074:	3c089d01 	lui	t0,0x9d01
bd007078:	25083470 	addiu	t0,t0,13424
bd00707c:	0100f809 	jalr	t0
bd007080:	00000000 	nop
bd007084:	3c090000 	lui	t1,0x0
bd007088:	25290000 	addiu	t1,t1,0
bd00708c:	11200010 	beqz	t1,bd0070d0 <_ramfunc_done>
bd007090:	00000000 	nop
bd007094:	3c090001 	lui	t1,0x1
bd007098:	25290000 	addiu	t1,t1,0
bd00709c:	3c0abf88 	lui	t2,0xbf88
bd0070a0:	254a2010 	addiu	t2,t2,8208
bd0070a4:	ad490000 	sw	t1,0(t2)
bd0070a8:	3c090001 	lui	t1,0x1
bd0070ac:	25290000 	addiu	t1,t1,0
bd0070b0:	3c0abf88 	lui	t2,0xbf88
bd0070b4:	254a2020 	addiu	t2,t2,8224
bd0070b8:	ad490000 	sw	t1,0(t2)
bd0070bc:	3c090001 	lui	t1,0x1
bd0070c0:	25290000 	addiu	t1,t1,0
bd0070c4:	3c0abf88 	lui	t2,0xbf88
bd0070c8:	254a2030 	addiu	t2,t2,8240
bd0070cc:	ad490000 	sw	t1,0(t2)

bd0070d0 <_ramfunc_done>:
bd0070d0:	40804800 	mtc0	zero,c0_count
bd0070d4:	240affff 	li	t2,-1
bd0070d8:	408a5800 	mtc0	t2,c0_compare
bd0070dc:	3c080040 	lui	t0,0x40
bd0070e0:	400a6000 	mfc0	t2,c0_status
bd0070e4:	010a5025 	or	t2,t0,t2
bd0070e8:	408a6000 	mtc0	t2,c0_status
bd0070ec:	3c099d00 	lui	t1,0x9d00
bd0070f0:	25296000 	addiu	t1,t1,24576
bd0070f4:	000000c0 	ehb
bd0070f8:	40897801 	mtc0	t1,c0_ebase
bd0070fc:	3c090000 	lui	t1,0x0
bd007100:	25290001 	addiu	t1,t1,1
bd007104:	240a0000 	li	t2,0
bd007108:	7d2a4944 	ins	t2,t1,0x5,0x5
bd00710c:	408a6001 	mtc0	t2,c0_intctl
bd007110:	3c090080 	lui	t1,0x80
bd007114:	40896800 	mtc0	t1,c0_cause
bd007118:	40088000 	mfc0	t0,c0_config
bd00711c:	7d090580 	ext	t1,t0,0x16,0x1
bd007120:	00094c40 	sll	t1,t1,0x11
bd007124:	40086000 	mfc0	t0,c0_status
bd007128:	3c010058 	lui	at,0x58
bd00712c:	01014024 	and	t0,t0,at
bd007130:	01284025 	or	t0,t1,t0
bd007134:	40886000 	mtc0	t0,c0_status
bd007138:	000000c0 	ehb
bd00713c:	3c089d01 	lui	t0,0x9d01
bd007140:	25084b5c 	addiu	t0,t0,19292
bd007144:	0100f809 	jalr	t0
bd007148:	00000000 	nop
bd00714c:	40086000 	mfc0	t0,c0_status
bd007150:	3c01ffbf 	lui	at,0xffbf
bd007154:	3421ffff 	ori	at,at,0xffff
bd007158:	01014024 	and	t0,t0,at
bd00715c:	40886000 	mtc0	t0,c0_status
bd007160:	30840000 	andi	a0,a0,0x0
bd007164:	30a50000 	andi	a1,a1,0x0
bd007168:	3c089d01 	lui	t0,0x9d01
bd00716c:	25083d14 	addiu	t0,t0,15636
bd007170:	01000008 	jr	t0
bd007174:	00000000 	nop

Disassembly of section .bev_excpt:

bfc07380 <_bev_exception>:
bfc07380:	3c1a9d01 	lui	k0,0x9d01
bfc07384:	275a3f3c 	addiu	k0,k0,16188
bfc07388:	03400008 	jr	k0
bfc0738c:	00000000 	nop

Disassembly of section .app_excpt:

9d006180 <_gen_exception>:
9d006180:	3c1a9d01 	lui	k0,0x9d01
9d006184:	275a22c8 	addiu	k0,k0,8904
9d006188:	03400008 	jr	k0
9d00618c:	00000000 	nop

Disassembly of section .vector_0:

9d006200 <__vector_dispatch_0>:
9d006200:	0b404ff3 	j	9d013fcc <_DefaultInterrupt>
9d006204:	00000000 	nop

Disassembly of section .vector_1:

9d006220 <__vector_dispatch_1>:
9d006220:	0b404ff3 	j	9d013fcc <_DefaultInterrupt>
9d006224:	00000000 	nop

Disassembly of section .vector_2:

9d006240 <__vector_dispatch_2>:
9d006240:	0b404ff3 	j	9d013fcc <_DefaultInterrupt>
9d006244:	00000000 	nop

Disassembly of section .vector_3:

9d006260 <__vector_dispatch_3>:
9d006260:	0b404ff3 	j	9d013fcc <_DefaultInterrupt>
9d006264:	00000000 	nop

Disassembly of section .vector_4:

9d006280 <__vector_dispatch_4>:
9d006280:	0b404ff3 	j	9d013fcc <_DefaultInterrupt>
9d006284:	00000000 	nop

Disassembly of section .vector_5:

9d0062a0 <__vector_dispatch_5>:
9d0062a0:	0b404ff3 	j	9d013fcc <_DefaultInterrupt>
9d0062a4:	00000000 	nop

Disassembly of section .vector_6:

9d0062c0 <__vector_dispatch_6>:
9d0062c0:	0b404ff3 	j	9d013fcc <_DefaultInterrupt>
9d0062c4:	00000000 	nop

Disassembly of section .vector_7:

9d0062e0 <__vector_dispatch_7>:
9d0062e0:	0b404ff3 	j	9d013fcc <_DefaultInterrupt>
9d0062e4:	00000000 	nop

Disassembly of section .vector_8:

9d006300 <__vector_dispatch_8>:
9d006300:	0b404ff3 	j	9d013fcc <_DefaultInterrupt>
9d006304:	00000000 	nop

Disassembly of section .vector_9:

9d006320 <__vector_dispatch_9>:
9d006320:	0b404ff3 	j	9d013fcc <_DefaultInterrupt>
9d006324:	00000000 	nop

Disassembly of section .vector_10:

9d006340 <__vector_dispatch_10>:
9d006340:	0b404ff3 	j	9d013fcc <_DefaultInterrupt>
9d006344:	00000000 	nop

Disassembly of section .vector_11:

9d006360 <__vector_dispatch_11>:
9d006360:	0b404ff3 	j	9d013fcc <_DefaultInterrupt>
9d006364:	00000000 	nop

Disassembly of section .vector_12:

9d006380 <__vector_dispatch_12>:
9d006380:	0b401d9e 	j	9d007678 <Current_Control>
9d006384:	00000000 	nop

Disassembly of section .vector_13:

9d0063a0 <__vector_dispatch_13>:
9d0063a0:	0b404ff3 	j	9d013fcc <_DefaultInterrupt>
9d0063a4:	00000000 	nop

Disassembly of section .vector_14:

9d0063c0 <__vector_dispatch_14>:
9d0063c0:	0b404ff3 	j	9d013fcc <_DefaultInterrupt>
9d0063c4:	00000000 	nop

Disassembly of section .vector_15:

9d0063e0 <__vector_dispatch_15>:
9d0063e0:	0b404ff3 	j	9d013fcc <_DefaultInterrupt>
9d0063e4:	00000000 	nop

Disassembly of section .vector_16:

9d006400 <__vector_dispatch_16>:
9d006400:	0b401fac 	j	9d007eb0 <Position_Control>
9d006404:	00000000 	nop

Disassembly of section .vector_17:

9d006420 <__vector_dispatch_17>:
9d006420:	0b404ff3 	j	9d013fcc <_DefaultInterrupt>
9d006424:	00000000 	nop

Disassembly of section .vector_18:

9d006440 <__vector_dispatch_18>:
9d006440:	0b404ff3 	j	9d013fcc <_DefaultInterrupt>
9d006444:	00000000 	nop

Disassembly of section .vector_19:

9d006460 <__vector_dispatch_19>:
9d006460:	0b404ff3 	j	9d013fcc <_DefaultInterrupt>
9d006464:	00000000 	nop

Disassembly of section .vector_20:

9d006480 <__vector_dispatch_20>:
9d006480:	0b404ff3 	j	9d013fcc <_DefaultInterrupt>
9d006484:	00000000 	nop

Disassembly of section .vector_21:

9d0064a0 <__vector_dispatch_21>:
9d0064a0:	0b404ff3 	j	9d013fcc <_DefaultInterrupt>
9d0064a4:	00000000 	nop

Disassembly of section .vector_22:

9d0064c0 <__vector_dispatch_22>:
9d0064c0:	0b404ff3 	j	9d013fcc <_DefaultInterrupt>
9d0064c4:	00000000 	nop

Disassembly of section .vector_23:

9d0064e0 <__vector_dispatch_23>:
9d0064e0:	0b404ff3 	j	9d013fcc <_DefaultInterrupt>
9d0064e4:	00000000 	nop

Disassembly of section .vector_24:

9d006500 <__vector_dispatch_24>:
9d006500:	0b404ff3 	j	9d013fcc <_DefaultInterrupt>
9d006504:	00000000 	nop

Disassembly of section .vector_25:

9d006520 <__vector_dispatch_25>:
9d006520:	0b404ff3 	j	9d013fcc <_DefaultInterrupt>
9d006524:	00000000 	nop

Disassembly of section .vector_26:

9d006540 <__vector_dispatch_26>:
9d006540:	0b404ff3 	j	9d013fcc <_DefaultInterrupt>
9d006544:	00000000 	nop

Disassembly of section .vector_27:

9d006560 <__vector_dispatch_27>:
9d006560:	0b404ff3 	j	9d013fcc <_DefaultInterrupt>
9d006564:	00000000 	nop

Disassembly of section .vector_28:

9d006580 <__vector_dispatch_28>:
9d006580:	0b404ff3 	j	9d013fcc <_DefaultInterrupt>
9d006584:	00000000 	nop

Disassembly of section .vector_29:

9d0065a0 <__vector_dispatch_29>:
9d0065a0:	0b404ff3 	j	9d013fcc <_DefaultInterrupt>
9d0065a4:	00000000 	nop

Disassembly of section .vector_30:

9d0065c0 <__vector_dispatch_30>:
9d0065c0:	0b404ff3 	j	9d013fcc <_DefaultInterrupt>
9d0065c4:	00000000 	nop

Disassembly of section .vector_31:

9d0065e0 <__vector_dispatch_31>:
9d0065e0:	0b404ff3 	j	9d013fcc <_DefaultInterrupt>
9d0065e4:	00000000 	nop

Disassembly of section .vector_32:

9d006600 <__vector_dispatch_32>:
9d006600:	0b404ff3 	j	9d013fcc <_DefaultInterrupt>
9d006604:	00000000 	nop

Disassembly of section .vector_33:

9d006620 <__vector_dispatch_33>:
9d006620:	0b404ff3 	j	9d013fcc <_DefaultInterrupt>
9d006624:	00000000 	nop

Disassembly of section .vector_34:

9d006640 <__vector_dispatch_34>:
9d006640:	0b404ff3 	j	9d013fcc <_DefaultInterrupt>
9d006644:	00000000 	nop

Disassembly of section .vector_35:

9d006660 <__vector_dispatch_35>:
9d006660:	0b404ff3 	j	9d013fcc <_DefaultInterrupt>
9d006664:	00000000 	nop

Disassembly of section .vector_36:

9d006680 <__vector_dispatch_36>:
9d006680:	0b404ff3 	j	9d013fcc <_DefaultInterrupt>
9d006684:	00000000 	nop

Disassembly of section .vector_37:

9d0066a0 <__vector_dispatch_37>:
9d0066a0:	0b403b1a 	j	9d00ec68 <U2ISR>
9d0066a4:	00000000 	nop

Disassembly of section .vector_38:

9d0066c0 <__vector_dispatch_38>:
9d0066c0:	0b404ff3 	j	9d013fcc <_DefaultInterrupt>
9d0066c4:	00000000 	nop

Disassembly of section .vector_39:

9d0066e0 <__vector_dispatch_39>:
9d0066e0:	0b404ff3 	j	9d013fcc <_DefaultInterrupt>
9d0066e4:	00000000 	nop

Disassembly of section .vector_40:

9d006700 <__vector_dispatch_40>:
9d006700:	0b404ff3 	j	9d013fcc <_DefaultInterrupt>
9d006704:	00000000 	nop

Disassembly of section .vector_41:

9d006720 <__vector_dispatch_41>:
9d006720:	0b404ff3 	j	9d013fcc <_DefaultInterrupt>
9d006724:	00000000 	nop

Disassembly of section .vector_42:

9d006740 <__vector_dispatch_42>:
9d006740:	0b404ff3 	j	9d013fcc <_DefaultInterrupt>
9d006744:	00000000 	nop

Disassembly of section .vector_43:

9d006760 <__vector_dispatch_43>:
9d006760:	0b404ff3 	j	9d013fcc <_DefaultInterrupt>
9d006764:	00000000 	nop

Disassembly of section .rodata:

9d007490 <.rodata>:
9d007490:	00006425 	0x6425
9d007494:	65736572 	0x65736572
9d007498:	00000074 	teq	zero,zero,0x1
9d00749c:	32433249 	andi	v1,s2,0x3249
9d0074a0:	73614d20 	0x73614d20
9d0074a4:	3a726574 	xori	s2,s3,0x6574
9d0074a8:	69616620 	0x69616620
9d0074ac:	2064656c 	addi	a0,v1,25964
9d0074b0:	72206f74 	0x72206f74
9d0074b4:	69656365 	0x69656365
9d0074b8:	41206576 	0x41206576
9d0074bc:	0a0d4b43 	j	98352d0c <_bmxdudba_address+0x98342d0c>
9d0074c0:	00000000 	nop
	...
9d0074cc:	40080000 	mfc0	t0,c0_index
9d0074d0:	00000061 	0x61
9d0074d4:	0a0d6425 	j	98359094 <_bmxdudba_address+0x98349094>
9d0074d8:	00000000 	nop
9d0074dc:	0a0d6625 	j	98359894 <_bmxdudba_address+0x98349894>
9d0074e0:	00000000 	nop
9d0074e4:	00000062 	0x62
9d0074e8:	00006425 	0x6425
9d0074ec:	00006625 	0x6625
9d0074f0:	25206625 	addiu	zero,t1,26149
9d0074f4:	000a0d66 	0xa0d66
9d0074f8:	65766157 	0x65766157
9d0074fc:	6d726f66 	0x6d726f66
9d007500:	25203d20 	addiu	zero,t1,15648
9d007504:	00000064 	0x64
9d007508:	25206425 	addiu	zero,t1,25637
9d00750c:	64252064 	0x64252064
9d007510:	00000a0d 	break	0x0,0x28
9d007514:	c2c80000 	ll	t0,0(s6)
9d007518:	42c80000 	c0	0xc80000
9d00751c:	44fa0000 	mthc1	k0,$f0
9d007520:	c4fa0000 	lwc1	$f26,0(a3)
9d007524:	45160000 	bc1fl	$fcc5,9d007528 <__vector_dispatch_43+0xdc8>
9d007528:	43480000 	c0	0x1480000
9d00752c:	3f700000 	0x3f700000
9d007530:	00000000 	nop
9d007534:	c0590000 	ll	t9,0(v0)
9d007538:	00000000 	nop
9d00753c:	40a2c000 	0x40a2c000
9d007540:	00000000 	nop
9d007544:	40590000 	cfc0	t9,c0_index
9d007548:	00000000 	nop
9d00754c:	3fee0000 	0x3fee0000
9d007550:	b851eb85 	swr	s1,-5243(v0)
9d007554:	3feb851e 	0x3feb851e
9d007558:	00000000 	nop
9d00755c:	408ff800 	mtc0	t7,c0_desave
9d007560:	00464e49 	0x464e49
9d007564:	00666e69 	0x666e69
9d007568:	004e414e 	0x4e414e
9d00756c:	006e616e 	0x6e616e
9d007570:	00000000 	nop
9d007574:	3ff00000 	0x3ff00000
9d007578:	00000000 	nop
9d00757c:	40240000 	0x40240000
9d007580:	00000000 	nop
9d007584:	43500000 	c0	0x1500000
9d007588:	00000000 	nop
9d00758c:	40140000 	mfc0	s4,c0_index
9d007590:	6c696e28 	0x6c696e28
9d007594:	00000029 	0x29
9d007598:	00000025 	move	zero,zero
9d00759c:	00666e69 	0x666e69
9d0075a0:	006e616e 	0x6e616e
9d0075a4:	69666e69 	0x69666e69
9d0075a8:	7974696e 	0x7974696e
9d0075ac:	00000000 	nop
9d0075b0:	006e616e 	0x6e616e
9d0075b4:	00000000 	nop
9d0075b8:	ffffffff 	sdc3	$31,-1(ra)
9d0075bc:	7fefffff 	0x7fefffff
9d0075c0:	00000000 	nop
9d0075c4:	00100000 	sll	zero,s0,0x0
9d0075c8:	00000000 	nop
9d0075cc:	41cdcd65 	0x41cdcd65
9d0075d0:	00000000 	nop
9d0075d4:	3ff00000 	0x3ff00000
9d0075d8:	00000000 	nop
9d0075dc:	3fd00000 	0x3fd00000
9d0075e0:	00000000 	nop
9d0075e4:	3fe80000 	0x3fe80000
9d0075e8:	00000000 	nop
9d0075ec:	3fe00000 	0x3fe00000
9d0075f0:	00000000 	nop
9d0075f4:	43400000 	c0	0x1400000
9d0075f8:	00000000 	nop
9d0075fc:	fff00000 	sdc3	$16,0(ra)
9d007600:	ffffffff 	sdc3	$31,-1(ra)
9d007604:	7ff7ffff 	0x7ff7ffff
9d007608:	00000000 	nop
9d00760c:	7ff00000 	ext	s0,ra,0x0,0x1
9d007610:	00000000 	nop
9d007614:	3fb00000 	0x3fb00000
9d007618:	00000000 	nop
9d00761c:	c08ff000 	ll	t7,-4096(a0)
9d007620:	00000000 	nop
9d007624:	3ff00000 	0x3ff00000
9d007628:	00000000 	nop
9d00762c:	3fe00000 	0x3fe00000
9d007630:	30773b76 	andi	s7,v1,0x3b76
9d007634:	7fde42d1 	pick.ph	t0,s8,s8
9d007638:	00000000 	nop
9d00763c:	43e00000 	c0	0x1e00000
9d007640:	00000000 	nop
9d007644:	c3e00000 	ll	zero,0(ra)
9d007648:	f0000000 	0xf0000000
9d00764c:	341fffff 	li	ra,0xffff
9d007650:	00000000 	nop
9d007654:	07f00000 	bltzal	ra,9d007658 <__vector_dispatch_43+0xef8>
9d007658:	00000000 	nop
9d00765c:	7fe00000 	ext	zero,ra,0x0,0x1
9d007660:	00000000 	nop
9d007664:	03600000 	0x3600000
9d007668:	00000000 	nop
9d00766c:	41f00000 	0x41f00000
9d007670:	00000000 	nop
9d007674:	41f00000 	0x41f00000

Disassembly of section ._debug_exception:

bfc00480 <__DbgExecReturn>:
bfc00480:	409bf800 	mtc0	k1,c0_desave
bfc00484:	000000c0 	ehb
bfc00488:	3c1b9d01 	lui	k1,0x9d01
bfc0048c:	277b40a4 	addiu	k1,k1,16548
bfc00490:	13600002 	beqz	k1,bfc0049c <__DbgExecReturn+0x1c>
bfc00494:	00000000 	nop
bfc00498:	409bc000 	mtc0	k1,c0_depc
bfc0049c:	401bf800 	mfc0	k1,c0_desave
bfc004a0:	000000c0 	ehb
bfc004a4:	4200001f 	deret
bfc004a8:	00000000 	nop

Disassembly of section .text:

9d007678 <Current_Control>:
// for current control
static volatile float eint = 0.0;
static volatile float reference = 200.0;

// Interupts
void __ISR(_TIMER_3_VECTOR, IPL5SOFT) Current_Control(void) {
9d007678:	415de800 	rdpgpr	sp,sp
9d00767c:	401a7000 	mfc0	k0,c0_epc
9d007680:	401b6000 	mfc0	k1,c0_status
9d007684:	27bdff70 	addiu	sp,sp,-144
9d007688:	afba008c 	sw	k0,140(sp)
9d00768c:	401a6002 	mfc0	k0,c0_srsctl
9d007690:	afbb0088 	sw	k1,136(sp)
9d007694:	afba0084 	sw	k0,132(sp)
9d007698:	7c1b7844 	ins	k1,zero,0x1,0xf
9d00769c:	377b1400 	ori	k1,k1,0x1400
9d0076a0:	409b6000 	mtc0	k1,c0_status
9d0076a4:	afbf0074 	sw	ra,116(sp)
9d0076a8:	afbe0070 	sw	s8,112(sp)
9d0076ac:	afb9006c 	sw	t9,108(sp)
9d0076b0:	afb80068 	sw	t8,104(sp)
9d0076b4:	afb20064 	sw	s2,100(sp)
9d0076b8:	afb10060 	sw	s1,96(sp)
9d0076bc:	afb0005c 	sw	s0,92(sp)
9d0076c0:	afaf0058 	sw	t7,88(sp)
9d0076c4:	afae0054 	sw	t6,84(sp)
9d0076c8:	afad0050 	sw	t5,80(sp)
9d0076cc:	afac004c 	sw	t4,76(sp)
9d0076d0:	afab0048 	sw	t3,72(sp)
9d0076d4:	afaa0044 	sw	t2,68(sp)
9d0076d8:	afa90040 	sw	t1,64(sp)
9d0076dc:	afa8003c 	sw	t0,60(sp)
9d0076e0:	afa70038 	sw	a3,56(sp)
9d0076e4:	afa60034 	sw	a2,52(sp)
9d0076e8:	afa50030 	sw	a1,48(sp)
9d0076ec:	afa4002c 	sw	a0,44(sp)
9d0076f0:	afa30028 	sw	v1,40(sp)
9d0076f4:	afa20024 	sw	v0,36(sp)
9d0076f8:	afa10020 	sw	at,32(sp)
9d0076fc:	00001012 	mflo	v0
9d007700:	afa2007c 	sw	v0,124(sp)
9d007704:	00001810 	mfhi	v1
9d007708:	afa30078 	sw	v1,120(sp)
9d00770c:	03a0f025 	move	s8,sp
  static volatile int curr_control_counter = 0;
  // float eint = 0;
  // static volatile float eint = 0.0;
  // static volatile float reference = 200.0;
  switch (get_mode()) {
9d007710:	0f4052a4 	jal	9d014a90 <get_mode>
9d007714:	00000000 	nop
9d007718:	2c510005 	sltiu	s1,v0,5
9d00771c:	12200028 	beqz	s1,9d0077c0 <__jend_Current_Control_4+0x70>
9d007720:	00028880 	sll	s1,v0,0x2
9d007724:	3c109d00 	lui	s0,0x9d00
9d007728:	2610773c 	addiu	s0,s0,30524
9d00772c:	02118021 	addu	s0,s0,s1
9d007730:	8e100000 	lw	s0,0(s0)
9d007734:	02000008 	jr	s0
9d007738:	00000000 	nop

9d00773c <__jump_Current_Control_4>:
9d00773c:	9d0078d0 9d007750 9d0078e0 9d007b50     .x..Pw...x..P{..
9d00774c:	9d007d00                                .}..

9d007750 <__jend_Current_Control_4>:
    case PWM:
    {
      // cur_pwm = get_pwm();
      // duty cycle and direction bit are set according to the value -100 to 100 specified by user
      if (cur_pwm < 0) { // want to flip it so that it's positive and motor changes direction
9d007750:	8f82805c 	lw	v0,-32676(gp)
9d007754:	04410044 	bgez	v0,9d007868 <__jend_Current_Control_4+0x118>
9d007758:	3c02bf88 	lui	v0,0xbf88
        DIRECTION = 1;
9d00775c:	94436130 	lhu	v1,24880(v0)
9d007760:	24040001 	li	a0,1
9d007764:	7c836304 	ins	v1,a0,0xc,0x1
9d007768:	a4436130 	sh	v1,24880(v0)
        // LATAbits.LATA1 = 0; // was originally initialized as 1
        OC1RS = (int) ((float) cur_pwm/-100.0 * 2400);
9d00776c:	8f84805c 	lw	a0,-32676(gp)
9d007770:	0f404ebd 	jal	9d013af4 <__floatsisf>
9d007774:	3c10bf80 	lui	s0,0xbf80
9d007778:	0f404a2f 	jal	9d0128bc <__extendsfdf2>
9d00777c:	00402025 	move	a0,v0
9d007780:	3c049d00 	lui	a0,0x9d00
9d007784:	8c867530 	lw	a2,30000(a0)
9d007788:	8c877534 	lw	a3,30004(a0)
9d00778c:	00402025 	move	a0,v0
9d007790:	0f4032c7 	jal	9d00cb1c <__divdf3>
9d007794:	00602825 	move	a1,v1
9d007798:	3c049d00 	lui	a0,0x9d00
9d00779c:	8c867538 	lw	a2,30008(a0)
9d0077a0:	8c87753c 	lw	a3,30012(a0)
9d0077a4:	00402025 	move	a0,v0
9d0077a8:	0f403be4 	jal	9d00ef90 <__muldf3>
9d0077ac:	00602825 	move	a1,v1
9d0077b0:	00402025 	move	a0,v0
9d0077b4:	0f404c0c 	jal	9d013030 <__fixdfsi>
9d0077b8:	00602825 	move	a1,v1
9d0077bc:	ae023020 	sw	v0,12320(s0)

      break;
    }
  }
  // clear interrupt flag
  IFS0bits.T3IF = 0;
9d0077c0:	3c10bf88 	lui	s0,0xbf88
9d0077c4:	8e111030 	lw	s1,4144(s0)
9d0077c8:	7c117384 	ins	s1,zero,0xe,0x1
9d0077cc:	ae111030 	sw	s1,4144(s0)
}
9d0077d0:	03c0e825 	move	sp,s8
9d0077d4:	8fa2007c 	lw	v0,124(sp)
9d0077d8:	00400013 	mtlo	v0
9d0077dc:	8fa30078 	lw	v1,120(sp)
9d0077e0:	00600011 	mthi	v1
9d0077e4:	8fbf0074 	lw	ra,116(sp)
9d0077e8:	8fbe0070 	lw	s8,112(sp)
9d0077ec:	8fb9006c 	lw	t9,108(sp)
9d0077f0:	8fb80068 	lw	t8,104(sp)
9d0077f4:	8fb20064 	lw	s2,100(sp)
9d0077f8:	8fb10060 	lw	s1,96(sp)
9d0077fc:	8fb0005c 	lw	s0,92(sp)
9d007800:	8faf0058 	lw	t7,88(sp)
9d007804:	8fae0054 	lw	t6,84(sp)
9d007808:	8fad0050 	lw	t5,80(sp)
9d00780c:	8fac004c 	lw	t4,76(sp)
9d007810:	8fab0048 	lw	t3,72(sp)
9d007814:	8faa0044 	lw	t2,68(sp)
9d007818:	8fa90040 	lw	t1,64(sp)
9d00781c:	8fa8003c 	lw	t0,60(sp)
9d007820:	8fa70038 	lw	a3,56(sp)
9d007824:	8fa60034 	lw	a2,52(sp)
9d007828:	8fa50030 	lw	a1,48(sp)
9d00782c:	8fa4002c 	lw	a0,44(sp)
9d007830:	8fa30028 	lw	v1,40(sp)
9d007834:	8fa20024 	lw	v0,36(sp)
9d007838:	8fa10020 	lw	at,32(sp)
9d00783c:	41606000 	di
9d007840:	000000c0 	ehb
9d007844:	8fba008c 	lw	k0,140(sp)
9d007848:	8fbb0088 	lw	k1,136(sp)
9d00784c:	409a7000 	mtc0	k0,c0_epc
9d007850:	8fba0084 	lw	k0,132(sp)
9d007854:	27bd0090 	addiu	sp,sp,144
9d007858:	409a6002 	mtc0	k0,c0_srsctl
9d00785c:	41dde800 	wrpgpr	sp,sp
9d007860:	409b6000 	mtc0	k1,c0_status
9d007864:	42000018 	eret
        DIRECTION = 0;
9d007868:	94436130 	lhu	v1,24880(v0)
9d00786c:	7c036304 	ins	v1,zero,0xc,0x1
9d007870:	a4436130 	sh	v1,24880(v0)
        OC1RS = (int) ((float) cur_pwm/100.0 * 2400);
9d007874:	8f84805c 	lw	a0,-32676(gp)
9d007878:	0f404ebd 	jal	9d013af4 <__floatsisf>
9d00787c:	3c10bf80 	lui	s0,0xbf80
9d007880:	0f404a2f 	jal	9d0128bc <__extendsfdf2>
9d007884:	00402025 	move	a0,v0
9d007888:	3c049d00 	lui	a0,0x9d00
9d00788c:	8c867540 	lw	a2,30016(a0)
9d007890:	8c877544 	lw	a3,30020(a0)
9d007894:	00402025 	move	a0,v0
9d007898:	0f4032c7 	jal	9d00cb1c <__divdf3>
9d00789c:	00602825 	move	a1,v1
9d0078a0:	3c049d00 	lui	a0,0x9d00
9d0078a4:	8c867538 	lw	a2,30008(a0)
9d0078a8:	8c87753c 	lw	a3,30012(a0)
9d0078ac:	00402025 	move	a0,v0
9d0078b0:	0f403be4 	jal	9d00ef90 <__muldf3>
9d0078b4:	00602825 	move	a1,v1
9d0078b8:	00402025 	move	a0,v0
9d0078bc:	0f404c0c 	jal	9d013030 <__fixdfsi>
9d0078c0:	00602825 	move	a1,v1
9d0078c4:	ae023020 	sw	v0,12320(s0)
  IFS0bits.T3IF = 0;
9d0078c8:	1000ffbe 	b	9d0077c4 <__jend_Current_Control_4+0x74>
9d0078cc:	3c10bf88 	lui	s0,0xbf88
      OC1RS = 0; // never goes high (always low) so motor never gets current and turns on
9d0078d0:	3c10bf80 	lui	s0,0xbf80
9d0078d4:	ae003020 	sw	zero,12320(s0)
      break;
9d0078d8:	1000ffba 	b	9d0077c4 <__jend_Current_Control_4+0x74>
9d0078dc:	3c10bf88 	lui	s0,0xbf88
      if ((curr_control_counter == 25) || (curr_control_counter == 50) || (curr_control_counter == 75)) {
9d0078e0:	8f838030 	lw	v1,-32720(gp)
9d0078e4:	24020019 	li	v0,25
9d0078e8:	10620009 	beq	v1,v0,9d007910 <__jend_Current_Control_4+0x1c0>
9d0078ec:	00000000 	nop
9d0078f0:	8f838030 	lw	v1,-32720(gp)
9d0078f4:	24020032 	li	v0,50
9d0078f8:	10620005 	beq	v1,v0,9d007910 <__jend_Current_Control_4+0x1c0>
9d0078fc:	00000000 	nop
9d007900:	8f838030 	lw	v1,-32720(gp)
9d007904:	2402004b 	li	v0,75
9d007908:	14620005 	bne	v1,v0,9d007920 <__jend_Current_Control_4+0x1d0>
9d00790c:	00000000 	nop
        reference = -(reference);
9d007910:	8f828010 	lw	v0,-32752(gp)
9d007914:	3c038000 	lui	v1,0x8000
9d007918:	00431026 	xor	v0,v0,v1
9d00791c:	af828010 	sw	v0,-32752(gp)
      ref_current_array[curr_control_counter] = reference;
9d007920:	8f828030 	lw	v0,-32720(gp)
9d007924:	8f848010 	lw	a0,-32752(gp)
9d007928:	00021080 	sll	v0,v0,0x2
9d00792c:	3c03a000 	lui	v1,0xa000
9d007930:	247100bc 	addiu	s1,v1,188
9d007934:	00511021 	addu	v0,v0,s1
9d007938:	ac440000 	sw	a0,0(v0)
      actual_current_array[curr_control_counter] = INA219_read_current();
9d00793c:	8f908030 	lw	s0,-32720(gp)
9d007940:	0f4043db 	jal	9d010f6c <INA219_read_current>
9d007944:	00108080 	sll	s0,s0,0x2
9d007948:	3c05a000 	lui	a1,0xa000
9d00794c:	24a5312c 	addiu	a1,a1,12588
9d007950:	02058021 	addu	s0,s0,a1
9d007954:	ae020000 	sw	v0,0(s0)
      volatile float err = ref_current_array[curr_control_counter] - actual_current_array[curr_control_counter];
9d007958:	8f838030 	lw	v1,-32720(gp)
9d00795c:	00031880 	sll	v1,v1,0x2
9d007960:	00711821 	addu	v1,v1,s1
9d007964:	8c640000 	lw	a0,0(v1)
9d007968:	8f828030 	lw	v0,-32720(gp)
9d00796c:	00021080 	sll	v0,v0,0x2
9d007970:	00451021 	addu	v0,v0,a1
9d007974:	8c450000 	lw	a1,0(v0)
9d007978:	0f403f51 	jal	9d00fd44 <__subsf3>
9d00797c:	00000000 	nop
9d007980:	afc20018 	sw	v0,24(s8)
      eint = eint + err; // calculating integral of error
9d007984:	8f848034 	lw	a0,-32716(gp)
9d007988:	8fc50018 	lw	a1,24(s8)
9d00798c:	0f403f53 	jal	9d00fd4c <__addsf3>
9d007990:	00000000 	nop
9d007994:	af828034 	sw	v0,-32716(gp)
      if (eint > 2000.0) {
9d007998:	8f848034 	lw	a0,-32716(gp)
9d00799c:	3c029d00 	lui	v0,0x9d00
9d0079a0:	0f404b4f 	jal	9d012d3c <__eqsf2>
9d0079a4:	8c45751c 	lw	a1,29980(v0)
9d0079a8:	18400033 	blez	v0,9d007a78 <__jend_Current_Control_4+0x328>
9d0079ac:	3c029d00 	lui	v0,0x9d00
          eint = 2000.0;
9d0079b0:	8c42751c 	lw	v0,29980(v0)
9d0079b4:	af828034 	sw	v0,-32716(gp)
      float u = current_Kp * err + current_Ki * eint;
9d0079b8:	8f848048 	lw	a0,-32696(gp)
9d0079bc:	8fc50018 	lw	a1,24(s8)
9d0079c0:	8f918044 	lw	s1,-32700(gp)
9d0079c4:	8f928034 	lw	s2,-32716(gp)
9d0079c8:	0f4040eb 	jal	9d0103ac <__mulsf3>
9d0079cc:	00000000 	nop
9d0079d0:	00408025 	move	s0,v0
9d0079d4:	02402825 	move	a1,s2
9d0079d8:	0f4040eb 	jal	9d0103ac <__mulsf3>
9d0079dc:	02202025 	move	a0,s1
9d0079e0:	00402825 	move	a1,v0
9d0079e4:	0f403f53 	jal	9d00fd4c <__addsf3>
9d0079e8:	02002025 	move	a0,s0
9d0079ec:	00408025 	move	s0,v0
      if (u > 100.0) {
9d0079f0:	3c029d00 	lui	v0,0x9d00
9d0079f4:	8c457518 	lw	a1,29976(v0)
9d0079f8:	0f404b4f 	jal	9d012d3c <__eqsf2>
9d0079fc:	02002025 	move	a0,s0
9d007a00:	1c400050 	bgtz	v0,9d007b44 <__jend_Current_Control_4+0x3f4>
9d007a04:	3c029d00 	lui	v0,0x9d00
      else if (u < -100.0) {
9d007a08:	8c457514 	lw	a1,29972(v0)
9d007a0c:	0f404b76 	jal	9d012dd8 <fpcmplt>
9d007a10:	02002025 	move	a0,s0
9d007a14:	04400022 	bltz	v0,9d007aa0 <__jend_Current_Control_4+0x350>
9d007a18:	3c029d00 	lui	v0,0x9d00
      if (u < 0) { // want to flip it so that it's positive and motor changes direction
9d007a1c:	00002825 	move	a1,zero
9d007a20:	0f404b76 	jal	9d012dd8 <fpcmplt>
9d007a24:	02002025 	move	a0,s0
9d007a28:	0440001f 	bltz	v0,9d007aa8 <__jend_Current_Control_4+0x358>
9d007a2c:	3c02bf88 	lui	v0,0xbf88
        DIRECTION = 0;
9d007a30:	3c02bf88 	lui	v0,0xbf88
9d007a34:	94446130 	lhu	a0,24880(v0)
9d007a38:	7c046304 	ins	a0,zero,0xc,0x1
9d007a3c:	a4446130 	sh	a0,24880(v0)
        OC1RS = (int) ((float) (u/100.0) * 2400);
9d007a40:	3c029d00 	lui	v0,0x9d00
9d007a44:	8c457518 	lw	a1,29976(v0)
9d007a48:	0f403fef 	jal	9d00ffbc <__divsf3>
9d007a4c:	02002025 	move	a0,s0
9d007a50:	3c049d00 	lui	a0,0x9d00
9d007a54:	8c857524 	lw	a1,29988(a0)
9d007a58:	0f4040eb 	jal	9d0103ac <__mulsf3>
9d007a5c:	00402025 	move	a0,v0
9d007a60:	0f404cda 	jal	9d013368 <__fixsfsi>
9d007a64:	00402025 	move	a0,v0
9d007a68:	3c10bf80 	lui	s0,0xbf80
9d007a6c:	ae023020 	sw	v0,12320(s0)
9d007a70:	10000024 	b	9d007b04 <__jend_Current_Control_4+0x3b4>
9d007a74:	00000000 	nop
      else if (eint < -2000.0) {
9d007a78:	8f848034 	lw	a0,-32716(gp)
9d007a7c:	3c029d00 	lui	v0,0x9d00
9d007a80:	0f404b76 	jal	9d012dd8 <fpcmplt>
9d007a84:	8c457520 	lw	a1,29984(v0)
9d007a88:	0441ffcb 	bgez	v0,9d0079b8 <__jend_Current_Control_4+0x268>
9d007a8c:	3c029d00 	lui	v0,0x9d00
          eint = -2000.0;
9d007a90:	8c427520 	lw	v0,29984(v0)
9d007a94:	af828034 	sw	v0,-32716(gp)
9d007a98:	1000ffc7 	b	9d0079b8 <__jend_Current_Control_4+0x268>
9d007a9c:	00000000 	nop
        u = -100.0;
9d007aa0:	8c507514 	lw	s0,29972(v0)
        DIRECTION = 1;
9d007aa4:	3c02bf88 	lui	v0,0xbf88
9d007aa8:	94436130 	lhu	v1,24880(v0)
9d007aac:	24040001 	li	a0,1
9d007ab0:	7c836304 	ins	v1,a0,0xc,0x1
9d007ab4:	a4436130 	sh	v1,24880(v0)
        OC1RS = (int) ((float) (u/-100.0) * 2400);
9d007ab8:	0f404a2f 	jal	9d0128bc <__extendsfdf2>
9d007abc:	02002025 	move	a0,s0
9d007ac0:	3c049d00 	lui	a0,0x9d00
9d007ac4:	8c867530 	lw	a2,30000(a0)
9d007ac8:	8c877534 	lw	a3,30004(a0)
9d007acc:	00402025 	move	a0,v0
9d007ad0:	0f4032c7 	jal	9d00cb1c <__divdf3>
9d007ad4:	00602825 	move	a1,v1
9d007ad8:	00402025 	move	a0,v0
9d007adc:	0f4047fd 	jal	9d011ff4 <__truncdfsf2>
9d007ae0:	00602825 	move	a1,v1
9d007ae4:	3c049d00 	lui	a0,0x9d00
9d007ae8:	8c857524 	lw	a1,29988(a0)
9d007aec:	0f4040eb 	jal	9d0103ac <__mulsf3>
9d007af0:	00402025 	move	a0,v0
9d007af4:	0f404cda 	jal	9d013368 <__fixsfsi>
9d007af8:	00402025 	move	a0,v0
9d007afc:	3c10bf80 	lui	s0,0xbf80
9d007b00:	ae023020 	sw	v0,12320(s0)
      if (curr_control_counter == 99) {
9d007b04:	8f918030 	lw	s1,-32720(gp)
9d007b08:	24100063 	li	s0,99
9d007b0c:	16300008 	bne	s1,s0,9d007b30 <__jend_Current_Control_4+0x3e0>
9d007b10:	3c049d00 	lui	a0,0x9d00
        reference = 200.0;
9d007b14:	8c847528 	lw	a0,29992(a0)
9d007b18:	af848010 	sw	a0,-32752(gp)
        curr_control_counter = 0;
9d007b1c:	af808030 	sw	zero,-32720(gp)
        eint = 0;
9d007b20:	00002025 	move	a0,zero
9d007b24:	af848034 	sw	a0,-32716(gp)
        set_mode(IDLE);
9d007b28:	0f4052a7 	jal	9d014a9c <set_mode>
9d007b2c:	00002025 	move	a0,zero
      curr_control_counter += 1;
9d007b30:	8f908030 	lw	s0,-32720(gp)
9d007b34:	26100001 	addiu	s0,s0,1
9d007b38:	af908030 	sw	s0,-32720(gp)
      break;
9d007b3c:	1000ff21 	b	9d0077c4 <__jend_Current_Control_4+0x74>
9d007b40:	3c10bf88 	lui	s0,0xbf88
          u = 100.0;
9d007b44:	3c029d00 	lui	v0,0x9d00
9d007b48:	1000ffb9 	b	9d007a30 <__jend_Current_Control_4+0x2e0>
9d007b4c:	8c507518 	lw	s0,29976(v0)
      float reference_current = current_needed;
9d007b50:	8f908040 	lw	s0,-32704(gp)
      float actual_current = INA219_read_current();
9d007b54:	0f4043db 	jal	9d010f6c <INA219_read_current>
9d007b58:	00000000 	nop
      volatile float err = reference_current - actual_current;
9d007b5c:	00402825 	move	a1,v0
9d007b60:	0f403f51 	jal	9d00fd44 <__subsf3>
9d007b64:	02002025 	move	a0,s0
9d007b68:	afc20014 	sw	v0,20(s8)
      eint = eint + err; // calculating integral of error
9d007b6c:	8f848034 	lw	a0,-32716(gp)
9d007b70:	8fc50014 	lw	a1,20(s8)
9d007b74:	0f403f53 	jal	9d00fd4c <__addsf3>
9d007b78:	00000000 	nop
9d007b7c:	af828034 	sw	v0,-32716(gp)
      if (eint > 2000.0) {
9d007b80:	8f848034 	lw	a0,-32716(gp)
9d007b84:	3c029d00 	lui	v0,0x9d00
9d007b88:	0f404b4f 	jal	9d012d3c <__eqsf2>
9d007b8c:	8c45751c 	lw	a1,29980(v0)
9d007b90:	18400034 	blez	v0,9d007c64 <__jend_Current_Control_4+0x514>
9d007b94:	3c029d00 	lui	v0,0x9d00
          eint = 2000.0;
9d007b98:	8c42751c 	lw	v0,29980(v0)
9d007b9c:	af828034 	sw	v0,-32716(gp)
      float u = current_Kp * err + current_Ki * eint;
9d007ba0:	8f848048 	lw	a0,-32696(gp)
9d007ba4:	8fc50014 	lw	a1,20(s8)
9d007ba8:	8f918044 	lw	s1,-32700(gp)
9d007bac:	8f928034 	lw	s2,-32716(gp)
9d007bb0:	0f4040eb 	jal	9d0103ac <__mulsf3>
9d007bb4:	00000000 	nop
9d007bb8:	00408025 	move	s0,v0
9d007bbc:	02402825 	move	a1,s2
9d007bc0:	0f4040eb 	jal	9d0103ac <__mulsf3>
9d007bc4:	02202025 	move	a0,s1
9d007bc8:	00402825 	move	a1,v0
9d007bcc:	0f403f53 	jal	9d00fd4c <__addsf3>
9d007bd0:	02002025 	move	a0,s0
9d007bd4:	00408025 	move	s0,v0
      if (u > 100.0) {
9d007bd8:	3c029d00 	lui	v0,0x9d00
9d007bdc:	8c457518 	lw	a1,29976(v0)
9d007be0:	0f404b4f 	jal	9d012d3c <__eqsf2>
9d007be4:	02002025 	move	a0,s0
9d007be8:	1c400042 	bgtz	v0,9d007cf4 <__jend_Current_Control_4+0x5a4>
9d007bec:	3c029d00 	lui	v0,0x9d00
      else if (u < -100.0) {
9d007bf0:	8c457514 	lw	a1,29972(v0)
9d007bf4:	0f404b76 	jal	9d012dd8 <fpcmplt>
9d007bf8:	02002025 	move	a0,s0
9d007bfc:	04400023 	bltz	v0,9d007c8c <__jend_Current_Control_4+0x53c>
9d007c00:	3c029d00 	lui	v0,0x9d00
      if (u < 0) { // want to flip it so that it's positive and motor changes direction
9d007c04:	00002825 	move	a1,zero
9d007c08:	0f404b76 	jal	9d012dd8 <fpcmplt>
9d007c0c:	02002025 	move	a0,s0
9d007c10:	04400020 	bltz	v0,9d007c94 <__jend_Current_Control_4+0x544>
9d007c14:	3c02bf88 	lui	v0,0xbf88
        DIRECTION = 1;
9d007c18:	3c02bf88 	lui	v0,0xbf88
9d007c1c:	94446130 	lhu	a0,24880(v0)
9d007c20:	24050001 	li	a1,1
9d007c24:	7ca46304 	ins	a0,a1,0xc,0x1
9d007c28:	a4446130 	sh	a0,24880(v0)
        OC1RS = (int) ((float) (u/100.0) * 2400);
9d007c2c:	3c029d00 	lui	v0,0x9d00
9d007c30:	8c457518 	lw	a1,29976(v0)
9d007c34:	0f403fef 	jal	9d00ffbc <__divsf3>
9d007c38:	02002025 	move	a0,s0
9d007c3c:	3c049d00 	lui	a0,0x9d00
9d007c40:	8c857524 	lw	a1,29988(a0)
9d007c44:	0f4040eb 	jal	9d0103ac <__mulsf3>
9d007c48:	00402025 	move	a0,v0
9d007c4c:	0f404cda 	jal	9d013368 <__fixsfsi>
9d007c50:	00402025 	move	a0,v0
9d007c54:	3c10bf80 	lui	s0,0xbf80
9d007c58:	ae023020 	sw	v0,12320(s0)
  IFS0bits.T3IF = 0;
9d007c5c:	1000fed9 	b	9d0077c4 <__jend_Current_Control_4+0x74>
9d007c60:	3c10bf88 	lui	s0,0xbf88
      else if (eint < -2000.0) {
9d007c64:	8f848034 	lw	a0,-32716(gp)
9d007c68:	3c029d00 	lui	v0,0x9d00
9d007c6c:	0f404b76 	jal	9d012dd8 <fpcmplt>
9d007c70:	8c457520 	lw	a1,29984(v0)
9d007c74:	0441ffca 	bgez	v0,9d007ba0 <__jend_Current_Control_4+0x450>
9d007c78:	3c029d00 	lui	v0,0x9d00
          eint = -2000.0;
9d007c7c:	8c427520 	lw	v0,29984(v0)
9d007c80:	af828034 	sw	v0,-32716(gp)
9d007c84:	1000ffc6 	b	9d007ba0 <__jend_Current_Control_4+0x450>
9d007c88:	00000000 	nop
        u = -100.0;
9d007c8c:	8c507514 	lw	s0,29972(v0)
        DIRECTION = 0;
9d007c90:	3c02bf88 	lui	v0,0xbf88
9d007c94:	94436130 	lhu	v1,24880(v0)
9d007c98:	7c036304 	ins	v1,zero,0xc,0x1
9d007c9c:	a4436130 	sh	v1,24880(v0)
        OC1RS = (int) ((float) (u/-100.0) * 2400);
9d007ca0:	0f404a2f 	jal	9d0128bc <__extendsfdf2>
9d007ca4:	02002025 	move	a0,s0
9d007ca8:	3c049d00 	lui	a0,0x9d00
9d007cac:	8c867530 	lw	a2,30000(a0)
9d007cb0:	8c877534 	lw	a3,30004(a0)
9d007cb4:	00402025 	move	a0,v0
9d007cb8:	0f4032c7 	jal	9d00cb1c <__divdf3>
9d007cbc:	00602825 	move	a1,v1
9d007cc0:	00402025 	move	a0,v0
9d007cc4:	0f4047fd 	jal	9d011ff4 <__truncdfsf2>
9d007cc8:	00602825 	move	a1,v1
9d007ccc:	3c049d00 	lui	a0,0x9d00
9d007cd0:	8c857524 	lw	a1,29988(a0)
9d007cd4:	0f4040eb 	jal	9d0103ac <__mulsf3>
9d007cd8:	00402025 	move	a0,v0
9d007cdc:	0f404cda 	jal	9d013368 <__fixsfsi>
9d007ce0:	00402025 	move	a0,v0
9d007ce4:	3c10bf80 	lui	s0,0xbf80
9d007ce8:	ae023020 	sw	v0,12320(s0)
9d007cec:	1000feb5 	b	9d0077c4 <__jend_Current_Control_4+0x74>
9d007cf0:	3c10bf88 	lui	s0,0xbf88
          u = 100.0;
9d007cf4:	3c029d00 	lui	v0,0x9d00
9d007cf8:	1000ffc7 	b	9d007c18 <__jend_Current_Control_4+0x4c8>
9d007cfc:	8c507518 	lw	s0,29976(v0)
      float reference_current = current_needed;
9d007d00:	8f908040 	lw	s0,-32704(gp)
      float actual_current = INA219_read_current();
9d007d04:	0f4043db 	jal	9d010f6c <INA219_read_current>
9d007d08:	00000000 	nop
      volatile float err = reference_current - actual_current;
9d007d0c:	00402825 	move	a1,v0
9d007d10:	0f403f51 	jal	9d00fd44 <__subsf3>
9d007d14:	02002025 	move	a0,s0
9d007d18:	afc20010 	sw	v0,16(s8)
      eint = eint + err; // calculating integral of error
9d007d1c:	8f848034 	lw	a0,-32716(gp)
9d007d20:	8fc50010 	lw	a1,16(s8)
9d007d24:	0f403f53 	jal	9d00fd4c <__addsf3>
9d007d28:	00000000 	nop
9d007d2c:	af828034 	sw	v0,-32716(gp)
      if (eint > 2000.0) {
9d007d30:	8f848034 	lw	a0,-32716(gp)
9d007d34:	3c029d00 	lui	v0,0x9d00
9d007d38:	0f404b4f 	jal	9d012d3c <__eqsf2>
9d007d3c:	8c45751c 	lw	a1,29980(v0)
9d007d40:	18400034 	blez	v0,9d007e14 <__jend_Current_Control_4+0x6c4>
9d007d44:	3c029d00 	lui	v0,0x9d00
          eint = 2000.0;
9d007d48:	8c42751c 	lw	v0,29980(v0)
9d007d4c:	af828034 	sw	v0,-32716(gp)
      float u = current_Kp * err + current_Ki * eint;
9d007d50:	8f848048 	lw	a0,-32696(gp)
9d007d54:	8fc50010 	lw	a1,16(s8)
9d007d58:	8f918044 	lw	s1,-32700(gp)
9d007d5c:	8f928034 	lw	s2,-32716(gp)
9d007d60:	0f4040eb 	jal	9d0103ac <__mulsf3>
9d007d64:	00000000 	nop
9d007d68:	00408025 	move	s0,v0
9d007d6c:	02402825 	move	a1,s2
9d007d70:	0f4040eb 	jal	9d0103ac <__mulsf3>
9d007d74:	02202025 	move	a0,s1
9d007d78:	00402825 	move	a1,v0
9d007d7c:	0f403f53 	jal	9d00fd4c <__addsf3>
9d007d80:	02002025 	move	a0,s0
9d007d84:	00408025 	move	s0,v0
      if (u > 100.0) {
9d007d88:	3c029d00 	lui	v0,0x9d00
9d007d8c:	8c457518 	lw	a1,29976(v0)
9d007d90:	0f404b4f 	jal	9d012d3c <__eqsf2>
9d007d94:	02002025 	move	a0,s0
9d007d98:	1c400042 	bgtz	v0,9d007ea4 <__jend_Current_Control_4+0x754>
9d007d9c:	3c029d00 	lui	v0,0x9d00
      else if (u < -100.0) {
9d007da0:	8c457514 	lw	a1,29972(v0)
9d007da4:	0f404b76 	jal	9d012dd8 <fpcmplt>
9d007da8:	02002025 	move	a0,s0
9d007dac:	04400023 	bltz	v0,9d007e3c <__jend_Current_Control_4+0x6ec>
9d007db0:	3c029d00 	lui	v0,0x9d00
      if (u < 0) { // want to flip it so that it's positive and motor changes direction
9d007db4:	00002825 	move	a1,zero
9d007db8:	0f404b76 	jal	9d012dd8 <fpcmplt>
9d007dbc:	02002025 	move	a0,s0
9d007dc0:	04400020 	bltz	v0,9d007e44 <__jend_Current_Control_4+0x6f4>
9d007dc4:	3c02bf88 	lui	v0,0xbf88
        DIRECTION = 1;
9d007dc8:	3c02bf88 	lui	v0,0xbf88
9d007dcc:	94446130 	lhu	a0,24880(v0)
9d007dd0:	24050001 	li	a1,1
9d007dd4:	7ca46304 	ins	a0,a1,0xc,0x1
9d007dd8:	a4446130 	sh	a0,24880(v0)
        OC1RS = (int) ((float) (u/100.0) * 2400);
9d007ddc:	3c029d00 	lui	v0,0x9d00
9d007de0:	8c457518 	lw	a1,29976(v0)
9d007de4:	0f403fef 	jal	9d00ffbc <__divsf3>
9d007de8:	02002025 	move	a0,s0
9d007dec:	3c049d00 	lui	a0,0x9d00
9d007df0:	8c857524 	lw	a1,29988(a0)
9d007df4:	0f4040eb 	jal	9d0103ac <__mulsf3>
9d007df8:	00402025 	move	a0,v0
9d007dfc:	0f404cda 	jal	9d013368 <__fixsfsi>
9d007e00:	00402025 	move	a0,v0
9d007e04:	3c10bf80 	lui	s0,0xbf80
9d007e08:	ae023020 	sw	v0,12320(s0)
  IFS0bits.T3IF = 0;
9d007e0c:	1000fe6d 	b	9d0077c4 <__jend_Current_Control_4+0x74>
9d007e10:	3c10bf88 	lui	s0,0xbf88
      else if (eint < -2000.0) {
9d007e14:	8f848034 	lw	a0,-32716(gp)
9d007e18:	3c029d00 	lui	v0,0x9d00
9d007e1c:	0f404b76 	jal	9d012dd8 <fpcmplt>
9d007e20:	8c457520 	lw	a1,29984(v0)
9d007e24:	0441ffca 	bgez	v0,9d007d50 <__jend_Current_Control_4+0x600>
9d007e28:	3c029d00 	lui	v0,0x9d00
          eint = -2000.0;
9d007e2c:	8c427520 	lw	v0,29984(v0)
9d007e30:	af828034 	sw	v0,-32716(gp)
9d007e34:	1000ffc6 	b	9d007d50 <__jend_Current_Control_4+0x600>
9d007e38:	00000000 	nop
        u = -100.0;
9d007e3c:	8c507514 	lw	s0,29972(v0)
        DIRECTION = 0;
9d007e40:	3c02bf88 	lui	v0,0xbf88
9d007e44:	94436130 	lhu	v1,24880(v0)
9d007e48:	7c036304 	ins	v1,zero,0xc,0x1
9d007e4c:	a4436130 	sh	v1,24880(v0)
        OC1RS = (int) ((float) (u/-100.0) * 2400);
9d007e50:	0f404a2f 	jal	9d0128bc <__extendsfdf2>
9d007e54:	02002025 	move	a0,s0
9d007e58:	3c049d00 	lui	a0,0x9d00
9d007e5c:	8c867530 	lw	a2,30000(a0)
9d007e60:	8c877534 	lw	a3,30004(a0)
9d007e64:	00402025 	move	a0,v0
9d007e68:	0f4032c7 	jal	9d00cb1c <__divdf3>
9d007e6c:	00602825 	move	a1,v1
9d007e70:	00402025 	move	a0,v0
9d007e74:	0f4047fd 	jal	9d011ff4 <__truncdfsf2>
9d007e78:	00602825 	move	a1,v1
9d007e7c:	3c049d00 	lui	a0,0x9d00
9d007e80:	8c857524 	lw	a1,29988(a0)
9d007e84:	0f4040eb 	jal	9d0103ac <__mulsf3>
9d007e88:	00402025 	move	a0,v0
9d007e8c:	0f404cda 	jal	9d013368 <__fixsfsi>
9d007e90:	00402025 	move	a0,v0
9d007e94:	3c10bf80 	lui	s0,0xbf80
9d007e98:	ae023020 	sw	v0,12320(s0)
9d007e9c:	1000fe49 	b	9d0077c4 <__jend_Current_Control_4+0x74>
9d007ea0:	3c10bf88 	lui	s0,0xbf88
          u = 100.0;
9d007ea4:	3c029d00 	lui	v0,0x9d00
9d007ea8:	1000ffc7 	b	9d007dc8 <__jend_Current_Control_4+0x678>
9d007eac:	8c507518 	lw	s0,29976(v0)

9d007eb0 <Position_Control>:

void __ISR(_TIMER_4_VECTOR, IPL4SOFT) Position_Control(void) {
9d007eb0:	415de800 	rdpgpr	sp,sp
9d007eb4:	401a7000 	mfc0	k0,c0_epc
9d007eb8:	401b6000 	mfc0	k1,c0_status
9d007ebc:	27bdff60 	addiu	sp,sp,-160
9d007ec0:	afba009c 	sw	k0,156(sp)
9d007ec4:	401a6002 	mfc0	k0,c0_srsctl
9d007ec8:	afbb0098 	sw	k1,152(sp)
9d007ecc:	afba0094 	sw	k0,148(sp)
9d007ed0:	7c1b7844 	ins	k1,zero,0x1,0xf
9d007ed4:	377b1000 	ori	k1,k1,0x1000
9d007ed8:	409b6000 	mtc0	k1,c0_status
9d007edc:	afbf0084 	sw	ra,132(sp)
9d007ee0:	afbe0080 	sw	s8,128(sp)
9d007ee4:	afb9007c 	sw	t9,124(sp)
9d007ee8:	afb80078 	sw	t8,120(sp)
9d007eec:	afb70074 	sw	s7,116(sp)
9d007ef0:	afb60070 	sw	s6,112(sp)
9d007ef4:	afb5006c 	sw	s5,108(sp)
9d007ef8:	afb40068 	sw	s4,104(sp)
9d007efc:	afb30064 	sw	s3,100(sp)
9d007f00:	afb20060 	sw	s2,96(sp)
9d007f04:	afb1005c 	sw	s1,92(sp)
9d007f08:	afb00058 	sw	s0,88(sp)
9d007f0c:	afaf0054 	sw	t7,84(sp)
9d007f10:	afae0050 	sw	t6,80(sp)
9d007f14:	afad004c 	sw	t5,76(sp)
9d007f18:	afac0048 	sw	t4,72(sp)
9d007f1c:	afab0044 	sw	t3,68(sp)
9d007f20:	afaa0040 	sw	t2,64(sp)
9d007f24:	afa9003c 	sw	t1,60(sp)
9d007f28:	afa80038 	sw	t0,56(sp)
9d007f2c:	afa70034 	sw	a3,52(sp)
9d007f30:	afa60030 	sw	a2,48(sp)
9d007f34:	afa5002c 	sw	a1,44(sp)
9d007f38:	afa40028 	sw	a0,40(sp)
9d007f3c:	afa30024 	sw	v1,36(sp)
9d007f40:	afa20020 	sw	v0,32(sp)
9d007f44:	afa1001c 	sw	at,28(sp)
9d007f48:	00001012 	mflo	v0
9d007f4c:	afa2008c 	sw	v0,140(sp)
9d007f50:	00001810 	mfhi	v1
9d007f54:	afa30088 	sw	v1,136(sp)
9d007f58:	03a0f025 	move	s8,sp
  static volatile int traj_pos_counter = 0;
  switch(get_mode()) {
9d007f5c:	0f4052a4 	jal	9d014a90 <get_mode>
9d007f60:	24100003 	li	s0,3
9d007f64:	10500031 	beq	v0,s0,9d00802c <Position_Control+0x17c>
9d007f68:	24100004 	li	s0,4
9d007f6c:	1050007b 	beq	v0,s0,9d00815c <Position_Control+0x2ac>
9d007f70:	3c10bf88 	lui	s0,0xbf88

      break;
    }
  }
  // clear interrupt flag
  IFS0bits.T4IF = 0;
9d007f74:	8e111030 	lw	s1,4144(s0)
9d007f78:	7c119cc4 	ins	s1,zero,0x13,0x1
9d007f7c:	ae111030 	sw	s1,4144(s0)
}
9d007f80:	03c0e825 	move	sp,s8
9d007f84:	8fa2008c 	lw	v0,140(sp)
9d007f88:	00400013 	mtlo	v0
9d007f8c:	8fa30088 	lw	v1,136(sp)
9d007f90:	00600011 	mthi	v1
9d007f94:	8fbf0084 	lw	ra,132(sp)
9d007f98:	8fbe0080 	lw	s8,128(sp)
9d007f9c:	8fb9007c 	lw	t9,124(sp)
9d007fa0:	8fb80078 	lw	t8,120(sp)
9d007fa4:	8fb70074 	lw	s7,116(sp)
9d007fa8:	8fb60070 	lw	s6,112(sp)
9d007fac:	8fb5006c 	lw	s5,108(sp)
9d007fb0:	8fb40068 	lw	s4,104(sp)
9d007fb4:	8fb30064 	lw	s3,100(sp)
9d007fb8:	8fb20060 	lw	s2,96(sp)
9d007fbc:	8fb1005c 	lw	s1,92(sp)
9d007fc0:	8fb00058 	lw	s0,88(sp)
9d007fc4:	8faf0054 	lw	t7,84(sp)
9d007fc8:	8fae0050 	lw	t6,80(sp)
9d007fcc:	8fad004c 	lw	t5,76(sp)
9d007fd0:	8fac0048 	lw	t4,72(sp)
9d007fd4:	8fab0044 	lw	t3,68(sp)
9d007fd8:	8faa0040 	lw	t2,64(sp)
9d007fdc:	8fa9003c 	lw	t1,60(sp)
9d007fe0:	8fa80038 	lw	t0,56(sp)
9d007fe4:	8fa70034 	lw	a3,52(sp)
9d007fe8:	8fa60030 	lw	a2,48(sp)
9d007fec:	8fa5002c 	lw	a1,44(sp)
9d007ff0:	8fa40028 	lw	a0,40(sp)
9d007ff4:	8fa30024 	lw	v1,36(sp)
9d007ff8:	8fa20020 	lw	v0,32(sp)
9d007ffc:	8fa1001c 	lw	at,28(sp)
9d008000:	41606000 	di
9d008004:	000000c0 	ehb
9d008008:	8fba009c 	lw	k0,156(sp)
9d00800c:	8fbb0098 	lw	k1,152(sp)
9d008010:	409a7000 	mtc0	k0,c0_epc
9d008014:	8fba0094 	lw	k0,148(sp)
9d008018:	27bd00a0 	addiu	sp,sp,160
9d00801c:	409a6002 	mtc0	k0,c0_srsctl
9d008020:	41dde800 	wrpgpr	sp,sp
9d008024:	409b6000 	mtc0	k1,c0_status
9d008028:	42000018 	eret
      WriteUART2("a"); 
9d00802c:	3c049d00 	lui	a0,0x9d00
9d008030:	0f403b81 	jal	9d00ee04 <WriteUART2>
9d008034:	248474d0 	addiu	a0,a0,29904
      while (!get_encoder_flag()) {
9d008038:	0f403b11 	jal	9d00ec44 <get_encoder_flag>
9d00803c:	00000000 	nop
9d008040:	1040fffd 	beqz	v0,9d008038 <Position_Control+0x188>
9d008044:	00000000 	nop
      set_encoder_flag(0);
9d008048:	0f403b14 	jal	9d00ec50 <set_encoder_flag>
9d00804c:	00002025 	move	a0,zero
      int enc_count = get_encoder_count();
9d008050:	0f403b17 	jal	9d00ec5c <get_encoder_count>
9d008054:	00000000 	nop
9d008058:	00408825 	move	s1,v0
      float err_position = desired_angle - actual_ang;
9d00805c:	8f848064 	lw	a0,-32668(gp)
9d008060:	0f404ebd 	jal	9d013af4 <__floatsisf>
9d008064:	00000000 	nop
9d008068:	00408025 	move	s0,v0
      float actual_ang = (float) enc_count * (360.0/384); // 96 lines, 4 states per line so total resolution is 360/384
9d00806c:	0f404ebd 	jal	9d013af4 <__floatsisf>
9d008070:	02202025 	move	a0,s1
9d008074:	3c039d00 	lui	v1,0x9d00
9d008078:	8c65752c 	lw	a1,29996(v1)
9d00807c:	0f4040eb 	jal	9d0103ac <__mulsf3>
9d008080:	00402025 	move	a0,v0
      float err_position = desired_angle - actual_ang;
9d008084:	00402825 	move	a1,v0
9d008088:	0f403f51 	jal	9d00fd44 <__subsf3>
9d00808c:	02002025 	move	a0,s0
9d008090:	00408025 	move	s0,v0
      float edot = err_position - eprev;
9d008094:	8f93803c 	lw	s3,-32708(gp)
      eint_position = eint_position + err_position;
9d008098:	8f848038 	lw	a0,-32712(gp)
9d00809c:	0f403f53 	jal	9d00fd4c <__addsf3>
9d0080a0:	00402825 	move	a1,v0
9d0080a4:	af828038 	sw	v0,-32712(gp)
      if (eint_position > 2000.0) {
9d0080a8:	8f848038 	lw	a0,-32712(gp)
9d0080ac:	3c029d00 	lui	v0,0x9d00
9d0080b0:	0f404b4f 	jal	9d012d3c <__eqsf2>
9d0080b4:	8c45751c 	lw	a1,29980(v0)
9d0080b8:	1840001e 	blez	v0,9d008134 <Position_Control+0x284>
9d0080bc:	3c029d00 	lui	v0,0x9d00
          eint_position = 2000.0;
9d0080c0:	8c42751c 	lw	v0,29980(v0)
9d0080c4:	af828038 	sw	v0,-32712(gp)
      current_needed = position_Kp*err_position + position_Ki*eint_position + position_Kd*edot;
9d0080c8:	8f848060 	lw	a0,-32672(gp)
9d0080cc:	8f94804c 	lw	s4,-32692(gp)
9d0080d0:	8f958038 	lw	s5,-32712(gp)
9d0080d4:	8f928054 	lw	s2,-32684(gp)
9d0080d8:	0f4040eb 	jal	9d0103ac <__mulsf3>
9d0080dc:	02002825 	move	a1,s0
9d0080e0:	00408825 	move	s1,v0
9d0080e4:	02a02825 	move	a1,s5
9d0080e8:	0f4040eb 	jal	9d0103ac <__mulsf3>
9d0080ec:	02802025 	move	a0,s4
9d0080f0:	00402825 	move	a1,v0
9d0080f4:	0f403f53 	jal	9d00fd4c <__addsf3>
9d0080f8:	02202025 	move	a0,s1
9d0080fc:	00408825 	move	s1,v0
      float edot = err_position - eprev;
9d008100:	02602825 	move	a1,s3
9d008104:	0f403f51 	jal	9d00fd44 <__subsf3>
9d008108:	02002025 	move	a0,s0
      current_needed = position_Kp*err_position + position_Ki*eint_position + position_Kd*edot;
9d00810c:	02402825 	move	a1,s2
9d008110:	0f4040eb 	jal	9d0103ac <__mulsf3>
9d008114:	00402025 	move	a0,v0
9d008118:	00402825 	move	a1,v0
9d00811c:	0f403f53 	jal	9d00fd4c <__addsf3>
9d008120:	02202025 	move	a0,s1
9d008124:	af828040 	sw	v0,-32704(gp)
      eprev = err_position;
9d008128:	af90803c 	sw	s0,-32708(gp)
      break;
9d00812c:	1000ff91 	b	9d007f74 <Position_Control+0xc4>
9d008130:	3c10bf88 	lui	s0,0xbf88
      else if (eint_position < -2000.0) {
9d008134:	8f848038 	lw	a0,-32712(gp)
9d008138:	3c029d00 	lui	v0,0x9d00
9d00813c:	0f404b76 	jal	9d012dd8 <fpcmplt>
9d008140:	8c457520 	lw	a1,29984(v0)
9d008144:	0441ffe0 	bgez	v0,9d0080c8 <Position_Control+0x218>
9d008148:	3c029d00 	lui	v0,0x9d00
          eint_position = -2000.0;
9d00814c:	8c427520 	lw	v0,29984(v0)
9d008150:	af828038 	sw	v0,-32712(gp)
9d008154:	1000ffdc 	b	9d0080c8 <Position_Control+0x218>
9d008158:	00000000 	nop
      WriteUART2("a"); 
9d00815c:	3c049d00 	lui	a0,0x9d00
9d008160:	0f403b81 	jal	9d00ee04 <WriteUART2>
9d008164:	248474d0 	addiu	a0,a0,29904
      while (!get_encoder_flag()) {
9d008168:	0f403b11 	jal	9d00ec44 <get_encoder_flag>
9d00816c:	00000000 	nop
9d008170:	1040fffd 	beqz	v0,9d008168 <Position_Control+0x2b8>
9d008174:	00000000 	nop
      set_encoder_flag(0);
9d008178:	0f403b14 	jal	9d00ec50 <set_encoder_flag>
9d00817c:	00002025 	move	a0,zero
      pos = get_encoder_count();
9d008180:	0f403b17 	jal	9d00ec5c <get_encoder_count>
9d008184:	00000000 	nop
9d008188:	0f404ebd 	jal	9d013af4 <__floatsisf>
9d00818c:	00402025 	move	a0,v0
9d008190:	00409025 	move	s2,v0
      float error = Waveform[counter] - (pos * 0.9375);
9d008194:	8f90802c 	lw	s0,-32724(gp)
9d008198:	00101880 	sll	v1,s0,0x2
9d00819c:	3c04a000 	lui	a0,0xa000
9d0081a0:	248411ec 	addiu	a0,a0,4588
9d0081a4:	00641821 	addu	v1,v1,a0
9d0081a8:	8c710000 	lw	s1,0(v1)
9d0081ac:	0f404a2f 	jal	9d0128bc <__extendsfdf2>
9d0081b0:	00402025 	move	a0,v0
9d0081b4:	3c049d00 	lui	a0,0x9d00
9d0081b8:	8c867548 	lw	a2,30024(a0)
9d0081bc:	8c87754c 	lw	a3,30028(a0)
9d0081c0:	00402025 	move	a0,v0
9d0081c4:	0f403be4 	jal	9d00ef90 <__muldf3>
9d0081c8:	00602825 	move	a1,v1
9d0081cc:	0040a025 	move	s4,v0
9d0081d0:	0060a825 	move	s5,v1
9d0081d4:	afc20010 	sw	v0,16(s8)
9d0081d8:	afc30014 	sw	v1,20(s8)
9d0081dc:	0f404a2f 	jal	9d0128bc <__extendsfdf2>
9d0081e0:	02202025 	move	a0,s1
9d0081e4:	02803025 	move	a2,s4
9d0081e8:	02a03825 	move	a3,s5
9d0081ec:	00402025 	move	a0,v0
9d0081f0:	0f403728 	jal	9d00dca0 <__subdf3>
9d0081f4:	00602825 	move	a1,v1
9d0081f8:	00402025 	move	a0,v0
9d0081fc:	0f4047fd 	jal	9d011ff4 <__truncdfsf2>
9d008200:	00602825 	move	a1,v1
9d008204:	00408825 	move	s1,v0
      float edot = error - eprev;
9d008208:	8f94803c 	lw	s4,-32708(gp)
      eint_position = eint_position + error;
9d00820c:	8f848038 	lw	a0,-32712(gp)
9d008210:	0f403f53 	jal	9d00fd4c <__addsf3>
9d008214:	00402825 	move	a1,v0
9d008218:	af828038 	sw	v0,-32712(gp)
      if (eint_position > 2000.0) {
9d00821c:	8f848038 	lw	a0,-32712(gp)
9d008220:	3c029d00 	lui	v0,0x9d00
9d008224:	0f404b4f 	jal	9d012d3c <__eqsf2>
9d008228:	8c45751c 	lw	a1,29980(v0)
9d00822c:	18400031 	blez	v0,9d0082f4 <Position_Control+0x444>
9d008230:	3c029d00 	lui	v0,0x9d00
          eint_position = 2000.0;
9d008234:	8c42751c 	lw	v0,29980(v0)
9d008238:	af828038 	sw	v0,-32712(gp)
      current_needed = position_Kp*error + position_Ki*eint_position + position_Kd*edot;
9d00823c:	8f848060 	lw	a0,-32672(gp)
9d008240:	8f96804c 	lw	s6,-32692(gp)
9d008244:	8f978038 	lw	s7,-32712(gp)
9d008248:	8f938054 	lw	s3,-32684(gp)
9d00824c:	0f4040eb 	jal	9d0103ac <__mulsf3>
9d008250:	02202825 	move	a1,s1
9d008254:	0040a825 	move	s5,v0
9d008258:	02e02825 	move	a1,s7
9d00825c:	0f4040eb 	jal	9d0103ac <__mulsf3>
9d008260:	02c02025 	move	a0,s6
9d008264:	00402825 	move	a1,v0
9d008268:	0f403f53 	jal	9d00fd4c <__addsf3>
9d00826c:	02a02025 	move	a0,s5
9d008270:	0040a825 	move	s5,v0
      float edot = error - eprev;
9d008274:	02802825 	move	a1,s4
9d008278:	0f403f51 	jal	9d00fd44 <__subsf3>
9d00827c:	02202025 	move	a0,s1
      current_needed = position_Kp*error + position_Ki*eint_position + position_Kd*edot;
9d008280:	02602825 	move	a1,s3
9d008284:	0f4040eb 	jal	9d0103ac <__mulsf3>
9d008288:	00402025 	move	a0,v0
9d00828c:	00402825 	move	a1,v0
9d008290:	0f403f53 	jal	9d00fd4c <__addsf3>
9d008294:	02a02025 	move	a0,s5
9d008298:	af828040 	sw	v0,-32704(gp)
      posArray[counter] = (int) pos;
9d00829c:	0f404cda 	jal	9d013368 <__fixsfsi>
9d0082a0:	02402025 	move	a0,s2
9d0082a4:	00109080 	sll	s2,s0,0x2
9d0082a8:	3c13a000 	lui	s3,0xa000
9d0082ac:	267340cc 	addiu	s3,s3,16588
9d0082b0:	02539021 	addu	s2,s2,s3
9d0082b4:	ae420000 	sw	v0,0(s2)
      counter += 1;
9d0082b8:	26100001 	addiu	s0,s0,1
9d0082bc:	af90802c 	sw	s0,-32724(gp)
      if (counter == pos_length) {
9d0082c0:	8f928050 	lw	s2,-32688(gp)
9d0082c4:	16120008 	bne	s0,s2,9d0082e8 <Position_Control+0x438>
9d0082c8:	00000000 	nop
        counter = 0;
9d0082cc:	af80802c 	sw	zero,-32724(gp)
        desired_angle = pos * 0.9375;
9d0082d0:	8fc40010 	lw	a0,16(s8)
9d0082d4:	0f404c0c 	jal	9d013030 <__fixdfsi>
9d0082d8:	8fc50014 	lw	a1,20(s8)
9d0082dc:	af828064 	sw	v0,-32668(gp)
        set_mode(HOLD);
9d0082e0:	0f4052a7 	jal	9d014a9c <set_mode>
9d0082e4:	24040003 	li	a0,3
      eprev = error;
9d0082e8:	af91803c 	sw	s1,-32708(gp)
      break;
9d0082ec:	1000ff21 	b	9d007f74 <Position_Control+0xc4>
9d0082f0:	3c10bf88 	lui	s0,0xbf88
      else if (eint_position < -2000.0) {
9d0082f4:	8f848038 	lw	a0,-32712(gp)
9d0082f8:	3c029d00 	lui	v0,0x9d00
9d0082fc:	0f404b76 	jal	9d012dd8 <fpcmplt>
9d008300:	8c457520 	lw	a1,29984(v0)
9d008304:	0441ffcd 	bgez	v0,9d00823c <Position_Control+0x38c>
9d008308:	3c029d00 	lui	v0,0x9d00
          eint_position = -2000.0;
9d00830c:	8c427520 	lw	v0,29984(v0)
9d008310:	af828038 	sw	v0,-32712(gp)
9d008314:	1000ffc9 	b	9d00823c <Position_Control+0x38c>
9d008318:	00000000 	nop

9d00831c <OC1_Startup>:
//   return ADC1BUF0;
// }

void OC1_Startup(void){ // for current controller
  // RPA0Rbits.RPA0R = 0b0101; // OC1 is RPA0 (pin 2)
  RPB15Rbits.RPB15R = 0b0101; // RPB15 is OC1 (pin 26)
9d00831c:	3c02bf81 	lui	v0,0xbf81
9d008320:	9043fb68 	lbu	v1,-1176(v0)
9d008324:	24040005 	li	a0,5
9d008328:	7c831804 	ins	v1,a0,0x0,0x4
9d00832c:	a043fb68 	sb	v1,-1176(v0)
  // RPA0Rbits.RPA0R = 0b0101; // A0 is OC1
  //RISAbits.TRISA1 = 0;
  // LATAbits.LATA1 = 0;
  T2CONbits.TCKPS = 0; // Timer2 prescaler 1 
9d008330:	3c03bf80 	lui	v1,0xbf80
9d008334:	94620800 	lhu	v0,2048(v1)
9d008338:	7c023104 	ins	v0,zero,0x4,0x3
9d00833c:	a4620800 	sh	v0,2048(v1)
  PR2 = 2400-1; // 48,000,000/1/20000 = 2400
9d008340:	3c02bf80 	lui	v0,0xbf80
9d008344:	2404095f 	li	a0,2399
9d008348:	ac440820 	sw	a0,2080(v0)
  TMR2 = 0; // initial TMR2 count is 0
9d00834c:	3c02bf80 	lui	v0,0xbf80
9d008350:	ac400810 	sw	zero,2064(v0)
  OC1CONbits.OCM = 0b110; // PWM mode without fault pin; other OC1CON bits are defaults
9d008354:	3c02bf80 	lui	v0,0xbf80
9d008358:	94443000 	lhu	a0,12288(v0)
9d00835c:	24050006 	li	a1,6
9d008360:	7ca41004 	ins	a0,a1,0x0,0x3
9d008364:	a4443000 	sh	a0,12288(v0)
  OC1RS = 2400*0.25; // duty cycle = OC1RS/(PR2+1) = 25%
9d008368:	24040258 	li	a0,600
9d00836c:	3c05bf80 	lui	a1,0xbf80
9d008370:	aca43020 	sw	a0,12320(a1)
  OC1R = 2400*0.25; // initialize before turning OC1 on; afterward it is read-only
9d008374:	3c05bf80 	lui	a1,0xbf80
9d008378:	aca43010 	sw	a0,12304(a1)
  T2CONbits.ON = 1; // turn on Timer2
9d00837c:	94650800 	lhu	a1,2048(v1)
9d008380:	24040001 	li	a0,1
9d008384:	7c857bc4 	ins	a1,a0,0xf,0x1
9d008388:	a4650800 	sh	a1,2048(v1)
  OC1CONbits.ON = 1; // turn on OC1
9d00838c:	94433000 	lhu	v1,12288(v0)
9d008390:	7c837bc4 	ins	v1,a0,0xf,0x1
9d008394:	a4433000 	sh	v1,12288(v0)
}
9d008398:	03e00008 	jr	ra
9d00839c:	00000000 	nop

9d0083a0 <TMR3_Startup>:

void TMR3_Startup(void) // starts up Timer3 (used for current controller - 5 kHz ISR)
{
  T3CONbits.TCKPS = 0; // prescalar = 1
9d0083a0:	3c02bf80 	lui	v0,0xbf80
9d0083a4:	94430a00 	lhu	v1,2560(v0)
9d0083a8:	7c033104 	ins	v1,zero,0x4,0x3
9d0083ac:	a4430a00 	sh	v1,2560(v0)
  PR3 = 9600-1;// 48,000,000/1/5,000 = 9600
9d0083b0:	3c03bf80 	lui	v1,0xbf80
9d0083b4:	2404257f 	li	a0,9599
9d0083b8:	ac640a20 	sw	a0,2592(v1)
  TMR3 = 0; // start count at 0
9d0083bc:	3c03bf80 	lui	v1,0xbf80
9d0083c0:	ac600a10 	sw	zero,2576(v1)
  T3CONbits.ON = 1; // turn on Timer3
9d0083c4:	94440a00 	lhu	a0,2560(v0)
9d0083c8:	24030001 	li	v1,1
9d0083cc:	7c647bc4 	ins	a0,v1,0xf,0x1
9d0083d0:	a4440a00 	sh	a0,2560(v0)

  IPC3bits.T3IP = 5;// interrupt priority 5
9d0083d4:	3c02bf88 	lui	v0,0xbf88
9d0083d8:	8c4410c0 	lw	a0,4288(v0)
9d0083dc:	24050005 	li	a1,5
9d0083e0:	7ca42084 	ins	a0,a1,0x2,0x3
9d0083e4:	ac4410c0 	sw	a0,4288(v0)
  IPC3bits.T3IS = 1; // interrupt priority 1
9d0083e8:	8c4410c0 	lw	a0,4288(v0)
9d0083ec:	7c640804 	ins	a0,v1,0x0,0x2
9d0083f0:	ac4410c0 	sw	a0,4288(v0)
  IFS0bits.T3IF = 0; // clear the int flag
9d0083f4:	3c02bf88 	lui	v0,0xbf88
9d0083f8:	8c441030 	lw	a0,4144(v0)
9d0083fc:	7c047384 	ins	a0,zero,0xe,0x1
9d008400:	ac441030 	sw	a0,4144(v0)
  IEC0bits.T3IE = 1; // enable INT0 by setting IEC0<3>
9d008404:	3c02bf88 	lui	v0,0xbf88
9d008408:	8c441060 	lw	a0,4192(v0)
9d00840c:	7c647384 	ins	a0,v1,0xe,0x1
9d008410:	ac441060 	sw	a0,4192(v0)
}
9d008414:	03e00008 	jr	ra
9d008418:	00000000 	nop

9d00841c <TMR4_Startup>:

void TMR4_Startup(void) // starts up Timer4 (used for position control)
{
  T4CONbits.TCKPS = 0b010; // prescalar = 4
9d00841c:	3c02bf80 	lui	v0,0xbf80
9d008420:	94430c00 	lhu	v1,3072(v0)
9d008424:	24040002 	li	a0,2
9d008428:	7c833104 	ins	v1,a0,0x4,0x3
9d00842c:	a4430c00 	sh	v1,3072(v0)
  PR4 = 60000-1; // 48,000,000/4/200 = 60000
9d008430:	3c03bf80 	lui	v1,0xbf80
9d008434:	3404ea5f 	li	a0,0xea5f
9d008438:	ac640c20 	sw	a0,3104(v1)
  TMR4 = 0; // start count at 0
9d00843c:	3c03bf80 	lui	v1,0xbf80
9d008440:	ac600c10 	sw	zero,3088(v1)
  T4CONbits.ON = 1; // turn on Timer 4
9d008444:	94440c00 	lhu	a0,3072(v0)
9d008448:	24030001 	li	v1,1
9d00844c:	7c647bc4 	ins	a0,v1,0xf,0x1
9d008450:	a4440c00 	sh	a0,3072(v0)

  IPC4bits.T4IP = 4; // interrupt priority level 4
9d008454:	3c02bf88 	lui	v0,0xbf88
9d008458:	8c4410d0 	lw	a0,4304(v0)
9d00845c:	24050004 	li	a1,4
9d008460:	7ca42084 	ins	a0,a1,0x2,0x3
9d008464:	ac4410d0 	sw	a0,4304(v0)
  IPC4bits.T4IS = 1; // iterrupt subpriority level 1
9d008468:	8c4410d0 	lw	a0,4304(v0)
9d00846c:	7c640804 	ins	a0,v1,0x0,0x2
9d008470:	ac4410d0 	sw	a0,4304(v0)
  IFS0bits.T4IF = 0; // clear interrupt flag
9d008474:	3c02bf88 	lui	v0,0xbf88
9d008478:	8c441030 	lw	a0,4144(v0)
9d00847c:	7c049cc4 	ins	a0,zero,0x13,0x1
9d008480:	ac441030 	sw	a0,4144(v0)
  IEC0bits.T4IE = 1; // enable INT0 by setting IEC0<3>
9d008484:	3c02bf88 	lui	v0,0xbf88
9d008488:	8c441060 	lw	a0,4192(v0)
9d00848c:	7c649cc4 	ins	a0,v1,0x13,0x1
9d008490:	ac441060 	sw	a0,4192(v0)

9d008494:	03e00008 	jr	ra
9d008498:	00000000 	nop

9d00849c <main>:
{
9d00849c:	27bdd768 	addiu	sp,sp,-10392
9d0084a0:	afbf2894 	sw	ra,10388(sp)
9d0084a4:	afbe2890 	sw	s8,10384(sp)
9d0084a8:	afb7288c 	sw	s7,10380(sp)
9d0084ac:	afb62888 	sw	s6,10376(sp)
9d0084b0:	afb52884 	sw	s5,10372(sp)
9d0084b4:	afb42880 	sw	s4,10368(sp)
9d0084b8:	afb3287c 	sw	s3,10364(sp)
9d0084bc:	afb22878 	sw	s2,10360(sp)
9d0084c0:	afb12874 	sw	s1,10356(sp)
  NU32DIP_Startup(); // cache on, min flash wait, interrupts on, LED/button init, UART init
9d0084c4:	0f40407b 	jal	9d0101ec <NU32DIP_Startup>
9d0084c8:	afb02870 	sw	s0,10352(sp)
  NU32DIP_GREEN = 1;  // turn off the LEDs
9d0084cc:	3c10bf88 	lui	s0,0xbf88
9d0084d0:	96026130 	lhu	v0,24880(s0)
9d0084d4:	24030001 	li	v1,1
9d0084d8:	7c622104 	ins	v0,v1,0x4,0x1
9d0084dc:	a6026130 	sh	v0,24880(s0)
  NU32DIP_YELLOW = 1;     
9d0084e0:	96026130 	lhu	v0,24880(s0)
9d0084e4:	7c622944 	ins	v0,v1,0x5,0x1
9d0084e8:	a6026130 	sh	v0,24880(s0)
  set_mode(IDLE);
9d0084ec:	0f4052a7 	jal	9d014a9c <set_mode>
9d0084f0:	00002025 	move	a0,zero
  TRISBbits.TRISB12 = 0; // set pin 23 to be an output for direction pin;
9d0084f4:	3c02bf88 	lui	v0,0xbf88
9d0084f8:	94436110 	lhu	v1,24848(v0)
9d0084fc:	7c036304 	ins	v1,zero,0xc,0x1
9d008500:	a4436110 	sh	v1,24848(v0)
  DIRECTION = 0;
9d008504:	96026130 	lhu	v0,24880(s0)
9d008508:	7c026304 	ins	v0,zero,0xc,0x1
9d00850c:	a6026130 	sh	v0,24880(s0)
  __builtin_disable_interrupts();
9d008510:	41626000 	di	v0
9d008514:	000000c0 	ehb
  UART2_Startup(); // startup UART2 (encoder)
9d008518:	0f403ba5 	jal	9d00ee94 <UART2_Startup>
9d00851c:	00000000 	nop
  INA219_Startup(); // startup current sensor
9d008520:	0f4043a9 	jal	9d010ea4 <INA219_Startup>
9d008524:	00000000 	nop
  __builtin_enable_interrupts();
9d008528:	41626020 	ei	v0
  OC1_Startup(); // for current sensor
9d00852c:	0f4020c7 	jal	9d00831c <OC1_Startup>
9d008530:	0200a025 	move	s4,s0
  TMR3_Startup(); // for current sensor
9d008534:	0f4020e8 	jal	9d0083a0 <TMR3_Startup>
9d008538:	3c119d00 	lui	s1,0x9d00
  TMR4_Startup(); // for position control
9d00853c:	0f402107 	jal	9d00841c <TMR4_Startup>
9d008540:	3c13a000 	lui	s3,0xa000
    switch (buffer[0]) {
9d008544:	3c029d01 	lui	v0,0x9d01
9d008548:	24428624 	addiu	v0,v0,-31196
9d00854c:	afa2283c 	sw	v0,10300(sp)
          sprintf(message, "%d %d %d\r\n", pos_length-i, posArray[i], (int) Waveform[i]);
9d008550:	3c02a000 	lui	v0,0xa000
9d008554:	244240cc 	addiu	v0,v0,16588
9d008558:	afa22840 	sw	v0,10304(sp)
9d00855c:	3c029d00 	lui	v0,0x9d00
9d008560:	afa22844 	sw	v0,10308(sp)
        sscanf(buffer, "%d", &desired_angle);
9d008564:	3c179d00 	lui	s7,0x9d00
          sprintf(buffer,"%f %f\r\n", ref_current_array[i], actual_current_array[i]); // return the number + 1
9d008568:	3c02a000 	lui	v0,0xa000
9d00856c:	afa22848 	sw	v0,10312(sp)
9d008570:	3c02a000 	lui	v0,0xa000
9d008574:	afa2284c 	sw	v0,10316(sp)
9d008578:	3c029d00 	lui	v0,0x9d00
9d00857c:	afa22850 	sw	v0,10320(sp)
        sprintf(buffer,"%f\r\n",position_Kp);
9d008580:	3c109d00 	lui	s0,0x9d00
        sscanf(buffer, "%f", &position_Kp);
9d008584:	3c129d00 	lui	s2,0x9d00
        WriteUART2("b");
9d008588:	3c029d00 	lui	v0,0x9d00
9d00858c:	afa22854 	sw	v0,10324(sp)
        WriteUART2("a"); // read encoder count
9d008590:	3c169d00 	lui	s6,0x9d00
        int ang = p * (360.0/384); // 96 lines, 4 states per line so total resolution is 360/384
9d008594:	3c029d00 	lui	v0,0x9d00
9d008598:	8c43754c 	lw	v1,30028(v0)
9d00859c:	8c427548 	lw	v0,30024(v0)
9d0085a0:	afa22858 	sw	v0,10328(sp)
9d0085a4:	afa3285c 	sw	v1,10332(sp)
    int adcval = (current/0.86) * 1023; // ADC = current/maxCurrent * 1023, maxCurrent = 2*6/14
9d0085a8:	3c029d00 	lui	v0,0x9d00
9d0085ac:	afa22860 	sw	v0,10336(sp)
9d0085b0:	3c029d00 	lui	v0,0x9d00
9d0085b4:	afa22864 	sw	v0,10340(sp)
          sprintf(buffer, "Waveform = %d", (int)Waveform[i]);
9d0085b8:	3c029d00 	lui	v0,0x9d00
9d0085bc:	afa22868 	sw	v0,10344(sp)
    NU32DIP_ReadUART1(buffer,BUF_SIZE); // we expect the next character to be a menu command
9d0085c0:	240500c8 	li	a1,200
9d0085c4:	0f4040c3 	jal	9d01030c <NU32DIP_ReadUART1>
9d0085c8:	27a40018 	addiu	a0,sp,24
    NU32DIP_YELLOW = 1;                   // clear the error LED
9d0085cc:	96826130 	lhu	v0,24880(s4)
9d0085d0:	24030001 	li	v1,1
9d0085d4:	7c622944 	ins	v0,v1,0x5,0x1
9d0085d8:	a6826130 	sh	v0,24880(s4)
    float current = INA219_read_current(); 
9d0085dc:	0f4043db 	jal	9d010f6c <INA219_read_current>
9d0085e0:	00000000 	nop
    int adcval = (current/0.86) * 1023; // ADC = current/maxCurrent * 1023, maxCurrent = 2*6/14
9d0085e4:	0f404a2f 	jal	9d0128bc <__extendsfdf2>
9d0085e8:	00402025 	move	a0,v0
9d0085ec:	00604825 	move	t1,v1
    switch (buffer[0]) {
9d0085f0:	93a30018 	lbu	v1,24(sp)
9d0085f4:	2463ff9f 	addiu	v1,v1,-97
9d0085f8:	306500ff 	andi	a1,v1,0xff
9d0085fc:	2ca5001a 	sltiu	a1,a1,26
9d008600:	10a001e9 	beqz	a1,9d008da8 <__jend_main_85+0x71c>
9d008604:	00404025 	move	t0,v0
9d008608:	306300ff 	andi	v1,v1,0xff
9d00860c:	00031880 	sll	v1,v1,0x2
9d008610:	8fa2283c 	lw	v0,10300(sp)
9d008614:	00431821 	addu	v1,v0,v1
9d008618:	8c620000 	lw	v0,0(v1)
9d00861c:	00400008 	jr	v0
9d008620:	00000000 	nop

9d008624 <__jump_main_85>:
9d008624:	9d008748 9d0087a4 9d0087c8 9d008810     H...............
9d008634:	9d008880 9d008894 9d0088d8 9d008968     ............h...
9d008644:	9d0089c0 9d008a94 9d008b14 9d008be0     ................
9d008654:	9d008c30 9d008ca0 9d008698 9d008d60     0...........`...
9d008664:	9d008d70 9d008d80 9d008da8 9d008da8     p...............
9d008674:	9d008da8 9d008da8 9d008da8 9d008da8     ................
9d008684:	9d008da8 9d00868c                       ........

9d00868c <__jend_main_85>:
        for (int i=0; i<pos_length; i++) {
9d00868c:	8f828050 	lw	v0,-32688(gp)
9d008690:	1c40019e 	bgtz	v0,9d008d0c <__jend_main_85+0x680>
9d008694:	0000a825 	move	s5,zero
        eint_position = 0;
9d008698:	00001025 	move	v0,zero
9d00869c:	af828038 	sw	v0,-32712(gp)
        eprev = 0;
9d0086a0:	af82803c 	sw	v0,-32708(gp)
        set_mode(TRACK);
9d0086a4:	0f4052a7 	jal	9d014a9c <set_mode>
9d0086a8:	24040004 	li	a0,4
        while (get_mode() == TRACK) {
9d0086ac:	24150004 	li	s5,4
9d0086b0:	0f4052a4 	jal	9d014a90 <get_mode>
9d0086b4:	00000000 	nop
9d0086b8:	1055fffd 	beq	v0,s5,9d0086b0 <__jend_main_85+0x24>
9d0086bc:	00000000 	nop
        for (i=0; i<pos_length; i++) {
9d0086c0:	8f828050 	lw	v0,-32688(gp)
9d0086c4:	1840ffbe 	blez	v0,9d0085c0 <main+0x124>
9d0086c8:	0000a825 	move	s5,zero
          sprintf(message, "%d %d %d\r\n", pos_length-i, posArray[i], (int) Waveform[i]);
9d0086cc:	266211ec 	addiu	v0,s3,4588
9d0086d0:	afa2282c 	sw	v0,10284(sp)
9d0086d4:	8fa22844 	lw	v0,10308(sp)
9d0086d8:	24427508 	addiu	v0,v0,29960
9d0086dc:	afa22830 	sw	v0,10288(sp)
9d0086e0:	8f9e8050 	lw	s8,-32688(gp)
9d0086e4:	00151080 	sll	v0,s5,0x2
9d0086e8:	8fa32840 	lw	v1,10304(sp)
9d0086ec:	00431821 	addu	v1,v0,v1
9d0086f0:	8c630000 	lw	v1,0(v1)
9d0086f4:	afa32828 	sw	v1,10280(sp)
9d0086f8:	8fa4282c 	lw	a0,10284(sp)
9d0086fc:	00441021 	addu	v0,v0,a0
9d008700:	8c440000 	lw	a0,0(v0)
9d008704:	0f404cda 	jal	9d013368 <__fixsfsi>
9d008708:	03d5f023 	subu	s8,s8,s5
9d00870c:	afa20010 	sw	v0,16(sp)
9d008710:	8fa72828 	lw	a3,10280(sp)
9d008714:	03c03025 	move	a2,s8
9d008718:	8fa52830 	lw	a1,10288(sp)
9d00871c:	0f4051c0 	jal	9d014700 <_dsprintf_deEfFgGn>
9d008720:	27a400e0 	addiu	a0,sp,224
          NU32DIP_WriteUART1(message);
9d008724:	0f4040dc 	jal	9d010370 <NU32DIP_WriteUART1>
9d008728:	27a400e0 	addiu	a0,sp,224
        for (i=0; i<pos_length; i++) {
9d00872c:	26b50001 	addiu	s5,s5,1
9d008730:	8f828050 	lw	v0,-32688(gp)
9d008734:	02a2102a 	slt	v0,s5,v0
9d008738:	1440ffe9 	bnez	v0,9d0086e0 <__jend_main_85+0x54>
9d00873c:	240500c8 	li	a1,200
9d008740:	1000ffa0 	b	9d0085c4 <main+0x128>
9d008744:	00000000 	nop
    int adcval = (current/0.86) * 1023; // ADC = current/maxCurrent * 1023, maxCurrent = 2*6/14
9d008748:	8fa22860 	lw	v0,10336(sp)
9d00874c:	8c467550 	lw	a2,30032(v0)
9d008750:	8c477554 	lw	a3,30036(v0)
9d008754:	01002025 	move	a0,t0
9d008758:	0f4032c7 	jal	9d00cb1c <__divdf3>
9d00875c:	01202825 	move	a1,t1
9d008760:	8fa42864 	lw	a0,10340(sp)
9d008764:	8c867558 	lw	a2,30040(a0)
9d008768:	8c87755c 	lw	a3,30044(a0)
9d00876c:	00402025 	move	a0,v0
9d008770:	0f403be4 	jal	9d00ef90 <__muldf3>
9d008774:	00602825 	move	a1,v1
9d008778:	00402025 	move	a0,v0
9d00877c:	0f404c0c 	jal	9d013030 <__fixdfsi>
9d008780:	00602825 	move	a1,v1
        sprintf(buffer, "%d\r\n",adcval);
9d008784:	00403025 	move	a2,v0
9d008788:	262574d4 	addiu	a1,s1,29908
9d00878c:	0f4051c0 	jal	9d014700 <_dsprintf_deEfFgGn>
9d008790:	27a40018 	addiu	a0,sp,24
        NU32DIP_WriteUART1(buffer);
9d008794:	0f4040dc 	jal	9d010370 <NU32DIP_WriteUART1>
9d008798:	27a40018 	addiu	a0,sp,24
        break;
9d00879c:	1000ff89 	b	9d0085c4 <main+0x128>
9d0087a0:	240500c8 	li	a1,200
        sprintf(buffer, "%f\r\n",current);
9d0087a4:	01003025 	move	a2,t0
9d0087a8:	01203825 	move	a3,t1
9d0087ac:	260574dc 	addiu	a1,s0,29916
9d0087b0:	0f4051c0 	jal	9d014700 <_dsprintf_deEfFgGn>
9d0087b4:	27a40018 	addiu	a0,sp,24
        NU32DIP_WriteUART1(buffer);
9d0087b8:	0f4040dc 	jal	9d010370 <NU32DIP_WriteUART1>
9d0087bc:	27a40018 	addiu	a0,sp,24
        break;
9d0087c0:	1000ff80 	b	9d0085c4 <main+0x128>
9d0087c4:	240500c8 	li	a1,200
        WriteUART2("a");
9d0087c8:	0f403b81 	jal	9d00ee04 <WriteUART2>
9d0087cc:	26c474d0 	addiu	a0,s6,29904
        while (!get_encoder_flag()) {
9d0087d0:	0f403b11 	jal	9d00ec44 <get_encoder_flag>
9d0087d4:	00000000 	nop
9d0087d8:	1040fffd 	beqz	v0,9d0087d0 <__jend_main_85+0x144>
9d0087dc:	00000000 	nop
        set_encoder_flag(0);
9d0087e0:	0f403b14 	jal	9d00ec50 <set_encoder_flag>
9d0087e4:	00002025 	move	a0,zero
        int p = get_encoder_count();
9d0087e8:	0f403b17 	jal	9d00ec5c <get_encoder_count>
9d0087ec:	00000000 	nop
        sprintf(buffer,"%d\r\n",p);
9d0087f0:	00403025 	move	a2,v0
9d0087f4:	262574d4 	addiu	a1,s1,29908
9d0087f8:	0f4051c0 	jal	9d014700 <_dsprintf_deEfFgGn>
9d0087fc:	27a40018 	addiu	a0,sp,24
        NU32DIP_WriteUART1(buffer);
9d008800:	0f4040dc 	jal	9d010370 <NU32DIP_WriteUART1>
9d008804:	27a40018 	addiu	a0,sp,24
        break;
9d008808:	1000ff6e 	b	9d0085c4 <main+0x128>
9d00880c:	240500c8 	li	a1,200
        WriteUART2("a"); // read encoder count
9d008810:	0f403b81 	jal	9d00ee04 <WriteUART2>
9d008814:	26c474d0 	addiu	a0,s6,29904
        while (!get_encoder_flag()) {
9d008818:	0f403b11 	jal	9d00ec44 <get_encoder_flag>
9d00881c:	00000000 	nop
9d008820:	1040fffd 	beqz	v0,9d008818 <__jend_main_85+0x18c>
9d008824:	00000000 	nop
        set_encoder_flag(0);
9d008828:	0f403b14 	jal	9d00ec50 <set_encoder_flag>
9d00882c:	00002025 	move	a0,zero
        int p = get_encoder_count();
9d008830:	0f403b17 	jal	9d00ec5c <get_encoder_count>
9d008834:	00000000 	nop
        int ang = p * (360.0/384); // 96 lines, 4 states per line so total resolution is 360/384
9d008838:	0f404d77 	jal	9d0135dc <__floatsidf>
9d00883c:	00402025 	move	a0,v0
9d008840:	8fa62858 	lw	a2,10328(sp)
9d008844:	8fa7285c 	lw	a3,10332(sp)
9d008848:	00402025 	move	a0,v0
9d00884c:	0f403be4 	jal	9d00ef90 <__muldf3>
9d008850:	00602825 	move	a1,v1
9d008854:	00402025 	move	a0,v0
9d008858:	0f404c0c 	jal	9d013030 <__fixdfsi>
9d00885c:	00602825 	move	a1,v1
        sprintf(buffer,"%d\r\n",ang);
9d008860:	00403025 	move	a2,v0
9d008864:	262574d4 	addiu	a1,s1,29908
9d008868:	0f4051c0 	jal	9d014700 <_dsprintf_deEfFgGn>
9d00886c:	27a40018 	addiu	a0,sp,24
        NU32DIP_WriteUART1(buffer);
9d008870:	0f4040dc 	jal	9d010370 <NU32DIP_WriteUART1>
9d008874:	27a40018 	addiu	a0,sp,24
        break;
9d008878:	1000ff52 	b	9d0085c4 <main+0x128>
9d00887c:	240500c8 	li	a1,200
        WriteUART2("b");
9d008880:	8fa22854 	lw	v0,10324(sp)
9d008884:	0f403b81 	jal	9d00ee04 <WriteUART2>
9d008888:	244474e4 	addiu	a0,v0,29924
        break;
9d00888c:	1000ff4d 	b	9d0085c4 <main+0x128>
9d008890:	240500c8 	li	a1,200
        NU32DIP_ReadUART1(buffer, BUF_SIZE);
9d008894:	240500c8 	li	a1,200
9d008898:	0f4040c3 	jal	9d01030c <NU32DIP_ReadUART1>
9d00889c:	27a40018 	addiu	a0,sp,24
        sscanf(buffer, "%d", &cur_pwm);
9d0088a0:	2786805c 	addiu	a2,gp,-32676
9d0088a4:	26e574e8 	addiu	a1,s7,29928
9d0088a8:	0f4051ca 	jal	9d014728 <_dsscanf_deEfFgGn>
9d0088ac:	27a40018 	addiu	a0,sp,24
        sprintf(m, "%d\r\n", cur_pwm);
9d0088b0:	8f86805c 	lw	a2,-32676(gp)
9d0088b4:	262574d4 	addiu	a1,s1,29908
9d0088b8:	0f4051c0 	jal	9d014700 <_dsprintf_deEfFgGn>
9d0088bc:	27a400e0 	addiu	a0,sp,224
        NU32DIP_WriteUART1(m);
9d0088c0:	0f4040dc 	jal	9d010370 <NU32DIP_WriteUART1>
9d0088c4:	27a400e0 	addiu	a0,sp,224
        set_mode(PWM);
9d0088c8:	0f4052a7 	jal	9d014a9c <set_mode>
9d0088cc:	24040001 	li	a0,1
    NU32DIP_ReadUART1(buffer,BUF_SIZE); // we expect the next character to be a menu command
9d0088d0:	1000ff3c 	b	9d0085c4 <main+0x128>
9d0088d4:	240500c8 	li	a1,200
        NU32DIP_ReadUART1(buffer, BUF_SIZE);
9d0088d8:	240500c8 	li	a1,200
9d0088dc:	0f4040c3 	jal	9d01030c <NU32DIP_ReadUART1>
9d0088e0:	27a40018 	addiu	a0,sp,24
        sscanf(buffer, "%f", &current_Kp);
9d0088e4:	27868048 	addiu	a2,gp,-32696
9d0088e8:	264574ec 	addiu	a1,s2,29932
9d0088ec:	0f4051ca 	jal	9d014728 <_dsscanf_deEfFgGn>
9d0088f0:	27a40018 	addiu	a0,sp,24
        sprintf(m, "%f\r\n", current_Kp);
9d0088f4:	8f848048 	lw	a0,-32696(gp)
9d0088f8:	0f404a2f 	jal	9d0128bc <__extendsfdf2>
9d0088fc:	00000000 	nop
9d008900:	00403025 	move	a2,v0
9d008904:	00603825 	move	a3,v1
9d008908:	260574dc 	addiu	a1,s0,29916
9d00890c:	0f4051c0 	jal	9d014700 <_dsprintf_deEfFgGn>
9d008910:	27a400e0 	addiu	a0,sp,224
        NU32DIP_WriteUART1(m);
9d008914:	0f4040dc 	jal	9d010370 <NU32DIP_WriteUART1>
9d008918:	27a400e0 	addiu	a0,sp,224
        NU32DIP_ReadUART1(buffer, BUF_SIZE);
9d00891c:	240500c8 	li	a1,200
9d008920:	0f4040c3 	jal	9d01030c <NU32DIP_ReadUART1>
9d008924:	27a40018 	addiu	a0,sp,24
        sscanf(buffer, "%f", &current_Ki);
9d008928:	27868044 	addiu	a2,gp,-32700
9d00892c:	264574ec 	addiu	a1,s2,29932
9d008930:	0f4051ca 	jal	9d014728 <_dsscanf_deEfFgGn>
9d008934:	27a40018 	addiu	a0,sp,24
        sprintf(m, "%f\r\n", current_Ki);
9d008938:	8f848044 	lw	a0,-32700(gp)
9d00893c:	0f404a2f 	jal	9d0128bc <__extendsfdf2>
9d008940:	00000000 	nop
9d008944:	00403025 	move	a2,v0
9d008948:	00603825 	move	a3,v1
9d00894c:	260574dc 	addiu	a1,s0,29916
9d008950:	0f4051c0 	jal	9d014700 <_dsprintf_deEfFgGn>
9d008954:	27a400e0 	addiu	a0,sp,224
        NU32DIP_WriteUART1(m); 
9d008958:	0f4040dc 	jal	9d010370 <NU32DIP_WriteUART1>
9d00895c:	27a400e0 	addiu	a0,sp,224
    NU32DIP_ReadUART1(buffer,BUF_SIZE); // we expect the next character to be a menu command
9d008960:	1000ff18 	b	9d0085c4 <main+0x128>
9d008964:	240500c8 	li	a1,200
        sprintf(buffer,"%f\r\n",current_Kp);
9d008968:	8f848048 	lw	a0,-32696(gp)
9d00896c:	0f404a2f 	jal	9d0128bc <__extendsfdf2>
9d008970:	00000000 	nop
9d008974:	00403025 	move	a2,v0
9d008978:	00603825 	move	a3,v1
9d00897c:	260574dc 	addiu	a1,s0,29916
9d008980:	0f4051c0 	jal	9d014700 <_dsprintf_deEfFgGn>
9d008984:	27a40018 	addiu	a0,sp,24
        NU32DIP_WriteUART1(buffer);
9d008988:	0f4040dc 	jal	9d010370 <NU32DIP_WriteUART1>
9d00898c:	27a40018 	addiu	a0,sp,24
        sprintf(buffer,"%f\r\n",current_Ki);
9d008990:	8f848044 	lw	a0,-32700(gp)
9d008994:	0f404a2f 	jal	9d0128bc <__extendsfdf2>
9d008998:	00000000 	nop
9d00899c:	00403025 	move	a2,v0
9d0089a0:	00603825 	move	a3,v1
9d0089a4:	260574dc 	addiu	a1,s0,29916
9d0089a8:	0f4051c0 	jal	9d014700 <_dsprintf_deEfFgGn>
9d0089ac:	27a40018 	addiu	a0,sp,24
        NU32DIP_WriteUART1(buffer);
9d0089b0:	0f4040dc 	jal	9d010370 <NU32DIP_WriteUART1>
9d0089b4:	27a40018 	addiu	a0,sp,24
        break;
9d0089b8:	1000ff02 	b	9d0085c4 <main+0x128>
9d0089bc:	240500c8 	li	a1,200
        NU32DIP_ReadUART1(buffer, BUF_SIZE);
9d0089c0:	240500c8 	li	a1,200
9d0089c4:	0f4040c3 	jal	9d01030c <NU32DIP_ReadUART1>
9d0089c8:	27a40018 	addiu	a0,sp,24
        sscanf(buffer, "%f", &position_Kp);
9d0089cc:	27868060 	addiu	a2,gp,-32672
9d0089d0:	264574ec 	addiu	a1,s2,29932
9d0089d4:	0f4051ca 	jal	9d014728 <_dsscanf_deEfFgGn>
9d0089d8:	27a40018 	addiu	a0,sp,24
        sprintf(m, "%f\r\n", position_Kp);
9d0089dc:	8f848060 	lw	a0,-32672(gp)
9d0089e0:	0f404a2f 	jal	9d0128bc <__extendsfdf2>
9d0089e4:	00000000 	nop
9d0089e8:	00403025 	move	a2,v0
9d0089ec:	00603825 	move	a3,v1
9d0089f0:	260574dc 	addiu	a1,s0,29916
9d0089f4:	0f4051c0 	jal	9d014700 <_dsprintf_deEfFgGn>
9d0089f8:	27a400e0 	addiu	a0,sp,224
        NU32DIP_WriteUART1(m);
9d0089fc:	0f4040dc 	jal	9d010370 <NU32DIP_WriteUART1>
9d008a00:	27a400e0 	addiu	a0,sp,224
        NU32DIP_ReadUART1(buffer, BUF_SIZE);
9d008a04:	240500c8 	li	a1,200
9d008a08:	0f4040c3 	jal	9d01030c <NU32DIP_ReadUART1>
9d008a0c:	27a40018 	addiu	a0,sp,24
        sscanf(buffer, "%f", &position_Ki);
9d008a10:	2786804c 	addiu	a2,gp,-32692
9d008a14:	264574ec 	addiu	a1,s2,29932
9d008a18:	0f4051ca 	jal	9d014728 <_dsscanf_deEfFgGn>
9d008a1c:	27a40018 	addiu	a0,sp,24
        sprintf(m, "%f\r\n", position_Ki);
9d008a20:	8f84804c 	lw	a0,-32692(gp)
9d008a24:	0f404a2f 	jal	9d0128bc <__extendsfdf2>
9d008a28:	00000000 	nop
9d008a2c:	00403025 	move	a2,v0
9d008a30:	00603825 	move	a3,v1
9d008a34:	260574dc 	addiu	a1,s0,29916
9d008a38:	0f4051c0 	jal	9d014700 <_dsprintf_deEfFgGn>
9d008a3c:	27a400e0 	addiu	a0,sp,224
        NU32DIP_WriteUART1(m); 
9d008a40:	0f4040dc 	jal	9d010370 <NU32DIP_WriteUART1>
9d008a44:	27a400e0 	addiu	a0,sp,224
        NU32DIP_ReadUART1(buffer, BUF_SIZE);
9d008a48:	240500c8 	li	a1,200
9d008a4c:	0f4040c3 	jal	9d01030c <NU32DIP_ReadUART1>
9d008a50:	27a40018 	addiu	a0,sp,24
        sscanf(buffer, "%f", &position_Kd);
9d008a54:	27868054 	addiu	a2,gp,-32684
9d008a58:	264574ec 	addiu	a1,s2,29932
9d008a5c:	0f4051ca 	jal	9d014728 <_dsscanf_deEfFgGn>
9d008a60:	27a40018 	addiu	a0,sp,24
        sprintf(m, "%f\r\n", position_Kd);
9d008a64:	8f848054 	lw	a0,-32684(gp)
9d008a68:	0f404a2f 	jal	9d0128bc <__extendsfdf2>
9d008a6c:	00000000 	nop
9d008a70:	00403025 	move	a2,v0
9d008a74:	00603825 	move	a3,v1
9d008a78:	260574dc 	addiu	a1,s0,29916
9d008a7c:	0f4051c0 	jal	9d014700 <_dsprintf_deEfFgGn>
9d008a80:	27a400e0 	addiu	a0,sp,224
        NU32DIP_WriteUART1(m); 
9d008a84:	0f4040dc 	jal	9d010370 <NU32DIP_WriteUART1>
9d008a88:	27a400e0 	addiu	a0,sp,224
    NU32DIP_ReadUART1(buffer,BUF_SIZE); // we expect the next character to be a menu command
9d008a8c:	1000fecd 	b	9d0085c4 <main+0x128>
9d008a90:	240500c8 	li	a1,200
        sprintf(buffer,"%f\r\n",position_Kp);
9d008a94:	8f848060 	lw	a0,-32672(gp)
9d008a98:	0f404a2f 	jal	9d0128bc <__extendsfdf2>
9d008a9c:	00000000 	nop
9d008aa0:	00403025 	move	a2,v0
9d008aa4:	00603825 	move	a3,v1
9d008aa8:	260574dc 	addiu	a1,s0,29916
9d008aac:	0f4051c0 	jal	9d014700 <_dsprintf_deEfFgGn>
9d008ab0:	27a40018 	addiu	a0,sp,24
        NU32DIP_WriteUART1(buffer);
9d008ab4:	0f4040dc 	jal	9d010370 <NU32DIP_WriteUART1>
9d008ab8:	27a40018 	addiu	a0,sp,24
        sprintf(buffer,"%f\r\n",position_Ki);
9d008abc:	8f84804c 	lw	a0,-32692(gp)
9d008ac0:	0f404a2f 	jal	9d0128bc <__extendsfdf2>
9d008ac4:	00000000 	nop
9d008ac8:	00403025 	move	a2,v0
9d008acc:	00603825 	move	a3,v1
9d008ad0:	260574dc 	addiu	a1,s0,29916
9d008ad4:	0f4051c0 	jal	9d014700 <_dsprintf_deEfFgGn>
9d008ad8:	27a40018 	addiu	a0,sp,24
        NU32DIP_WriteUART1(buffer);
9d008adc:	0f4040dc 	jal	9d010370 <NU32DIP_WriteUART1>
9d008ae0:	27a40018 	addiu	a0,sp,24
        sprintf(buffer,"%f\r\n",position_Kd);
9d008ae4:	8f848054 	lw	a0,-32684(gp)
9d008ae8:	0f404a2f 	jal	9d0128bc <__extendsfdf2>
9d008aec:	00000000 	nop
9d008af0:	00403025 	move	a2,v0
9d008af4:	00603825 	move	a3,v1
9d008af8:	260574dc 	addiu	a1,s0,29916
9d008afc:	0f4051c0 	jal	9d014700 <_dsprintf_deEfFgGn>
9d008b00:	27a40018 	addiu	a0,sp,24
        NU32DIP_WriteUART1(buffer);
9d008b04:	0f4040dc 	jal	9d010370 <NU32DIP_WriteUART1>
9d008b08:	27a40018 	addiu	a0,sp,24
        break;
9d008b0c:	1000fead 	b	9d0085c4 <main+0x128>
9d008b10:	240500c8 	li	a1,200
        set_mode(ITEST); // triggers ISR to enter ITEST mode
9d008b14:	0f4052a7 	jal	9d014a9c <set_mode>
9d008b18:	24040002 	li	a0,2
        while (get_mode() == ITEST) {
9d008b1c:	24150002 	li	s5,2
9d008b20:	0f4052a4 	jal	9d014a90 <get_mode>
9d008b24:	00000000 	nop
9d008b28:	1055fffd 	beq	v0,s5,9d008b20 <__jend_main_85+0x494>
9d008b2c:	3c020d30 	lui	v0,0xd30
        sprintf(buffer,"100\r\n");
9d008b30:	24423031 	addiu	v0,v0,12337
9d008b34:	afa20018 	sw	v0,24(sp)
9d008b38:	2402000a 	li	v0,10
9d008b3c:	a7a2001c 	sh	v0,28(sp)
        NU32DIP_WriteUART1(buffer); // python code first wants number of data points to receive
9d008b40:	0f4040dc 	jal	9d010370 <NU32DIP_WriteUART1>
9d008b44:	27a40018 	addiu	a0,sp,24
        for(int i = 0; i<=99; i++){
9d008b48:	0000a825 	move	s5,zero
          sprintf(buffer,"%f %f\r\n", ref_current_array[i], actual_current_array[i]); // return the number + 1
9d008b4c:	8fa22848 	lw	v0,10312(sp)
9d008b50:	244200bc 	addiu	v0,v0,188
9d008b54:	afa2282c 	sw	v0,10284(sp)
9d008b58:	8fa2284c 	lw	v0,10316(sp)
9d008b5c:	245e312c 	addiu	s8,v0,12588
9d008b60:	8fa22850 	lw	v0,10320(sp)
9d008b64:	244274f0 	addiu	v0,v0,29936
9d008b68:	afa22838 	sw	v0,10296(sp)
9d008b6c:	00151080 	sll	v0,s5,0x2
9d008b70:	8fa3282c 	lw	v1,10284(sp)
9d008b74:	00431821 	addu	v1,v0,v1
9d008b78:	8c640000 	lw	a0,0(v1)
9d008b7c:	005e1021 	addu	v0,v0,s8
9d008b80:	8c420000 	lw	v0,0(v0)
9d008b84:	0f404a2f 	jal	9d0128bc <__extendsfdf2>
9d008b88:	afa22828 	sw	v0,10280(sp)
9d008b8c:	afa22830 	sw	v0,10288(sp)
9d008b90:	afa32834 	sw	v1,10292(sp)
9d008b94:	0f404a2f 	jal	9d0128bc <__extendsfdf2>
9d008b98:	8fa42828 	lw	a0,10280(sp)
9d008b9c:	afa20010 	sw	v0,16(sp)
9d008ba0:	afa30014 	sw	v1,20(sp)
9d008ba4:	8fa62830 	lw	a2,10288(sp)
9d008ba8:	8fa72834 	lw	a3,10292(sp)
9d008bac:	8fa52838 	lw	a1,10296(sp)
9d008bb0:	0f4051c0 	jal	9d014700 <_dsprintf_deEfFgGn>
9d008bb4:	27a40018 	addiu	a0,sp,24
          NU32DIP_WriteUART1(buffer);
9d008bb8:	0f4040dc 	jal	9d010370 <NU32DIP_WriteUART1>
9d008bbc:	27a40018 	addiu	a0,sp,24
        for(int i = 0; i<=99; i++){
9d008bc0:	26b50001 	addiu	s5,s5,1
9d008bc4:	24020064 	li	v0,100
9d008bc8:	16a2ffe9 	bne	s5,v0,9d008b70 <__jend_main_85+0x4e4>
9d008bcc:	00151080 	sll	v0,s5,0x2
        set_mode(IDLE); 
9d008bd0:	0f4052a7 	jal	9d014a9c <set_mode>
9d008bd4:	00002025 	move	a0,zero
        break;
9d008bd8:	1000fe7a 	b	9d0085c4 <main+0x128>
9d008bdc:	240500c8 	li	a1,200
        eint_position = 0;
9d008be0:	00001025 	move	v0,zero
9d008be4:	af828038 	sw	v0,-32712(gp)
        eprev = 0;
9d008be8:	af82803c 	sw	v0,-32708(gp)
        NU32DIP_ReadUART1(buffer, BUF_SIZE);
9d008bec:	240500c8 	li	a1,200
9d008bf0:	0f4040c3 	jal	9d01030c <NU32DIP_ReadUART1>
9d008bf4:	27a40018 	addiu	a0,sp,24
        sscanf(buffer, "%d", &desired_angle);
9d008bf8:	27868064 	addiu	a2,gp,-32668
9d008bfc:	26e574e8 	addiu	a1,s7,29928
9d008c00:	0f4051ca 	jal	9d014728 <_dsscanf_deEfFgGn>
9d008c04:	27a40018 	addiu	a0,sp,24
        sprintf(buffer, "%d\r\n", desired_angle);
9d008c08:	8f868064 	lw	a2,-32668(gp)
9d008c0c:	262574d4 	addiu	a1,s1,29908
9d008c10:	0f4051c0 	jal	9d014700 <_dsprintf_deEfFgGn>
9d008c14:	27a40018 	addiu	a0,sp,24
        NU32DIP_WriteUART1(buffer);
9d008c18:	0f4040dc 	jal	9d010370 <NU32DIP_WriteUART1>
9d008c1c:	27a40018 	addiu	a0,sp,24
        set_mode(HOLD);
9d008c20:	0f4052a7 	jal	9d014a9c <set_mode>
9d008c24:	24040003 	li	a0,3
        break;
9d008c28:	1000fe66 	b	9d0085c4 <main+0x128>
9d008c2c:	240500c8 	li	a1,200
        NU32DIP_ReadUART1(length, 50);
9d008c30:	24050032 	li	a1,50
9d008c34:	0f4040c3 	jal	9d01030c <NU32DIP_ReadUART1>
9d008c38:	27a427f0 	addiu	a0,sp,10224
        int length1 = atoi(length);
9d008c3c:	0f404d39 	jal	9d0134e4 <atoi>
9d008c40:	27a427f0 	addiu	a0,sp,10224
        pos_length = length1;
9d008c44:	af828050 	sw	v0,-32688(gp)
        for (int i = 0; i<pos_length; i++) {
9d008c48:	8f828050 	lw	v0,-32688(gp)
9d008c4c:	1840fe5c 	blez	v0,9d0085c0 <main+0x124>
9d008c50:	0000a825 	move	s5,zero
          Waveform[i] = datapoint;
9d008c54:	267e11ec 	addiu	s8,s3,4588
          NU32DIP_ReadUART1(datastr, 10);
9d008c58:	2405000a 	li	a1,10
9d008c5c:	0f4040c3 	jal	9d01030c <NU32DIP_ReadUART1>
9d008c60:	27a400e0 	addiu	a0,sp,224
          float datapoint = atof(datastr);
9d008c64:	0f405227 	jal	9d01489c <atof>
9d008c68:	27a400e0 	addiu	a0,sp,224
9d008c6c:	00402025 	move	a0,v0
9d008c70:	0f4047fd 	jal	9d011ff4 <__truncdfsf2>
9d008c74:	00602825 	move	a1,v1
          Waveform[i] = datapoint;
9d008c78:	00151880 	sll	v1,s5,0x2
9d008c7c:	007e1821 	addu	v1,v1,s8
9d008c80:	ac620000 	sw	v0,0(v1)
        for (int i = 0; i<pos_length; i++) {
9d008c84:	26b50001 	addiu	s5,s5,1
9d008c88:	8f828050 	lw	v0,-32688(gp)
9d008c8c:	02a2102a 	slt	v0,s5,v0
9d008c90:	5440fff2 	bnezl	v0,9d008c5c <__jend_main_85+0x5d0>
9d008c94:	2405000a 	li	a1,10
    NU32DIP_ReadUART1(buffer,BUF_SIZE); // we expect the next character to be a menu command
9d008c98:	1000fe4a 	b	9d0085c4 <main+0x128>
9d008c9c:	240500c8 	li	a1,200
        NU32DIP_ReadUART1(length, 50);
9d008ca0:	24050032 	li	a1,50
9d008ca4:	0f4040c3 	jal	9d01030c <NU32DIP_ReadUART1>
9d008ca8:	27a427f0 	addiu	a0,sp,10224
        int length1 = atoi(length);
9d008cac:	0f404d39 	jal	9d0134e4 <atoi>
9d008cb0:	27a427f0 	addiu	a0,sp,10224
        pos_length = length1;
9d008cb4:	af828050 	sw	v0,-32688(gp)
        for (int i = 0; i<pos_length; i++) {
9d008cb8:	8f828050 	lw	v0,-32688(gp)
9d008cbc:	1840fe40 	blez	v0,9d0085c0 <main+0x124>
9d008cc0:	0000a825 	move	s5,zero
          Waveform[i] = datapoint;
9d008cc4:	267e11ec 	addiu	s8,s3,4588
          NU32DIP_ReadUART1(datastr, 10);
9d008cc8:	2405000a 	li	a1,10
9d008ccc:	0f4040c3 	jal	9d01030c <NU32DIP_ReadUART1>
9d008cd0:	27a400e0 	addiu	a0,sp,224
          int datapoint = atoi(datastr);
9d008cd4:	0f404d39 	jal	9d0134e4 <atoi>
9d008cd8:	27a400e0 	addiu	a0,sp,224
          Waveform[i] = datapoint;
9d008cdc:	0f404ebd 	jal	9d013af4 <__floatsisf>
9d008ce0:	00402025 	move	a0,v0
9d008ce4:	00151880 	sll	v1,s5,0x2
9d008ce8:	007e1821 	addu	v1,v1,s8
9d008cec:	ac620000 	sw	v0,0(v1)
        for (int i = 0; i<pos_length; i++) {
9d008cf0:	26b50001 	addiu	s5,s5,1
9d008cf4:	8f828050 	lw	v0,-32688(gp)
9d008cf8:	02a2102a 	slt	v0,s5,v0
9d008cfc:	1440fff2 	bnez	v0,9d008cc8 <__jend_main_85+0x63c>
9d008d00:	240500c8 	li	a1,200
9d008d04:	1000fe2f 	b	9d0085c4 <main+0x128>
9d008d08:	00000000 	nop
          sprintf(buffer, "Waveform = %d", (int)Waveform[i]);
9d008d0c:	267e11ec 	addiu	s8,s3,4588
9d008d10:	8fa22868 	lw	v0,10344(sp)
9d008d14:	244274f8 	addiu	v0,v0,29944
9d008d18:	afa22828 	sw	v0,10280(sp)
9d008d1c:	00151080 	sll	v0,s5,0x2
9d008d20:	005e1021 	addu	v0,v0,s8
9d008d24:	8c440000 	lw	a0,0(v0)
9d008d28:	0f404cda 	jal	9d013368 <__fixsfsi>
9d008d2c:	26b50001 	addiu	s5,s5,1
9d008d30:	00403025 	move	a2,v0
9d008d34:	8fa52828 	lw	a1,10280(sp)
9d008d38:	0f4051c0 	jal	9d014700 <_dsprintf_deEfFgGn>
9d008d3c:	27a40018 	addiu	a0,sp,24
          NU32DIP_WriteUART1(buffer);
9d008d40:	0f4040dc 	jal	9d010370 <NU32DIP_WriteUART1>
9d008d44:	27a40018 	addiu	a0,sp,24
        for (int i=0; i<pos_length; i++) {
9d008d48:	8f828050 	lw	v0,-32688(gp)
9d008d4c:	02a2102a 	slt	v0,s5,v0
9d008d50:	1440fff2 	bnez	v0,9d008d1c <__jend_main_85+0x690>
9d008d54:	00001025 	move	v0,zero
9d008d58:	1000fe50 	b	9d00869c <__jend_main_85+0x10>
9d008d5c:	00000000 	nop
        set_mode(IDLE);
9d008d60:	0f4052a7 	jal	9d014a9c <set_mode>
9d008d64:	00002025 	move	a0,zero
        break;
9d008d68:	1000fe16 	b	9d0085c4 <main+0x128>
9d008d6c:	240500c8 	li	a1,200
        set_mode(IDLE);
9d008d70:	0f4052a7 	jal	9d014a9c <set_mode>
9d008d74:	00002025 	move	a0,zero
        break;
9d008d78:	1000fe12 	b	9d0085c4 <main+0x128>
9d008d7c:	240500c8 	li	a1,200
        sprintf(buffer,"%d\r\n",get_mode());
9d008d80:	0f4052a4 	jal	9d014a90 <get_mode>
9d008d84:	00000000 	nop
9d008d88:	00403025 	move	a2,v0
9d008d8c:	262574d4 	addiu	a1,s1,29908
9d008d90:	0f4051c0 	jal	9d014700 <_dsprintf_deEfFgGn>
9d008d94:	27a40018 	addiu	a0,sp,24
        NU32DIP_WriteUART1(buffer);
9d008d98:	0f4040dc 	jal	9d010370 <NU32DIP_WriteUART1>
9d008d9c:	27a40018 	addiu	a0,sp,24
        break;
9d008da0:	1000fe08 	b	9d0085c4 <main+0x128>
9d008da4:	240500c8 	li	a1,200
        NU32DIP_YELLOW = 0;  // turn on LED2 to indicate an error
9d008da8:	96826130 	lhu	v0,24880(s4)
9d008dac:	7c022944 	ins	v0,zero,0x5,0x1
9d008db0:	a6826130 	sh	v0,24880(s4)
        break;
9d008db4:	1000fe03 	b	9d0085c4 <main+0x128>
9d008db8:	240500c8 	li	a1,200

Disassembly of section .text.decfloat:

9d008dbc <decfloat>:
9d008dbc:	27bdfdb0 	addiu	sp,sp,-592
9d008dc0:	afb30234 	sw	s3,564(sp)
9d008dc4:	afb1022c 	sw	s1,556(sp)
9d008dc8:	afbf024c 	sw	ra,588(sp)
9d008dcc:	afbe0248 	sw	s8,584(sp)
9d008dd0:	afb70244 	sw	s7,580(sp)
9d008dd4:	afb60240 	sw	s6,576(sp)
9d008dd8:	afb5023c 	sw	s5,572(sp)
9d008ddc:	afb40238 	sw	s4,568(sp)
9d008de0:	afb20230 	sw	s2,560(sp)
9d008de4:	afb00228 	sw	s0,552(sp)
9d008de8:	00808825 	move	s1,a0
9d008dec:	00a01025 	move	v0,a1
9d008df0:	afa60258 	sw	a2,600(sp)
9d008df4:	afa7025c 	sw	a3,604(sp)
9d008df8:	00009825 	move	s3,zero
9d008dfc:	24030030 	li	v1,48
9d008e00:	1043004a 	beq	v0,v1,9d008f2c <decfloat+0x170>
9d008e04:	2403002e 	li	v1,46
9d008e08:	1443006b 	bne	v0,v1,9d008fb8 <decfloat+0x1fc>
9d008e0c:	00009025 	move	s2,zero
9d008e10:	8e22003c 	lw	v0,60(s1)
9d008e14:	8e23004c 	lw	v1,76(s1)
9d008e18:	0043182b 	sltu	v1,v0,v1
9d008e1c:	10600050 	beqz	v1,9d008f60 <decfloat+0x1a4>
9d008e20:	24430001 	addiu	v1,v0,1
9d008e24:	ae23003c 	sw	v1,60(s1)
9d008e28:	90420000 	lbu	v0,0(v0)
9d008e2c:	00008025 	move	s0,zero
9d008e30:	0000a025 	move	s4,zero
9d008e34:	24030030 	li	v1,48
9d008e38:	1043004d 	beq	v0,v1,9d008f70 <decfloat+0x1b4>
9d008e3c:	24120001 	li	s2,1
9d008e40:	afa00010 	sw	zero,16(sp)
9d008e44:	0000b825 	move	s7,zero
9d008e48:	0000f025 	move	s8,zero
9d008e4c:	00003025 	move	a2,zero
9d008e50:	0000b025 	move	s6,zero
9d008e54:	0000a825 	move	s5,zero
9d008e58:	2444ffd0 	addiu	a0,v0,-48
9d008e5c:	2c85000a 	sltiu	a1,a0,10
9d008e60:	54a00058 	bnezl	a1,9d008fc4 <decfloat+0x208>
9d008e64:	2405002e 	li	a1,46
9d008e68:	2404002e 	li	a0,46
9d008e6c:	10440057 	beq	v0,a0,9d008fcc <decfloat+0x210>
9d008e70:	00000000 	nop
9d008e74:	03d2800a 	movz	s0,s8,s2
9d008e78:	00d2a00a 	movz	s4,a2,s2
9d008e7c:	1260030b 	beqz	s3,9d009aac <decfloat+0xcf0>
9d008e80:	34430020 	ori	v1,v0,0x20
9d008e84:	24040065 	li	a0,101
9d008e88:	14640325 	bne	v1,a0,9d009b20 <decfloat+0xd64>
9d008e8c:	8fa50264 	lw	a1,612(sp)
9d008e90:	02202025 	move	a0,s1
9d008e94:	0f403e03 	jal	9d00f80c <scanexp>
9d008e98:	afa60210 	sw	a2,528(sp)
9d008e9c:	1440000e 	bnez	v0,9d008ed8 <decfloat+0x11c>
9d008ea0:	8fa60210 	lw	a2,528(sp)
9d008ea4:	3c048000 	lui	a0,0x8000
9d008ea8:	5464000c 	bnel	v1,a0,9d008edc <decfloat+0x120>
9d008eac:	02021021 	addu	v0,s0,v0
9d008eb0:	8fa30264 	lw	v1,612(sp)
9d008eb4:	1060030a 	beqz	v1,9d009ae0 <decfloat+0xd24>
9d008eb8:	00002825 	move	a1,zero
9d008ebc:	8e24004c 	lw	a0,76(s1)
9d008ec0:	10800005 	beqz	a0,9d008ed8 <decfloat+0x11c>
9d008ec4:	00001825 	move	v1,zero
9d008ec8:	8e23003c 	lw	v1,60(s1)
9d008ecc:	2463ffff 	addiu	v1,v1,-1
9d008ed0:	ae23003c 	sw	v1,60(s1)
9d008ed4:	00401825 	move	v1,v0
9d008ed8:	02021021 	addu	v0,s0,v0
9d008edc:	0050202b 	sltu	a0,v0,s0
9d008ee0:	0283a021 	addu	s4,s4,v1
9d008ee4:	00408025 	move	s0,v0
9d008ee8:	0094a021 	addu	s4,a0,s4
9d008eec:	8fa40260 	lw	a0,608(sp)
9d008ef0:	8fb10010 	lw	s1,16(sp)
9d008ef4:	0f404d77 	jal	9d0135dc <__floatsidf>
9d008ef8:	afa60210 	sw	a2,528(sp)
9d008efc:	00409025 	move	s2,v0
9d008f00:	00609825 	move	s3,v1
9d008f04:	16200064 	bnez	s1,9d009098 <decfloat+0x2dc>
9d008f08:	8fa60210 	lw	a2,528(sp)
9d008f0c:	00003025 	move	a2,zero
9d008f10:	00003825 	move	a3,zero
9d008f14:	00402025 	move	a0,v0
9d008f18:	00602825 	move	a1,v1
9d008f1c:	0f403be4 	jal	9d00ef90 <__muldf3>
9d008f20:	00000000 	nop
9d008f24:	100002f3 	b	9d009af4 <decfloat+0xd38>
9d008f28:	8fbf024c 	lw	ra,588(sp)
9d008f2c:	8e22003c 	lw	v0,60(s1)
9d008f30:	8e23004c 	lw	v1,76(s1)
9d008f34:	0043182b 	sltu	v1,v0,v1
9d008f38:	10600005 	beqz	v1,9d008f50 <decfloat+0x194>
9d008f3c:	24430001 	addiu	v1,v0,1
9d008f40:	ae23003c 	sw	v1,60(s1)
9d008f44:	90420000 	lbu	v0,0(v0)
9d008f48:	1000ffac 	b	9d008dfc <decfloat+0x40>
9d008f4c:	24130001 	li	s3,1
9d008f50:	0f4049ab 	jal	9d0126ac <__shgetc>
9d008f54:	02202025 	move	a0,s1
9d008f58:	1000ffa8 	b	9d008dfc <decfloat+0x40>
9d008f5c:	24130001 	li	s3,1
9d008f60:	0f4049ab 	jal	9d0126ac <__shgetc>
9d008f64:	02202025 	move	a0,s1
9d008f68:	1000ffb1 	b	9d008e30 <decfloat+0x74>
9d008f6c:	00008025 	move	s0,zero
9d008f70:	8e22003c 	lw	v0,60(s1)
9d008f74:	8e23004c 	lw	v1,76(s1)
9d008f78:	0043182b 	sltu	v1,v0,v1
9d008f7c:	1060000a 	beqz	v1,9d008fa8 <decfloat+0x1ec>
9d008f80:	24430001 	addiu	v1,v0,1
9d008f84:	ae23003c 	sw	v1,60(s1)
9d008f88:	90420000 	lbu	v0,0(v0)
9d008f8c:	2604ffff 	addiu	a0,s0,-1
9d008f90:	0090182b 	sltu	v1,a0,s0
9d008f94:	2694ffff 	addiu	s4,s4,-1
9d008f98:	00808025 	move	s0,a0
9d008f9c:	0074a021 	addu	s4,v1,s4
9d008fa0:	1000ffa4 	b	9d008e34 <decfloat+0x78>
9d008fa4:	24130001 	li	s3,1
9d008fa8:	0f4049ab 	jal	9d0126ac <__shgetc>
9d008fac:	02202025 	move	a0,s1
9d008fb0:	1000fff7 	b	9d008f90 <decfloat+0x1d4>
9d008fb4:	2604ffff 	addiu	a0,s0,-1
9d008fb8:	00008025 	move	s0,zero
9d008fbc:	1000ffa0 	b	9d008e40 <decfloat+0x84>
9d008fc0:	0000a025 	move	s4,zero
9d008fc4:	1445000d 	bne	v0,a1,9d008ffc <decfloat+0x240>
9d008fc8:	27c50001 	addiu	a1,s8,1
9d008fcc:	16400030 	bnez	s2,9d009090 <decfloat+0x2d4>
9d008fd0:	24120001 	li	s2,1
9d008fd4:	03c08025 	move	s0,s8
9d008fd8:	00c0a025 	move	s4,a2
9d008fdc:	8e22003c 	lw	v0,60(s1)
9d008fe0:	8e24004c 	lw	a0,76(s1)
9d008fe4:	0044202b 	sltu	a0,v0,a0
9d008fe8:	10800024 	beqz	a0,9d00907c <decfloat+0x2c0>
9d008fec:	24440001 	addiu	a0,v0,1
9d008ff0:	ae24003c 	sw	a0,60(s1)
9d008ff4:	1000ff98 	b	9d008e58 <decfloat+0x9c>
9d008ff8:	90420000 	lbu	v0,0(v0)
9d008ffc:	00be382b 	sltu	a3,a1,s8
9d009000:	00a0f025 	move	s8,a1
9d009004:	2ac5007d 	slti	a1,s6,125
9d009008:	10a00015 	beqz	a1,9d009060 <decfloat+0x2a4>
9d00900c:	00e63021 	addu	a2,a3,a2
9d009010:	38420030 	xori	v0,v0,0x30
9d009014:	03c2b80b 	movn	s7,s8,v0
9d009018:	12a00007 	beqz	s5,9d009038 <decfloat+0x27c>
9d00901c:	00161080 	sll	v0,s6,0x2
9d009020:	27a30010 	addiu	v1,sp,16
9d009024:	00622821 	addu	a1,v1,v0
9d009028:	8ca50000 	lw	a1,0(a1)
9d00902c:	2407000a 	li	a3,10
9d009030:	70e51802 	mul	v1,a3,a1
9d009034:	00642021 	addu	a0,v1,a0
9d009038:	27a30010 	addiu	v1,sp,16
9d00903c:	00621021 	addu	v0,v1,v0
9d009040:	ac440000 	sw	a0,0(v0)
9d009044:	26b50001 	addiu	s5,s5,1
9d009048:	24020009 	li	v0,9
9d00904c:	16a2ffe3 	bne	s5,v0,9d008fdc <decfloat+0x220>
9d009050:	24130001 	li	s3,1
9d009054:	26d60001 	addiu	s6,s6,1
9d009058:	1000ffe0 	b	9d008fdc <decfloat+0x220>
9d00905c:	0000a825 	move	s5,zero
9d009060:	24040030 	li	a0,48
9d009064:	1044ffdd 	beq	v0,a0,9d008fdc <decfloat+0x220>
9d009068:	8fa20200 	lw	v0,512(sp)
9d00906c:	2417045c 	li	s7,1116
9d009070:	34420001 	ori	v0,v0,0x1
9d009074:	1000ffd9 	b	9d008fdc <decfloat+0x220>
9d009078:	afa20200 	sw	v0,512(sp)
9d00907c:	02202025 	move	a0,s1
9d009080:	0f4049ab 	jal	9d0126ac <__shgetc>
9d009084:	afa60210 	sw	a2,528(sp)
9d009088:	1000ff73 	b	9d008e58 <decfloat+0x9c>
9d00908c:	8fa60210 	lw	a2,528(sp)
9d009090:	1000ff7a 	b	9d008e7c <decfloat+0xc0>
9d009094:	2402002e 	li	v0,46
9d009098:	17d00016 	bne	s8,s0,9d0090f4 <decfloat+0x338>
9d00909c:	8fa2025c 	lw	v0,604(sp)
9d0090a0:	14d40015 	bne	a2,s4,9d0090f8 <decfloat+0x33c>
9d0090a4:	8fa3025c 	lw	v1,604(sp)
9d0090a8:	1e800014 	bgtz	s4,9d0090fc <decfloat+0x340>
9d0090ac:	000217c2 	srl	v0,v0,0x1f
9d0090b0:	16800003 	bnez	s4,9d0090c0 <decfloat+0x304>
9d0090b4:	2e02000a 	sltiu	v0,s0,10
9d0090b8:	1040000f 	beqz	v0,9d0090f8 <decfloat+0x33c>
9d0090bc:	8fa2025c 	lw	v0,604(sp)
9d0090c0:	8fa20258 	lw	v0,600(sp)
9d0090c4:	2842001f 	slti	v0,v0,31
9d0090c8:	10400005 	beqz	v0,9d0090e0 <decfloat+0x324>
9d0090cc:	00000000 	nop
9d0090d0:	8fa20258 	lw	v0,600(sp)
9d0090d4:	00511006 	srlv	v0,s1,v0
9d0090d8:	54400006 	bnezl	v0,9d0090f4 <decfloat+0x338>
9d0090dc:	8fa2025c 	lw	v0,604(sp)
9d0090e0:	0f40505b 	jal	9d01416c <__floatunsidf>
9d0090e4:	02202025 	move	a0,s1
9d0090e8:	02403025 	move	a2,s2
9d0090ec:	1000ff89 	b	9d008f14 <decfloat+0x158>
9d0090f0:	02603825 	move	a3,s3
9d0090f4:	8fa3025c 	lw	v1,604(sp)
9d0090f8:	000217c2 	srl	v0,v0,0x1f
9d0090fc:	00431021 	addu	v0,v0,v1
9d009100:	00021043 	sra	v0,v0,0x1
9d009104:	00021023 	negu	v0,v0
9d009108:	00021fc3 	sra	v1,v0,0x1f
9d00910c:	0074202a 	slt	a0,v1,s4
9d009110:	54800006 	bnezl	a0,9d00912c <decfloat+0x370>
9d009114:	3c109d00 	lui	s0,0x9d00
9d009118:	1683000f 	bne	s4,v1,9d009158 <decfloat+0x39c>
9d00911c:	0050102b 	sltu	v0,v0,s0
9d009120:	5040000e 	beqzl	v0,9d00915c <decfloat+0x3a0>
9d009124:	8fa2025c 	lw	v0,604(sp)
9d009128:	3c109d00 	lui	s0,0x9d00
9d00912c:	8e0675b8 	lw	a2,30136(s0)
9d009130:	8e0775bc 	lw	a3,30140(s0)
9d009134:	3c02a000 	lui	v0,0xa000
9d009138:	24030022 	li	v1,34
9d00913c:	ac4353b4 	sw	v1,21428(v0)
9d009140:	02402025 	move	a0,s2
9d009144:	0f403be4 	jal	9d00ef90 <__muldf3>
9d009148:	02602825 	move	a1,s3
9d00914c:	8e0675b8 	lw	a2,30136(s0)
9d009150:	1000ff70 	b	9d008f14 <decfloat+0x158>
9d009154:	8e0775bc 	lw	a3,30140(s0)
9d009158:	8fa2025c 	lw	v0,604(sp)
9d00915c:	2442ff96 	addiu	v0,v0,-106
9d009160:	00021fc3 	sra	v1,v0,0x1f
9d009164:	0283202a 	slt	a0,s4,v1
9d009168:	54800006 	bnezl	a0,9d009184 <decfloat+0x3c8>
9d00916c:	3c109d00 	lui	s0,0x9d00
9d009170:	1474000f 	bne	v1,s4,9d0091b0 <decfloat+0x3f4>
9d009174:	0202102b 	sltu	v0,s0,v0
9d009178:	1040000d 	beqz	v0,9d0091b0 <decfloat+0x3f4>
9d00917c:	00000000 	nop
9d009180:	3c109d00 	lui	s0,0x9d00
9d009184:	8e0675c0 	lw	a2,30144(s0)
9d009188:	8e0775c4 	lw	a3,30148(s0)
9d00918c:	3c02a000 	lui	v0,0xa000
9d009190:	24030022 	li	v1,34
9d009194:	ac4353b4 	sw	v1,21428(v0)
9d009198:	02402025 	move	a0,s2
9d00919c:	0f403be4 	jal	9d00ef90 <__muldf3>
9d0091a0:	02602825 	move	a1,s3
9d0091a4:	8e0675c0 	lw	a2,30144(s0)
9d0091a8:	1000ff5a 	b	9d008f14 <decfloat+0x158>
9d0091ac:	8e0775c4 	lw	a3,30148(s0)
9d0091b0:	12a00008 	beqz	s5,9d0091d4 <decfloat+0x418>
9d0091b4:	00161080 	sll	v0,s6,0x2
9d0091b8:	27a30010 	addiu	v1,sp,16
9d0091bc:	00621021 	addu	v0,v1,v0
9d0091c0:	2404000a 	li	a0,10
9d0091c4:	2aa30009 	slti	v1,s5,9
9d0091c8:	54600027 	bnezl	v1,9d009268 <decfloat+0x4ac>
9d0091cc:	8c430000 	lw	v1,0(v0)
9d0091d0:	26d60001 	addiu	s6,s6,1
9d0091d4:	2ae20009 	slti	v0,s7,9
9d0091d8:	10400047 	beqz	v0,9d0092f8 <decfloat+0x53c>
9d0091dc:	0200a025 	move	s4,s0
9d0091e0:	0217b82a 	slt	s7,s0,s7
9d0091e4:	16e00044 	bnez	s7,9d0092f8 <decfloat+0x53c>
9d0091e8:	2a020012 	slti	v0,s0,18
9d0091ec:	10400042 	beqz	v0,9d0092f8 <decfloat+0x53c>
9d0091f0:	24020009 	li	v0,9
9d0091f4:	1202ffba 	beq	s0,v0,9d0090e0 <decfloat+0x324>
9d0091f8:	8fb10010 	lw	s1,16(sp)
9d0091fc:	2a020009 	slti	v0,s0,9
9d009200:	5040001d 	beqzl	v0,9d009278 <decfloat+0x4bc>
9d009204:	2602fff7 	addiu	v0,s0,-9
9d009208:	0f40505b 	jal	9d01416c <__floatunsidf>
9d00920c:	02202025 	move	a0,s1
9d009210:	00602825 	move	a1,v1
9d009214:	02403025 	move	a2,s2
9d009218:	02603825 	move	a3,s3
9d00921c:	0f403be4 	jal	9d00ef90 <__muldf3>
9d009220:	00402025 	move	a0,v0
9d009224:	00409025 	move	s2,v0
9d009228:	24020008 	li	v0,8
9d00922c:	00508023 	subu	s0,v0,s0
9d009230:	3c029d01 	lui	v0,0x9d01
9d009234:	24424604 	addiu	v0,v0,17924
9d009238:	00108080 	sll	s0,s0,0x2
9d00923c:	02028021 	addu	s0,s0,v0
9d009240:	8e040000 	lw	a0,0(s0)
9d009244:	0f404d77 	jal	9d0135dc <__floatsidf>
9d009248:	00609825 	move	s3,v1
9d00924c:	00403025 	move	a2,v0
9d009250:	00603825 	move	a3,v1
9d009254:	02402025 	move	a0,s2
9d009258:	0f4032c7 	jal	9d00cb1c <__divdf3>
9d00925c:	02602825 	move	a1,s3
9d009260:	10000224 	b	9d009af4 <decfloat+0xd38>
9d009264:	8fbf024c 	lw	ra,588(sp)
9d009268:	26b50001 	addiu	s5,s5,1
9d00926c:	70641802 	mul	v1,v1,a0
9d009270:	1000ffd4 	b	9d0091c4 <decfloat+0x408>
9d009274:	ac430000 	sw	v1,0(v0)
9d009278:	00021880 	sll	v1,v0,0x2
9d00927c:	00431023 	subu	v0,v0,v1
9d009280:	8fa30258 	lw	v1,600(sp)
9d009284:	00431021 	addu	v0,v0,v1
9d009288:	2843001f 	slti	v1,v0,31
9d00928c:	50600005 	beqzl	v1,9d0092a4 <decfloat+0x4e8>
9d009290:	2610fff6 	addiu	s0,s0,-10
9d009294:	00511006 	srlv	v0,s1,v0
9d009298:	54400018 	bnezl	v0,9d0092fc <decfloat+0x540>
9d00929c:	26c3ffff 	addiu	v1,s6,-1
9d0092a0:	2610fff6 	addiu	s0,s0,-10
9d0092a4:	3c029d01 	lui	v0,0x9d01
9d0092a8:	24424604 	addiu	v0,v0,17924
9d0092ac:	00108080 	sll	s0,s0,0x2
9d0092b0:	02028021 	addu	s0,s0,v0
9d0092b4:	0f404d77 	jal	9d0135dc <__floatsidf>
9d0092b8:	8e040000 	lw	a0,0(s0)
9d0092bc:	02202025 	move	a0,s1
9d0092c0:	0040a025 	move	s4,v0
9d0092c4:	0f40505b 	jal	9d01416c <__floatunsidf>
9d0092c8:	0060a825 	move	s5,v1
9d0092cc:	00402025 	move	a0,v0
9d0092d0:	02403025 	move	a2,s2
9d0092d4:	02603825 	move	a3,s3
9d0092d8:	0f403be4 	jal	9d00ef90 <__muldf3>
9d0092dc:	00602825 	move	a1,v1
9d0092e0:	00403025 	move	a2,v0
9d0092e4:	00603825 	move	a3,v1
9d0092e8:	02802025 	move	a0,s4
9d0092ec:	1000ff0b 	b	9d008f1c <decfloat+0x160>
9d0092f0:	02a02825 	move	a1,s5
9d0092f4:	0060b025 	move	s6,v1
9d0092f8:	26c3ffff 	addiu	v1,s6,-1
9d0092fc:	00031080 	sll	v0,v1,0x2
9d009300:	27a40010 	addiu	a0,sp,16
9d009304:	00821021 	addu	v0,a0,v0
9d009308:	8c420000 	lw	v0,0(v0)
9d00930c:	1040fff9 	beqz	v0,9d0092f4 <decfloat+0x538>
9d009310:	24090009 	li	t1,9
9d009314:	0209001a 	div	zero,s0,t1
9d009318:	012001f4 	teq	t1,zero,0x7
9d00931c:	00004810 	mfhi	t1
9d009320:	1120001c 	beqz	t1,9d009394 <decfloat+0x5d8>
9d009324:	3c0c0089 	lui	t4,0x89
9d009328:	06020001 	bltzl	s0,9d009330 <decfloat+0x574>
9d00932c:	25290009 	addiu	t1,t1,9
9d009330:	24020008 	li	v0,8
9d009334:	00491023 	subu	v0,v0,t1
9d009338:	3c039d01 	lui	v1,0x9d01
9d00933c:	24634604 	addiu	v1,v1,17924
9d009340:	00021080 	sll	v0,v0,0x2
9d009344:	00431021 	addu	v0,v0,v1
9d009348:	8c460000 	lw	a2,0(v0)
9d00934c:	3c073b9a 	lui	a3,0x3b9a
9d009350:	27a50010 	addiu	a1,sp,16
9d009354:	00001825 	move	v1,zero
9d009358:	00005025 	move	t2,zero
9d00935c:	00002025 	move	a0,zero
9d009360:	34e7ca00 	ori	a3,a3,0xca00
9d009364:	54960052 	bnel	a0,s6,9d0094b0 <decfloat+0x6f4>
9d009368:	8ca20000 	lw	v0,0(a1)
9d00936c:	10600005 	beqz	v1,9d009384 <decfloat+0x5c8>
9d009370:	00161080 	sll	v0,s6,0x2
9d009374:	27a40010 	addiu	a0,sp,16
9d009378:	00821021 	addu	v0,a0,v0
9d00937c:	ac430000 	sw	v1,0(v0)
9d009380:	26d60001 	addiu	s6,s6,1
9d009384:	0289a023 	subu	s4,s4,t1
9d009388:	26940009 	addiu	s4,s4,9
9d00938c:	01404825 	move	t1,t2
9d009390:	3c0c0089 	lui	t4,0x89
9d009394:	3c103b9a 	lui	s0,0x3b9a
9d009398:	3c0d3b9a 	lui	t5,0x3b9a
9d00939c:	0000b825 	move	s7,zero
9d0093a0:	240e0012 	li	t6,18
9d0093a4:	258c705f 	addiu	t4,t4,28767
9d0093a8:	3610ca00 	ori	s0,s0,0xca00
9d0093ac:	00008825 	move	s1,zero
9d0093b0:	35adca01 	ori	t5,t5,0xca01
9d0093b4:	2a820012 	slti	v0,s4,18
9d0093b8:	14400050 	bnez	v0,9d0094fc <decfloat+0x740>
9d0093bc:	26d5ffff 	addiu	s5,s6,-1
9d0093c0:	168e0007 	bne	s4,t6,9d0093e0 <decfloat+0x624>
9d0093c4:	00091080 	sll	v0,t1,0x2
9d0093c8:	27a30010 	addiu	v1,sp,16
9d0093cc:	00621021 	addu	v0,v1,v0
9d0093d0:	8c420000 	lw	v0,0(v0)
9d0093d4:	004c102b 	sltu	v0,v0,t4
9d0093d8:	14400049 	bnez	v0,9d009500 <decfloat+0x744>
9d0093dc:	32b5007f 	andi	s5,s5,0x7f
9d0093e0:	3c040089 	lui	a0,0x89
9d0093e4:	3c050f2f 	lui	a1,0xf2f
9d0093e8:	3c063b9a 	lui	a2,0x3b9a
9d0093ec:	240a0012 	li	t2,18
9d0093f0:	2484705f 	addiu	a0,a0,28767
9d0093f4:	24a50a00 	addiu	a1,a1,2560
9d0093f8:	24070001 	li	a3,1
9d0093fc:	240b0009 	li	t3,9
9d009400:	34c6ca00 	ori	a2,a2,0xca00
9d009404:	11360012 	beq	t1,s6,9d009450 <decfloat+0x694>
9d009408:	27a30010 	addiu	v1,sp,16
9d00940c:	00091080 	sll	v0,t1,0x2
9d009410:	00621021 	addu	v0,v1,v0
9d009414:	8c420000 	lw	v0,0(v0)
9d009418:	0044182b 	sltu	v1,v0,a0
9d00941c:	1460000c 	bnez	v1,9d009450 <decfloat+0x694>
9d009420:	00000000 	nop
9d009424:	1444000c 	bne	v0,a0,9d009458 <decfloat+0x69c>
9d009428:	25220001 	addiu	v0,t1,1
9d00942c:	3042007f 	andi	v0,v0,0x7f
9d009430:	12c20007 	beq	s6,v0,9d009450 <decfloat+0x694>
9d009434:	00021080 	sll	v0,v0,0x2
9d009438:	27a30010 	addiu	v1,sp,16
9d00943c:	00621021 	addu	v0,v1,v0
9d009440:	8c420000 	lw	v0,0(v0)
9d009444:	0045102b 	sltu	v0,v0,a1
9d009448:	10400004 	beqz	v0,9d00945c <decfloat+0x6a0>
9d00944c:	2a83001c 	slti	v1,s4,28
9d009450:	128a0093 	beq	s4,t2,9d0096a0 <decfloat+0x8e4>
9d009454:	00000000 	nop
9d009458:	2a83001c 	slti	v1,s4,28
9d00945c:	01601025 	move	v0,t3
9d009460:	00e3100b 	movn	v0,a3,v1
9d009464:	0047c004 	sllv	t8,a3,v0
9d009468:	00401825 	move	v1,v0
9d00946c:	0046c807 	srav	t9,a2,v0
9d009470:	2718ffff 	addiu	t8,t8,-1
9d009474:	01201025 	move	v0,t1
9d009478:	00006025 	move	t4,zero
9d00947c:	5456006d 	bnel	v0,s6,9d009634 <decfloat+0x878>
9d009480:	00027080 	sll	t6,v0,0x2
9d009484:	11800008 	beqz	t4,9d0094a8 <decfloat+0x6ec>
9d009488:	26c20001 	addiu	v0,s6,1
9d00948c:	3042007f 	andi	v0,v0,0x7f
9d009490:	1049007a 	beq	v0,t1,9d00967c <decfloat+0x8c0>
9d009494:	00164080 	sll	t0,s6,0x2
9d009498:	27ad0010 	addiu	t5,sp,16
9d00949c:	01a84021 	addu	t0,t5,t0
9d0094a0:	ad0c0000 	sw	t4,0(t0)
9d0094a4:	0040b025 	move	s6,v0
9d0094a8:	1000ffd6 	b	9d009404 <decfloat+0x648>
9d0094ac:	02e3b821 	addu	s7,s7,v1
9d0094b0:	248b0001 	addiu	t3,a0,1
9d0094b4:	0046001b 	divu	zero,v0,a2
9d0094b8:	00c001f4 	teq	a2,zero,0x7
9d0094bc:	00001012 	mflo	v0
9d0094c0:	00431021 	addu	v0,v0,v1
9d0094c4:	148a0005 	bne	a0,t2,9d0094dc <decfloat+0x720>
9d0094c8:	00006010 	mfhi	t4
9d0094cc:	14400003 	bnez	v0,9d0094dc <decfloat+0x720>
9d0094d0:	00000000 	nop
9d0094d4:	316a007f 	andi	t2,t3,0x7f
9d0094d8:	2694fff7 	addiu	s4,s4,-9
9d0094dc:	00e6001a 	div	zero,a3,a2
9d0094e0:	00c001f4 	teq	a2,zero,0x7
9d0094e4:	aca20000 	sw	v0,0(a1)
9d0094e8:	01602025 	move	a0,t3
9d0094ec:	24a50004 	addiu	a1,a1,4
9d0094f0:	00001012 	mflo	v0
9d0094f4:	1000ff9b 	b	9d009364 <decfloat+0x5a8>
9d0094f8:	704c1802 	mul	v1,v0,t4
9d0094fc:	32b5007f 	andi	s5,s5,0x7f
9d009500:	00005025 	move	t2,zero
9d009504:	00155880 	sll	t3,s5,0x2
9d009508:	27a20010 	addiu	v0,sp,16
9d00950c:	004b1021 	addu	v0,v0,t3
9d009510:	8c5e0000 	lw	s8,0(v0)
9d009514:	001e10c2 	srl	v0,s8,0x3
9d009518:	001ef740 	sll	s8,s8,0x1d
9d00951c:	03ca7821 	addu	t7,s8,t2
9d009520:	01fef02b 	sltu	s8,t7,s8
9d009524:	03c2f021 	addu	s8,s8,v0
9d009528:	17c00003 	bnez	s8,9d009538 <decfloat+0x77c>
9d00952c:	01ed102b 	sltu	v0,t7,t5
9d009530:	14400024 	bnez	v0,9d0095c4 <decfloat+0x808>
9d009534:	01e01025 	move	v0,t7
9d009538:	01e02025 	move	a0,t7
9d00953c:	02003025 	move	a2,s0
9d009540:	02203825 	move	a3,s1
9d009544:	03c02825 	move	a1,s8
9d009548:	afab0220 	sw	t3,544(sp)
9d00954c:	afa90218 	sw	t1,536(sp)
9d009550:	0f403934 	jal	9d00e4d0 <__udivdi3>
9d009554:	afaf0214 	sw	t7,532(sp)
9d009558:	8faf0214 	lw	t7,532(sp)
9d00955c:	02003025 	move	a2,s0
9d009560:	02203825 	move	a3,s1
9d009564:	01e02025 	move	a0,t7
9d009568:	03c02825 	move	a1,s8
9d00956c:	0f403a23 	jal	9d00e88c <__umoddi3>
9d009570:	afa20210 	sw	v0,528(sp)
9d009574:	3c030089 	lui	v1,0x89
9d009578:	8faa0210 	lw	t2,528(sp)
9d00957c:	8fa90218 	lw	t1,536(sp)
9d009580:	8fab0220 	lw	t3,544(sp)
9d009584:	346c705f 	ori	t4,v1,0x705f
9d009588:	3c033b9a 	lui	v1,0x3b9a
9d00958c:	240e0012 	li	t6,18
9d009590:	346dca01 	ori	t5,v1,0xca01
9d009594:	27a30010 	addiu	v1,sp,16
9d009598:	006b5821 	addu	t3,v1,t3
9d00959c:	26c3ffff 	addiu	v1,s6,-1
9d0095a0:	3063007f 	andi	v1,v1,0x7f
9d0095a4:	14750009 	bne	v1,s5,9d0095cc <decfloat+0x810>
9d0095a8:	ad620000 	sw	v0,0(t3)
9d0095ac:	52a90009 	beql	s5,t1,9d0095d4 <decfloat+0x818>
9d0095b0:	01201825 	move	v1,t1
9d0095b4:	02a2b00a 	movz	s6,s5,v0
9d0095b8:	26b5ffff 	addiu	s5,s5,-1
9d0095bc:	1000ffd1 	b	9d009504 <decfloat+0x748>
9d0095c0:	32b5007f 	andi	s5,s5,0x7f
9d0095c4:	1000fff3 	b	9d009594 <decfloat+0x7d8>
9d0095c8:	00005025 	move	t2,zero
9d0095cc:	56a9fffb 	bnel	s5,t1,9d0095bc <decfloat+0x800>
9d0095d0:	26b5ffff 	addiu	s5,s5,-1
9d0095d4:	5140ff77 	beqzl	t2,9d0093b4 <decfloat+0x5f8>
9d0095d8:	26f7ffe3 	addiu	s7,s7,-29
9d0095dc:	2529ffff 	addiu	t1,t1,-1
9d0095e0:	3129007f 	andi	t1,t1,0x7f
9d0095e4:	16c9000c 	bne	s6,t1,9d009618 <decfloat+0x85c>
9d0095e8:	2462ffff 	addiu	v0,v1,-1
9d0095ec:	3042007f 	andi	v0,v0,0x7f
9d0095f0:	27a40010 	addiu	a0,sp,16
9d0095f4:	00021080 	sll	v0,v0,0x2
9d0095f8:	00032880 	sll	a1,v1,0x2
9d0095fc:	00821021 	addu	v0,a0,v0
9d009600:	00852821 	addu	a1,a0,a1
9d009604:	8ca50000 	lw	a1,0(a1)
9d009608:	8c440000 	lw	a0,0(v0)
9d00960c:	0060b025 	move	s6,v1
9d009610:	00852025 	or	a0,a0,a1
9d009614:	ac440000 	sw	a0,0(v0)
9d009618:	00091080 	sll	v0,t1,0x2
9d00961c:	27a30010 	addiu	v1,sp,16
9d009620:	00621021 	addu	v0,v1,v0
9d009624:	26940009 	addiu	s4,s4,9
9d009628:	ac4a0000 	sw	t2,0(v0)
9d00962c:	1000ff61 	b	9d0093b4 <decfloat+0x5f8>
9d009630:	26f7ffe3 	addiu	s7,s7,-29
9d009634:	27a80010 	addiu	t0,sp,16
9d009638:	010e6821 	addu	t5,t0,t6
9d00963c:	8dad0000 	lw	t5,0(t5)
9d009640:	006d7806 	srlv	t7,t5,v1
9d009644:	01ec6021 	addu	t4,t7,t4
9d009648:	14490005 	bne	v0,t1,9d009660 <decfloat+0x8a4>
9d00964c:	244f0001 	addiu	t7,v0,1
9d009650:	55800004 	bnezl	t4,9d009664 <decfloat+0x8a8>
9d009654:	27a20010 	addiu	v0,sp,16
9d009658:	31e9007f 	andi	t1,t7,0x7f
9d00965c:	2694fff7 	addiu	s4,s4,-9
9d009660:	27a20010 	addiu	v0,sp,16
9d009664:	004e7021 	addu	t6,v0,t6
9d009668:	adcc0000 	sw	t4,0(t6)
9d00966c:	030d6024 	and	t4,t8,t5
9d009670:	71996002 	mul	t4,t4,t9
9d009674:	1000ff81 	b	9d00947c <decfloat+0x6c0>
9d009678:	31e2007f 	andi	v0,t7,0x7f
9d00967c:	26c2ffff 	addiu	v0,s6,-1
9d009680:	3042007f 	andi	v0,v0,0x7f
9d009684:	00021080 	sll	v0,v0,0x2
9d009688:	27a80010 	addiu	t0,sp,16
9d00968c:	01021021 	addu	v0,t0,v0
9d009690:	8c4c0000 	lw	t4,0(v0)
9d009694:	358c0001 	ori	t4,t4,0x1
9d009698:	1000ff83 	b	9d0094a8 <decfloat+0x6ec>
9d00969c:	ac4c0000 	sw	t4,0(v0)
9d0096a0:	15360007 	bne	t1,s6,9d0096c0 <decfloat+0x904>
9d0096a4:	25340001 	addiu	s4,t1,1
9d0096a8:	3296007f 	andi	s6,s4,0x7f
9d0096ac:	26c2ffff 	addiu	v0,s6,-1
9d0096b0:	00021080 	sll	v0,v0,0x2
9d0096b4:	27a30010 	addiu	v1,sp,16
9d0096b8:	00621021 	addu	v0,v1,v0
9d0096bc:	ac400000 	sw	zero,0(v0)
9d0096c0:	00091080 	sll	v0,t1,0x2
9d0096c4:	27a30010 	addiu	v1,sp,16
9d0096c8:	00621021 	addu	v0,v1,v0
9d0096cc:	8c440000 	lw	a0,0(v0)
9d0096d0:	afa90210 	sw	t1,528(sp)
9d0096d4:	0f40505b 	jal	9d01416c <__floatunsidf>
9d0096d8:	3294007f 	andi	s4,s4,0x7f
9d0096dc:	00402025 	move	a0,v0
9d0096e0:	00602825 	move	a1,v1
9d0096e4:	00003025 	move	a2,zero
9d0096e8:	0f40372a 	jal	9d00dca8 <__adddf3>
9d0096ec:	00003825 	move	a3,zero
9d0096f0:	00402025 	move	a0,v0
9d0096f4:	00602825 	move	a1,v1
9d0096f8:	16d40008 	bne	s6,s4,9d00971c <decfloat+0x960>
9d0096fc:	8fa90210 	lw	t1,528(sp)
9d009700:	26c80001 	addiu	t0,s6,1
9d009704:	3116007f 	andi	s6,t0,0x7f
9d009708:	26c3ffff 	addiu	v1,s6,-1
9d00970c:	00031880 	sll	v1,v1,0x2
9d009710:	27a20010 	addiu	v0,sp,16
9d009714:	00431821 	addu	v1,v0,v1
9d009718:	ac600000 	sw	zero,0(v1)
9d00971c:	3c029d00 	lui	v0,0x9d00
9d009720:	8c4675c8 	lw	a2,30152(v0)
9d009724:	8c4775cc 	lw	a3,30156(v0)
9d009728:	afa90210 	sw	t1,528(sp)
9d00972c:	0f403be4 	jal	9d00ef90 <__muldf3>
9d009730:	0014a080 	sll	s4,s4,0x2
9d009734:	00408025 	move	s0,v0
9d009738:	27a20010 	addiu	v0,sp,16
9d00973c:	0054a021 	addu	s4,v0,s4
9d009740:	8e840000 	lw	a0,0(s4)
9d009744:	0f40505b 	jal	9d01416c <__floatunsidf>
9d009748:	00608825 	move	s1,v1
9d00974c:	00402025 	move	a0,v0
9d009750:	02003025 	move	a2,s0
9d009754:	02203825 	move	a3,s1
9d009758:	0f40372a 	jal	9d00dca8 <__adddf3>
9d00975c:	00602825 	move	a1,v1
9d009760:	00403025 	move	a2,v0
9d009764:	00603825 	move	a3,v1
9d009768:	02402025 	move	a0,s2
9d00976c:	0f403be4 	jal	9d00ef90 <__muldf3>
9d009770:	02602825 	move	a1,s3
9d009774:	0060a825 	move	s5,v1
9d009778:	8fa3025c 	lw	v1,604(sp)
9d00977c:	0040a025 	move	s4,v0
9d009780:	26e20035 	addiu	v0,s7,53
9d009784:	00431023 	subu	v0,v0,v1
9d009788:	8fa30258 	lw	v1,600(sp)
9d00978c:	afa20214 	sw	v0,532(sp)
9d009790:	0043102a 	slt	v0,v0,v1
9d009794:	104000b3 	beqz	v0,9d009a64 <decfloat+0xca8>
9d009798:	8fa90210 	lw	t1,528(sp)
9d00979c:	8fa20214 	lw	v0,532(sp)
9d0097a0:	044200b3 	bltzl	v0,9d009a70 <decfloat+0xcb4>
9d0097a4:	24020001 	li	v0,1
9d0097a8:	0040f025 	move	s8,v0
9d0097ac:	24020001 	li	v0,1
9d0097b0:	afa20210 	sw	v0,528(sp)
9d0097b4:	2bc20035 	slti	v0,s8,53
9d0097b8:	afa00218 	sw	zero,536(sp)
9d0097bc:	afa0021c 	sw	zero,540(sp)
9d0097c0:	00008025 	move	s0,zero
9d0097c4:	1040002a 	beqz	v0,9d009870 <decfloat+0xab4>
9d0097c8:	00008825 	move	s1,zero
9d0097cc:	3c029d00 	lui	v0,0x9d00
9d0097d0:	8c5075d0 	lw	s0,30160(v0)
9d0097d4:	8c5175d4 	lw	s1,30164(v0)
9d0097d8:	24060069 	li	a2,105
9d0097dc:	02002025 	move	a0,s0
9d0097e0:	02202825 	move	a1,s1
9d0097e4:	00de3023 	subu	a2,a2,s8
9d0097e8:	0f40483d 	jal	9d0120f4 <scalbn>
9d0097ec:	afa90220 	sw	t1,544(sp)
9d0097f0:	00402025 	move	a0,v0
9d0097f4:	02a03825 	move	a3,s5
9d0097f8:	02803025 	move	a2,s4
9d0097fc:	0f4051aa 	jal	9d0146a8 <copysignl>
9d009800:	00602825 	move	a1,v1
9d009804:	24060035 	li	a2,53
9d009808:	02002025 	move	a0,s0
9d00980c:	02202825 	move	a1,s1
9d009810:	00de3023 	subu	a2,a2,s8
9d009814:	afa20218 	sw	v0,536(sp)
9d009818:	0f40483d 	jal	9d0120f4 <scalbn>
9d00981c:	afa3021c 	sw	v1,540(sp)
9d009820:	00403025 	move	a2,v0
9d009824:	02802025 	move	a0,s4
9d009828:	02a02825 	move	a1,s5
9d00982c:	0f403d5a 	jal	9d00f568 <dpfmod>
9d009830:	00603825 	move	a3,v1
9d009834:	00403025 	move	a2,v0
9d009838:	02802025 	move	a0,s4
9d00983c:	02a02825 	move	a1,s5
9d009840:	00603825 	move	a3,v1
9d009844:	00408025 	move	s0,v0
9d009848:	0f403728 	jal	9d00dca0 <__subdf3>
9d00984c:	00608825 	move	s1,v1
9d009850:	8fa40218 	lw	a0,536(sp)
9d009854:	8fa5021c 	lw	a1,540(sp)
9d009858:	00403025 	move	a2,v0
9d00985c:	0f40372a 	jal	9d00dca8 <__adddf3>
9d009860:	00603825 	move	a3,v1
9d009864:	8fa90220 	lw	t1,544(sp)
9d009868:	0040a025 	move	s4,v0
9d00986c:	0060a825 	move	s5,v1
9d009870:	25220002 	addiu	v0,t1,2
9d009874:	3042007f 	andi	v0,v0,0x7f
9d009878:	10560034 	beq	v0,s6,9d00994c <decfloat+0xb90>
9d00987c:	27a30010 	addiu	v1,sp,16
9d009880:	00021080 	sll	v0,v0,0x2
9d009884:	00621021 	addu	v0,v1,v0
9d009888:	8c430000 	lw	v1,0(v0)
9d00988c:	3c021dcd 	lui	v0,0x1dcd
9d009890:	24426500 	addiu	v0,v0,25856
9d009894:	0062202b 	sltu	a0,v1,v0
9d009898:	10800078 	beqz	a0,9d009a7c <decfloat+0xcc0>
9d00989c:	00000000 	nop
9d0098a0:	14600004 	bnez	v1,9d0098b4 <decfloat+0xaf8>
9d0098a4:	25290003 	addiu	t1,t1,3
9d0098a8:	3129007f 	andi	t1,t1,0x7f
9d0098ac:	1136000f 	beq	t1,s6,9d0098ec <decfloat+0xb30>
9d0098b0:	24020035 	li	v0,53
9d0098b4:	3c029d00 	lui	v0,0x9d00
9d0098b8:	8c4675d8 	lw	a2,30168(v0)
9d0098bc:	8c4775dc 	lw	a3,30172(v0)
9d0098c0:	02402025 	move	a0,s2
9d0098c4:	0f403be4 	jal	9d00ef90 <__muldf3>
9d0098c8:	02602825 	move	a1,s3
9d0098cc:	00403025 	move	a2,v0
9d0098d0:	02002025 	move	a0,s0
9d0098d4:	02202825 	move	a1,s1
9d0098d8:	0f40372a 	jal	9d00dca8 <__adddf3>
9d0098dc:	00603825 	move	a3,v1
9d0098e0:	00408025 	move	s0,v0
9d0098e4:	00608825 	move	s1,v1
9d0098e8:	24020035 	li	v0,53
9d0098ec:	005e1023 	subu	v0,v0,s8
9d0098f0:	28420002 	slti	v0,v0,2
9d0098f4:	14400015 	bnez	v0,9d00994c <decfloat+0xb90>
9d0098f8:	3c029d00 	lui	v0,0x9d00
9d0098fc:	8c5275d0 	lw	s2,30160(v0)
9d009900:	8c5375d4 	lw	s3,30164(v0)
9d009904:	02002025 	move	a0,s0
9d009908:	02403025 	move	a2,s2
9d00990c:	02603825 	move	a3,s3
9d009910:	0f403d5a 	jal	9d00f568 <dpfmod>
9d009914:	02202825 	move	a1,s1
9d009918:	00402025 	move	a0,v0
9d00991c:	00003025 	move	a2,zero
9d009920:	00003825 	move	a3,zero
9d009924:	0f404581 	jal	9d011604 <__eqdf2>
9d009928:	00602825 	move	a1,v1
9d00992c:	14400007 	bnez	v0,9d00994c <decfloat+0xb90>
9d009930:	02002025 	move	a0,s0
9d009934:	02202825 	move	a1,s1
9d009938:	02403025 	move	a2,s2
9d00993c:	0f40372a 	jal	9d00dca8 <__adddf3>
9d009940:	02603825 	move	a3,s3
9d009944:	00408025 	move	s0,v0
9d009948:	00608825 	move	s1,v1
9d00994c:	8fa2025c 	lw	v0,604(sp)
9d009950:	8fa30258 	lw	v1,600(sp)
9d009954:	02003025 	move	a2,s0
9d009958:	00021023 	negu	v0,v0
9d00995c:	02203825 	move	a3,s1
9d009960:	02802025 	move	a0,s4
9d009964:	02a02825 	move	a1,s5
9d009968:	0f40372a 	jal	9d00dca8 <__adddf3>
9d00996c:	0043b023 	subu	s6,v0,v1
9d009970:	8fa60218 	lw	a2,536(sp)
9d009974:	8fa7021c 	lw	a3,540(sp)
9d009978:	00402025 	move	a0,v0
9d00997c:	0f403728 	jal	9d00dca0 <__subdf3>
9d009980:	00602825 	move	a1,v1
9d009984:	00409025 	move	s2,v0
9d009988:	26e20035 	addiu	v0,s7,53
9d00998c:	00609825 	move	s3,v1
9d009990:	7c42f000 	ext	v0,v0,0x0,0x1f
9d009994:	26c3ffff 	addiu	v1,s6,-1
9d009998:	0043102a 	slt	v0,v0,v1
9d00999c:	1440002c 	bnez	v0,9d009a50 <decfloat+0xc94>
9d0099a0:	02e03025 	move	a2,s7
9d0099a4:	02402025 	move	a0,s2
9d0099a8:	0f405290 	jal	9d014a40 <fabsl>
9d0099ac:	02602825 	move	a1,s3
9d0099b0:	3c049d00 	lui	a0,0x9d00
9d0099b4:	8c8675f0 	lw	a2,30192(a0)
9d0099b8:	8c8775f4 	lw	a3,30196(a0)
9d0099bc:	00602825 	move	a1,v1
9d0099c0:	0f404581 	jal	9d011604 <__eqdf2>
9d0099c4:	00402025 	move	a0,v0
9d0099c8:	0440000f 	bltz	v0,9d009a08 <decfloat+0xc4c>
9d0099cc:	8fa20210 	lw	v0,528(sp)
9d0099d0:	10400004 	beqz	v0,9d0099e4 <decfloat+0xc28>
9d0099d4:	8fa20214 	lw	v0,532(sp)
9d0099d8:	005ef026 	xor	s8,v0,s8
9d0099dc:	001e102b 	sltu	v0,zero,s8
9d0099e0:	afa20210 	sw	v0,528(sp)
9d0099e4:	3c029d00 	lui	v0,0x9d00
9d0099e8:	8c4675e8 	lw	a2,30184(v0)
9d0099ec:	8c4775ec 	lw	a3,30188(v0)
9d0099f0:	02402025 	move	a0,s2
9d0099f4:	0f403be4 	jal	9d00ef90 <__muldf3>
9d0099f8:	02602825 	move	a1,s3
9d0099fc:	00409025 	move	s2,v0
9d009a00:	00609825 	move	s3,v1
9d009a04:	26f70001 	addiu	s7,s7,1
9d009a08:	26e20034 	addiu	v0,s7,52
9d009a0c:	26d60003 	addiu	s6,s6,3
9d009a10:	0056b02a 	slt	s6,v0,s6
9d009a14:	12c0000b 	beqz	s6,9d009a44 <decfloat+0xc88>
9d009a18:	3c02a000 	lui	v0,0xa000
9d009a1c:	8fa20210 	lw	v0,528(sp)
9d009a20:	1040000a 	beqz	v0,9d009a4c <decfloat+0xc90>
9d009a24:	00003025 	move	a2,zero
9d009a28:	00003825 	move	a3,zero
9d009a2c:	02002025 	move	a0,s0
9d009a30:	0f404581 	jal	9d011604 <__eqdf2>
9d009a34:	02202825 	move	a1,s1
9d009a38:	10400005 	beqz	v0,9d009a50 <decfloat+0xc94>
9d009a3c:	02e03025 	move	a2,s7
9d009a40:	3c02a000 	lui	v0,0xa000
9d009a44:	24030022 	li	v1,34
9d009a48:	ac4353b4 	sw	v1,21428(v0)
9d009a4c:	02e03025 	move	a2,s7
9d009a50:	02402025 	move	a0,s2
9d009a54:	0f405297 	jal	9d014a5c <scalbnl>
9d009a58:	02602825 	move	a1,s3
9d009a5c:	10000025 	b	9d009af4 <decfloat+0xd38>
9d009a60:	8fbf024c 	lw	ra,588(sp)
9d009a64:	8fbe0258 	lw	s8,600(sp)
9d009a68:	1000ff52 	b	9d0097b4 <decfloat+0x9f8>
9d009a6c:	afa00210 	sw	zero,528(sp)
9d009a70:	afa20210 	sw	v0,528(sp)
9d009a74:	1000ff55 	b	9d0097cc <decfloat+0xa10>
9d009a78:	0000f025 	move	s8,zero
9d009a7c:	10620005 	beq	v1,v0,9d009a94 <decfloat+0xcd8>
9d009a80:	25290003 	addiu	t1,t1,3
9d009a84:	3c029d00 	lui	v0,0x9d00
9d009a88:	8c4675e0 	lw	a2,30176(v0)
9d009a8c:	1000ff8c 	b	9d0098c0 <decfloat+0xb04>
9d009a90:	8c4775e4 	lw	a3,30180(v0)
9d009a94:	3129007f 	andi	t1,t1,0x7f
9d009a98:	1536fffa 	bne	t1,s6,9d009a84 <decfloat+0xcc8>
9d009a9c:	3c029d00 	lui	v0,0x9d00
9d009aa0:	8c4675e8 	lw	a2,30184(v0)
9d009aa4:	1000ff86 	b	9d0098c0 <decfloat+0xb04>
9d009aa8:	8c4775ec 	lw	a3,30188(v0)
9d009aac:	04400009 	bltz	v0,9d009ad4 <decfloat+0xd18>
9d009ab0:	3c02a000 	lui	v0,0xa000
9d009ab4:	8e22004c 	lw	v0,76(s1)
9d009ab8:	10400004 	beqz	v0,9d009acc <decfloat+0xd10>
9d009abc:	00000000 	nop
9d009ac0:	8e22003c 	lw	v0,60(s1)
9d009ac4:	2442ffff 	addiu	v0,v0,-1
9d009ac8:	ae22003c 	sw	v0,60(s1)
9d009acc:	1660fd07 	bnez	s3,9d008eec <decfloat+0x130>
9d009ad0:	3c02a000 	lui	v0,0xa000
9d009ad4:	24030016 	li	v1,22
9d009ad8:	ac4353b4 	sw	v1,21428(v0)
9d009adc:	00002825 	move	a1,zero
9d009ae0:	0f405189 	jal	9d014624 <__shlim>
9d009ae4:	02202025 	move	a0,s1
9d009ae8:	00001025 	move	v0,zero
9d009aec:	00001825 	move	v1,zero
9d009af0:	8fbf024c 	lw	ra,588(sp)
9d009af4:	8fbe0248 	lw	s8,584(sp)
9d009af8:	8fb70244 	lw	s7,580(sp)
9d009afc:	8fb60240 	lw	s6,576(sp)
9d009b00:	8fb5023c 	lw	s5,572(sp)
9d009b04:	8fb40238 	lw	s4,568(sp)
9d009b08:	8fb30234 	lw	s3,564(sp)
9d009b0c:	8fb20230 	lw	s2,560(sp)
9d009b10:	8fb1022c 	lw	s1,556(sp)
9d009b14:	8fb00228 	lw	s0,552(sp)
9d009b18:	03e00008 	jr	ra
9d009b1c:	27bd0250 	addiu	sp,sp,592
9d009b20:	0441ffe4 	bgez	v0,9d009ab4 <decfloat+0xcf8>
9d009b24:	8fa40260 	lw	a0,608(sp)
9d009b28:	1000fcf2 	b	9d008ef4 <decfloat+0x138>
9d009b2c:	8fb10010 	lw	s1,16(sp)

Disassembly of section .text.__floatscan:

9d009b30 <__floatscan>:
9d009b30:	2ca70003 	sltiu	a3,a1,3
9d009b34:	00001025 	move	v0,zero
9d009b38:	10e002f8 	beqz	a3,9d00a71c <__floatscan+0xbec>
9d009b3c:	00001825 	move	v1,zero
9d009b40:	3c029d01 	lui	v0,0x9d01
9d009b44:	24424600 	addiu	v0,v0,17920
9d009b48:	00a21021 	addu	v0,a1,v0
9d009b4c:	80420000 	lb	v0,0(v0)
9d009b50:	27bdff88 	addiu	sp,sp,-120
9d009b54:	00052840 	sll	a1,a1,0x1
9d009b58:	afa20024 	sw	v0,36(sp)
9d009b5c:	3c029d01 	lui	v0,0x9d01
9d009b60:	244245f8 	addiu	v0,v0,17912
9d009b64:	00a22821 	addu	a1,a1,v0
9d009b68:	84a20000 	lh	v0,0(a1)
9d009b6c:	afb60068 	sw	s6,104(sp)
9d009b70:	afb40060 	sw	s4,96(sp)
9d009b74:	afbf0074 	sw	ra,116(sp)
9d009b78:	afbe0070 	sw	s8,112(sp)
9d009b7c:	afb7006c 	sw	s7,108(sp)
9d009b80:	afb50064 	sw	s5,100(sp)
9d009b84:	afb3005c 	sw	s3,92(sp)
9d009b88:	afb20058 	sw	s2,88(sp)
9d009b8c:	afb10054 	sw	s1,84(sp)
9d009b90:	afb00050 	sw	s0,80(sp)
9d009b94:	00c0b025 	move	s6,a2
9d009b98:	0080a025 	move	s4,a0
9d009b9c:	afa20018 	sw	v0,24(sp)
9d009ba0:	8e82003c 	lw	v0,60(s4)
9d009ba4:	8e83004c 	lw	v1,76(s4)
9d009ba8:	0043182b 	sltu	v1,v0,v1
9d009bac:	10600036 	beqz	v1,9d009c88 <__floatscan+0x158>
9d009bb0:	24430001 	addiu	v1,v0,1
9d009bb4:	ae83003c 	sw	v1,60(s4)
9d009bb8:	90520000 	lbu	s2,0(v0)
9d009bbc:	24020020 	li	v0,32
9d009bc0:	1242fff7 	beq	s2,v0,9d009ba0 <__floatscan+0x70>
9d009bc4:	2642fff7 	addiu	v0,s2,-9
9d009bc8:	2c420005 	sltiu	v0,v0,5
9d009bcc:	1440fff4 	bnez	v0,9d009ba0 <__floatscan+0x70>
9d009bd0:	2402002b 	li	v0,43
9d009bd4:	12420005 	beq	s2,v0,9d009bec <__floatscan+0xbc>
9d009bd8:	00001025 	move	v0,zero
9d009bdc:	2402002d 	li	v0,45
9d009be0:	1642000b 	bne	s2,v0,9d009c10 <__floatscan+0xe0>
9d009be4:	24110001 	li	s1,1
9d009be8:	24020002 	li	v0,2
9d009bec:	24110001 	li	s1,1
9d009bf0:	02228823 	subu	s1,s1,v0
9d009bf4:	8e83004c 	lw	v1,76(s4)
9d009bf8:	8e82003c 	lw	v0,60(s4)
9d009bfc:	0043182b 	sltu	v1,v0,v1
9d009c00:	10600025 	beqz	v1,9d009c98 <__floatscan+0x168>
9d009c04:	24430001 	addiu	v1,v0,1
9d009c08:	ae83003c 	sw	v1,60(s4)
9d009c0c:	90520000 	lbu	s2,0(v0)
9d009c10:	3c139d00 	lui	s3,0x9d00
9d009c14:	00008025 	move	s0,zero
9d009c18:	267375a4 	addiu	s3,s3,30116
9d009c1c:	02701821 	addu	v1,s3,s0
9d009c20:	80630000 	lb	v1,0(v1)
9d009c24:	36420020 	ori	v0,s2,0x20
9d009c28:	1043001f 	beq	v0,v1,9d009ca8 <__floatscan+0x178>
9d009c2c:	24020003 	li	v0,3
9d009c30:	12020005 	beq	s0,v0,9d009c48 <__floatscan+0x118>
9d009c34:	2e020004 	sltiu	v0,s0,4
9d009c38:	1440003f 	bnez	v0,9d009d38 <__floatscan+0x208>
9d009c3c:	00000000 	nop
9d009c40:	52c000ef 	beqzl	s6,9d00a000 <__floatscan+0x4d0>
9d009c44:	8e82004c 	lw	v0,76(s4)
9d009c48:	8e83004c 	lw	v1,76(s4)
9d009c4c:	10600004 	beqz	v1,9d009c60 <__floatscan+0x130>
9d009c50:	00000000 	nop
9d009c54:	8e82003c 	lw	v0,60(s4)
9d009c58:	2442ffff 	addiu	v0,v0,-1
9d009c5c:	ae82003c 	sw	v0,60(s4)
9d009c60:	12c0001f 	beqz	s6,9d009ce0 <__floatscan+0x1b0>
9d009c64:	24040003 	li	a0,3
9d009c68:	1204001e 	beq	s0,a0,9d009ce4 <__floatscan+0x1b4>
9d009c6c:	2402ffff 	li	v0,-1
9d009c70:	1060fffd 	beqz	v1,9d009c68 <__floatscan+0x138>
9d009c74:	2610ffff 	addiu	s0,s0,-1
9d009c78:	8e82003c 	lw	v0,60(s4)
9d009c7c:	2442ffff 	addiu	v0,v0,-1
9d009c80:	1000fff9 	b	9d009c68 <__floatscan+0x138>
9d009c84:	ae82003c 	sw	v0,60(s4)
9d009c88:	0f4049ab 	jal	9d0126ac <__shgetc>
9d009c8c:	02802025 	move	a0,s4
9d009c90:	1000ffca 	b	9d009bbc <__floatscan+0x8c>
9d009c94:	00409025 	move	s2,v0
9d009c98:	0f4049ab 	jal	9d0126ac <__shgetc>
9d009c9c:	02802025 	move	a0,s4
9d009ca0:	1000ffdb 	b	9d009c10 <__floatscan+0xe0>
9d009ca4:	00409025 	move	s2,v0
9d009ca8:	24020007 	li	v0,7
9d009cac:	52020009 	beql	s0,v0,9d009cd4 <__floatscan+0x1a4>
9d009cb0:	26100001 	addiu	s0,s0,1
9d009cb4:	8e82003c 	lw	v0,60(s4)
9d009cb8:	8e83004c 	lw	v1,76(s4)
9d009cbc:	0043182b 	sltu	v1,v0,v1
9d009cc0:	10600019 	beqz	v1,9d009d28 <__floatscan+0x1f8>
9d009cc4:	24430001 	addiu	v1,v0,1
9d009cc8:	ae83003c 	sw	v1,60(s4)
9d009ccc:	90520000 	lbu	s2,0(v0)
9d009cd0:	26100001 	addiu	s0,s0,1
9d009cd4:	24020008 	li	v0,8
9d009cd8:	1602ffd1 	bne	s0,v0,9d009c20 <__floatscan+0xf0>
9d009cdc:	02701821 	addu	v1,s3,s0
9d009ce0:	2402ffff 	li	v0,-1
9d009ce4:	12220282 	beq	s1,v0,9d00a6f0 <__floatscan+0xbc0>
9d009ce8:	3c029d00 	lui	v0,0x9d00
9d009cec:	3c029d00 	lui	v0,0x9d00
9d009cf0:	8c43760c 	lw	v1,30220(v0)
9d009cf4:	8c427608 	lw	v0,30216(v0)
9d009cf8:	8fbf0074 	lw	ra,116(sp)
9d009cfc:	8fbe0070 	lw	s8,112(sp)
9d009d00:	8fb7006c 	lw	s7,108(sp)
9d009d04:	8fb60068 	lw	s6,104(sp)
9d009d08:	8fb50064 	lw	s5,100(sp)
9d009d0c:	8fb40060 	lw	s4,96(sp)
9d009d10:	8fb3005c 	lw	s3,92(sp)
9d009d14:	8fb20058 	lw	s2,88(sp)
9d009d18:	8fb10054 	lw	s1,84(sp)
9d009d1c:	8fb00050 	lw	s0,80(sp)
9d009d20:	03e00008 	jr	ra
9d009d24:	27bd0078 	addiu	sp,sp,120
9d009d28:	0f4049ab 	jal	9d0126ac <__shgetc>
9d009d2c:	02802025 	move	a0,s4
9d009d30:	1000ffe7 	b	9d009cd0 <__floatscan+0x1a0>
9d009d34:	00409025 	move	s2,v0
9d009d38:	160000b0 	bnez	s0,9d009ffc <__floatscan+0x4cc>
9d009d3c:	3c139d00 	lui	s3,0x9d00
9d009d40:	267375b0 	addiu	s3,s3,30128
9d009d44:	02701821 	addu	v1,s3,s0
9d009d48:	80630000 	lb	v1,0(v1)
9d009d4c:	36420020 	ori	v0,s2,0x20
9d009d50:	1043004b 	beq	v0,v1,9d009e80 <__floatscan+0x350>
9d009d54:	24020002 	li	v0,2
9d009d58:	160000a8 	bnez	s0,9d009ffc <__floatscan+0x4cc>
9d009d5c:	8fa20024 	lw	v0,36(sp)
9d009d60:	afa20020 	sw	v0,32(sp)
9d009d64:	24020030 	li	v0,48
9d009d68:	16420259 	bne	s2,v0,9d00a6d0 <__floatscan+0xba0>
9d009d6c:	8fa70018 	lw	a3,24(sp)
9d009d70:	8e82003c 	lw	v0,60(s4)
9d009d74:	8e83004c 	lw	v1,76(s4)
9d009d78:	0043182b 	sltu	v1,v0,v1
9d009d7c:	106000a6 	beqz	v1,9d00a018 <__floatscan+0x4e8>
9d009d80:	00000000 	nop
9d009d84:	24430001 	addiu	v1,v0,1
9d009d88:	ae83003c 	sw	v1,60(s4)
9d009d8c:	90420000 	lbu	v0,0(v0)
9d009d90:	34420020 	ori	v0,v0,0x20
9d009d94:	24040078 	li	a0,120
9d009d98:	14440247 	bne	v0,a0,9d00a6b8 <__floatscan+0xb88>
9d009d9c:	8e83004c 	lw	v1,76(s4)
9d009da0:	8e82003c 	lw	v0,60(s4)
9d009da4:	0043182b 	sltu	v1,v0,v1
9d009da8:	1060009f 	beqz	v1,9d00a028 <__floatscan+0x4f8>
9d009dac:	00000000 	nop
9d009db0:	24430001 	addiu	v1,v0,1
9d009db4:	ae83003c 	sw	v1,60(s4)
9d009db8:	90420000 	lbu	v0,0(v0)
9d009dbc:	00001825 	move	v1,zero
9d009dc0:	24040030 	li	a0,48
9d009dc4:	1044009c 	beq	v0,a0,9d00a038 <__floatscan+0x508>
9d009dc8:	2404002e 	li	a0,46
9d009dcc:	104400a8 	beq	v0,a0,9d00a070 <__floatscan+0x540>
9d009dd0:	0000b825 	move	s7,zero
9d009dd4:	0000f025 	move	s8,zero
9d009dd8:	00006825 	move	t5,zero
9d009ddc:	3c049d00 	lui	a0,0x9d00
9d009de0:	8c8675d0 	lw	a2,30160(a0)
9d009de4:	8c8775d4 	lw	a3,30164(a0)
9d009de8:	0000a825 	move	s5,zero
9d009dec:	00005825 	move	t3,zero
9d009df0:	afa00030 	sw	zero,48(sp)
9d009df4:	afa60028 	sw	a2,40(sp)
9d009df8:	afa7002c 	sw	a3,44(sp)
9d009dfc:	00009025 	move	s2,zero
9d009e00:	00009825 	move	s3,zero
9d009e04:	afa40034 	sw	a0,52(sp)
9d009e08:	244effd0 	addiu	t6,v0,-48
9d009e0c:	2dc4000a 	sltiu	a0,t6,10
9d009e10:	148000bd 	bnez	a0,9d00a108 <__floatscan+0x5d8>
9d009e14:	34440020 	ori	a0,v0,0x20
9d009e18:	2484ff9f 	addiu	a0,a0,-97
9d009e1c:	2c840006 	sltiu	a0,a0,6
9d009e20:	148000b9 	bnez	a0,9d00a108 <__floatscan+0x5d8>
9d009e24:	2404002e 	li	a0,46
9d009e28:	104400ba 	beq	v0,a0,9d00a114 <__floatscan+0x5e4>
9d009e2c:	00000000 	nop
9d009e30:	54600123 	bnezl	v1,9d00a2c0 <__floatscan+0x790>
9d009e34:	02adb80a 	movz	s7,s5,t5
9d009e38:	8e82004c 	lw	v0,76(s4)
9d009e3c:	1040022f 	beqz	v0,9d00a6fc <__floatscan+0xbcc>
9d009e40:	00000000 	nop
9d009e44:	12c00117 	beqz	s6,9d00a2a4 <__floatscan+0x774>
9d009e48:	8e82003c 	lw	v0,60(s4)
9d009e4c:	55a00002 	bnezl	t5,9d009e58 <__floatscan+0x328>
9d009e50:	2442fffd 	addiu	v0,v0,-3
9d009e54:	2442fffe 	addiu	v0,v0,-2
9d009e58:	ae82003c 	sw	v0,60(s4)
9d009e5c:	0f404d77 	jal	9d0135dc <__floatsidf>
9d009e60:	02202025 	move	a0,s1
9d009e64:	00003025 	move	a2,zero
9d009e68:	00003825 	move	a3,zero
9d009e6c:	00402025 	move	a0,v0
9d009e70:	0f403be4 	jal	9d00ef90 <__muldf3>
9d009e74:	00602825 	move	a1,v1
9d009e78:	1000ffa0 	b	9d009cfc <__floatscan+0x1cc>
9d009e7c:	8fbf0074 	lw	ra,116(sp)
9d009e80:	52020009 	beql	s0,v0,9d009ea8 <__floatscan+0x378>
9d009e84:	26100001 	addiu	s0,s0,1
9d009e88:	8e82003c 	lw	v0,60(s4)
9d009e8c:	8e83004c 	lw	v1,76(s4)
9d009e90:	0043182b 	sltu	v1,v0,v1
9d009e94:	10600010 	beqz	v1,9d009ed8 <__floatscan+0x3a8>
9d009e98:	24430001 	addiu	v1,v0,1
9d009e9c:	ae83003c 	sw	v1,60(s4)
9d009ea0:	90520000 	lbu	s2,0(v0)
9d009ea4:	26100001 	addiu	s0,s0,1
9d009ea8:	24020003 	li	v0,3
9d009eac:	1602ffa6 	bne	s0,v0,9d009d48 <__floatscan+0x218>
9d009eb0:	02701821 	addu	v1,s3,s0
9d009eb4:	8e83003c 	lw	v1,60(s4)
9d009eb8:	8e82004c 	lw	v0,76(s4)
9d009ebc:	0062102b 	sltu	v0,v1,v0
9d009ec0:	54400009 	bnezl	v0,9d009ee8 <__floatscan+0x3b8>
9d009ec4:	24620001 	addiu	v0,v1,1
9d009ec8:	0f4049ab 	jal	9d0126ac <__shgetc>
9d009ecc:	02802025 	move	a0,s4
9d009ed0:	10000008 	b	9d009ef4 <__floatscan+0x3c4>
9d009ed4:	38420028 	xori	v0,v0,0x28
9d009ed8:	0f4049ab 	jal	9d0126ac <__shgetc>
9d009edc:	02802025 	move	a0,s4
9d009ee0:	1000fff0 	b	9d009ea4 <__floatscan+0x374>
9d009ee4:	00409025 	move	s2,v0
9d009ee8:	ae82003c 	sw	v0,60(s4)
9d009eec:	90620000 	lbu	v0,0(v1)
9d009ef0:	38420028 	xori	v0,v0,0x28
9d009ef4:	0002102b 	sltu	v0,zero,v0
9d009ef8:	1040000b 	beqz	v0,9d009f28 <__floatscan+0x3f8>
9d009efc:	24100001 	li	s0,1
9d009f00:	8e82004c 	lw	v0,76(s4)
9d009f04:	54400005 	bnezl	v0,9d009f1c <__floatscan+0x3ec>
9d009f08:	8e82003c 	lw	v0,60(s4)
9d009f0c:	3c029d00 	lui	v0,0x9d00
9d009f10:	8c437604 	lw	v1,30212(v0)
9d009f14:	1000ff78 	b	9d009cf8 <__floatscan+0x1c8>
9d009f18:	8c427600 	lw	v0,30208(v0)
9d009f1c:	2442ffff 	addiu	v0,v0,-1
9d009f20:	1000fffa 	b	9d009f0c <__floatscan+0x3dc>
9d009f24:	ae82003c 	sw	v0,60(s4)
9d009f28:	8e82003c 	lw	v0,60(s4)
9d009f2c:	8e83004c 	lw	v1,76(s4)
9d009f30:	0043182b 	sltu	v1,v0,v1
9d009f34:	10600011 	beqz	v1,9d009f7c <__floatscan+0x44c>
9d009f38:	00000000 	nop
9d009f3c:	24430001 	addiu	v1,v0,1
9d009f40:	ae83003c 	sw	v1,60(s4)
9d009f44:	90420000 	lbu	v0,0(v0)
9d009f48:	2443ffd0 	addiu	v1,v0,-48
9d009f4c:	2c63000a 	sltiu	v1,v1,10
9d009f50:	14600008 	bnez	v1,9d009f74 <__floatscan+0x444>
9d009f54:	00401825 	move	v1,v0
9d009f58:	7c032944 	ins	v1,zero,0x5,0x1
9d009f5c:	2463ffbf 	addiu	v1,v1,-65
9d009f60:	2c63001a 	sltiu	v1,v1,26
9d009f64:	14600003 	bnez	v1,9d009f74 <__floatscan+0x444>
9d009f68:	2403005f 	li	v1,95
9d009f6c:	14430007 	bne	v0,v1,9d009f8c <__floatscan+0x45c>
9d009f70:	24030029 	li	v1,41
9d009f74:	1000ffec 	b	9d009f28 <__floatscan+0x3f8>
9d009f78:	26100001 	addiu	s0,s0,1
9d009f7c:	0f4049ab 	jal	9d0126ac <__shgetc>
9d009f80:	02802025 	move	a0,s4
9d009f84:	1000fff1 	b	9d009f4c <__floatscan+0x41c>
9d009f88:	2443ffd0 	addiu	v1,v0,-48
9d009f8c:	1043ffe0 	beq	v0,v1,9d009f10 <__floatscan+0x3e0>
9d009f90:	3c029d00 	lui	v0,0x9d00
9d009f94:	8e83004c 	lw	v1,76(s4)
9d009f98:	10600004 	beqz	v1,9d009fac <__floatscan+0x47c>
9d009f9c:	00000000 	nop
9d009fa0:	8e82003c 	lw	v0,60(s4)
9d009fa4:	2442ffff 	addiu	v0,v0,-1
9d009fa8:	ae82003c 	sw	v0,60(s4)
9d009fac:	16c0000f 	bnez	s6,9d009fec <__floatscan+0x4bc>
9d009fb0:	00000000 	nop
9d009fb4:	3c02a000 	lui	v0,0xa000
9d009fb8:	24030016 	li	v1,22
9d009fbc:	ac4353b4 	sw	v1,21428(v0)
9d009fc0:	00002825 	move	a1,zero
9d009fc4:	0f405189 	jal	9d014624 <__shlim>
9d009fc8:	02802025 	move	a0,s4
9d009fcc:	00001025 	move	v0,zero
9d009fd0:	1000ff49 	b	9d009cf8 <__floatscan+0x1c8>
9d009fd4:	00001825 	move	v1,zero
9d009fd8:	10600004 	beqz	v1,9d009fec <__floatscan+0x4bc>
9d009fdc:	2610ffff 	addiu	s0,s0,-1
9d009fe0:	8e82003c 	lw	v0,60(s4)
9d009fe4:	2442ffff 	addiu	v0,v0,-1
9d009fe8:	ae82003c 	sw	v0,60(s4)
9d009fec:	1600fffa 	bnez	s0,9d009fd8 <__floatscan+0x4a8>
9d009ff0:	3c029d00 	lui	v0,0x9d00
9d009ff4:	1000ffc7 	b	9d009f14 <__floatscan+0x3e4>
9d009ff8:	8c437604 	lw	v1,30212(v0)
9d009ffc:	8e82004c 	lw	v0,76(s4)
9d00a000:	5040ffed 	beqzl	v0,9d009fb8 <__floatscan+0x488>
9d00a004:	3c02a000 	lui	v0,0xa000
9d00a008:	8e82003c 	lw	v0,60(s4)
9d00a00c:	2442ffff 	addiu	v0,v0,-1
9d00a010:	1000ffe8 	b	9d009fb4 <__floatscan+0x484>
9d00a014:	ae82003c 	sw	v0,60(s4)
9d00a018:	0f4049ab 	jal	9d0126ac <__shgetc>
9d00a01c:	02802025 	move	a0,s4
9d00a020:	1000ff5c 	b	9d009d94 <__floatscan+0x264>
9d00a024:	34420020 	ori	v0,v0,0x20
9d00a028:	0f4049ab 	jal	9d0126ac <__shgetc>
9d00a02c:	02802025 	move	a0,s4
9d00a030:	1000ff63 	b	9d009dc0 <__floatscan+0x290>
9d00a034:	00001825 	move	v1,zero
9d00a038:	8e82003c 	lw	v0,60(s4)
9d00a03c:	8e83004c 	lw	v1,76(s4)
9d00a040:	0043182b 	sltu	v1,v0,v1
9d00a044:	10600006 	beqz	v1,9d00a060 <__floatscan+0x530>
9d00a048:	00000000 	nop
9d00a04c:	24430001 	addiu	v1,v0,1
9d00a050:	ae83003c 	sw	v1,60(s4)
9d00a054:	90420000 	lbu	v0,0(v0)
9d00a058:	1000ff59 	b	9d009dc0 <__floatscan+0x290>
9d00a05c:	24030001 	li	v1,1
9d00a060:	0f4049ab 	jal	9d0126ac <__shgetc>
9d00a064:	02802025 	move	a0,s4
9d00a068:	1000ff55 	b	9d009dc0 <__floatscan+0x290>
9d00a06c:	24030001 	li	v1,1
9d00a070:	8e82003c 	lw	v0,60(s4)
9d00a074:	8e84004c 	lw	a0,76(s4)
9d00a078:	0044202b 	sltu	a0,v0,a0
9d00a07c:	1080000a 	beqz	a0,9d00a0a8 <__floatscan+0x578>
9d00a080:	24440001 	addiu	a0,v0,1
9d00a084:	ae84003c 	sw	a0,60(s4)
9d00a088:	90420000 	lbu	v0,0(v0)
9d00a08c:	0000b825 	move	s7,zero
9d00a090:	0000f025 	move	s8,zero
9d00a094:	24040030 	li	a0,48
9d00a098:	10440008 	beq	v0,a0,9d00a0bc <__floatscan+0x58c>
9d00a09c:	240d0001 	li	t5,1
9d00a0a0:	1000ff4f 	b	9d009de0 <__floatscan+0x2b0>
9d00a0a4:	3c049d00 	lui	a0,0x9d00
9d00a0a8:	02802025 	move	a0,s4
9d00a0ac:	0f4049ab 	jal	9d0126ac <__shgetc>
9d00a0b0:	afa30028 	sw	v1,40(sp)
9d00a0b4:	1000fff5 	b	9d00a08c <__floatscan+0x55c>
9d00a0b8:	8fa30028 	lw	v1,40(sp)
9d00a0bc:	8e82003c 	lw	v0,60(s4)
9d00a0c0:	8e83004c 	lw	v1,76(s4)
9d00a0c4:	0043182b 	sltu	v1,v0,v1
9d00a0c8:	1060000b 	beqz	v1,9d00a0f8 <__floatscan+0x5c8>
9d00a0cc:	00000000 	nop
9d00a0d0:	24430001 	addiu	v1,v0,1
9d00a0d4:	ae83003c 	sw	v1,60(s4)
9d00a0d8:	90420000 	lbu	v0,0(v0)
9d00a0dc:	26e3ffff 	addiu	v1,s7,-1
9d00a0e0:	0077202b 	sltu	a0,v1,s7
9d00a0e4:	27ccffff 	addiu	t4,s8,-1
9d00a0e8:	0060b825 	move	s7,v1
9d00a0ec:	008cf021 	addu	s8,a0,t4
9d00a0f0:	1000ffe8 	b	9d00a094 <__floatscan+0x564>
9d00a0f4:	24030001 	li	v1,1
9d00a0f8:	0f4049ab 	jal	9d0126ac <__shgetc>
9d00a0fc:	02802025 	move	a0,s4
9d00a100:	1000fff7 	b	9d00a0e0 <__floatscan+0x5b0>
9d00a104:	26e3ffff 	addiu	v1,s7,-1
9d00a108:	2404002e 	li	a0,46
9d00a10c:	54440011 	bnel	v0,a0,9d00a154 <__floatscan+0x624>
9d00a110:	2843003a 	slti	v1,v0,58
9d00a114:	15a0017d 	bnez	t5,9d00a70c <__floatscan+0xbdc>
9d00a118:	02a02825 	move	a1,s5
9d00a11c:	01605025 	move	t2,t3
9d00a120:	240d0001 	li	t5,1
9d00a124:	8e82003c 	lw	v0,60(s4)
9d00a128:	8e84004c 	lw	a0,76(s4)
9d00a12c:	0044202b 	sltu	a0,v0,a0
9d00a130:	1080004f 	beqz	a0,9d00a270 <__floatscan+0x740>
9d00a134:	24440001 	addiu	a0,v0,1
9d00a138:	ae84003c 	sw	a0,60(s4)
9d00a13c:	90420000 	lbu	v0,0(v0)
9d00a140:	02a0b825 	move	s7,s5
9d00a144:	0160f025 	move	s8,t3
9d00a148:	00a0a825 	move	s5,a1
9d00a14c:	1000ff2e 	b	9d009e08 <__floatscan+0x2d8>
9d00a150:	01405825 	move	t3,t2
9d00a154:	14600002 	bnez	v1,9d00a160 <__floatscan+0x630>
9d00a158:	34420020 	ori	v0,v0,0x20
9d00a15c:	244effa9 	addiu	t6,v0,-87
9d00a160:	1d60002c 	bgtz	t3,9d00a214 <__floatscan+0x6e4>
9d00a164:	00000000 	nop
9d00a168:	15600003 	bnez	t3,9d00a178 <__floatscan+0x648>
9d00a16c:	2ea20008 	sltiu	v0,s5,8
9d00a170:	1040000a 	beqz	v0,9d00a19c <__floatscan+0x66c>
9d00a174:	2ea2000e 	sltiu	v0,s5,14
9d00a178:	00108100 	sll	s0,s0,0x4
9d00a17c:	01d08021 	addu	s0,t6,s0
9d00a180:	26a50001 	addiu	a1,s5,1
9d00a184:	00b5502b 	sltu	t2,a1,s5
9d00a188:	014b5021 	addu	t2,t2,t3
9d00a18c:	02e0a825 	move	s5,s7
9d00a190:	03c05825 	move	t3,s8
9d00a194:	1000ffe3 	b	9d00a124 <__floatscan+0x5f4>
9d00a198:	24030001 	li	v1,1
9d00a19c:	1040001d 	beqz	v0,9d00a214 <__floatscan+0x6e4>
9d00a1a0:	3c029d00 	lui	v0,0x9d00
9d00a1a4:	8fa5002c 	lw	a1,44(sp)
9d00a1a8:	8c467610 	lw	a2,30224(v0)
9d00a1ac:	8c477614 	lw	a3,30228(v0)
9d00a1b0:	8fa40028 	lw	a0,40(sp)
9d00a1b4:	afab0040 	sw	t3,64(sp)
9d00a1b8:	afad0038 	sw	t5,56(sp)
9d00a1bc:	0f403be4 	jal	9d00ef90 <__muldf3>
9d00a1c0:	afae003c 	sw	t6,60(sp)
9d00a1c4:	8fae003c 	lw	t6,60(sp)
9d00a1c8:	afa20028 	sw	v0,40(sp)
9d00a1cc:	afa3002c 	sw	v1,44(sp)
9d00a1d0:	0f404d77 	jal	9d0135dc <__floatsidf>
9d00a1d4:	01c02025 	move	a0,t6
9d00a1d8:	8fa60028 	lw	a2,40(sp)
9d00a1dc:	8fa7002c 	lw	a3,44(sp)
9d00a1e0:	00402025 	move	a0,v0
9d00a1e4:	0f403be4 	jal	9d00ef90 <__muldf3>
9d00a1e8:	00602825 	move	a1,v1
9d00a1ec:	00403025 	move	a2,v0
9d00a1f0:	02402025 	move	a0,s2
9d00a1f4:	02602825 	move	a1,s3
9d00a1f8:	0f40372a 	jal	9d00dca8 <__adddf3>
9d00a1fc:	00603825 	move	a3,v1
9d00a200:	00409025 	move	s2,v0
9d00a204:	00609825 	move	s3,v1
9d00a208:	8fad0038 	lw	t5,56(sp)
9d00a20c:	1000ffdc 	b	9d00a180 <__floatscan+0x650>
9d00a210:	8fab0040 	lw	t3,64(sp)
9d00a214:	11c0ffda 	beqz	t6,9d00a180 <__floatscan+0x650>
9d00a218:	8fa20030 	lw	v0,48(sp)
9d00a21c:	1440ffd8 	bnez	v0,9d00a180 <__floatscan+0x650>
9d00a220:	3c029d00 	lui	v0,0x9d00
9d00a224:	8c4675e8 	lw	a2,30184(v0)
9d00a228:	8c4775ec 	lw	a3,30188(v0)
9d00a22c:	8fa40028 	lw	a0,40(sp)
9d00a230:	8fa5002c 	lw	a1,44(sp)
9d00a234:	afab003c 	sw	t3,60(sp)
9d00a238:	0f403be4 	jal	9d00ef90 <__muldf3>
9d00a23c:	afad0038 	sw	t5,56(sp)
9d00a240:	00403025 	move	a2,v0
9d00a244:	02402025 	move	a0,s2
9d00a248:	02602825 	move	a1,s3
9d00a24c:	0f40372a 	jal	9d00dca8 <__adddf3>
9d00a250:	00603825 	move	a3,v1
9d00a254:	00409025 	move	s2,v0
9d00a258:	24020001 	li	v0,1
9d00a25c:	00609825 	move	s3,v1
9d00a260:	afa20030 	sw	v0,48(sp)
9d00a264:	8fab003c 	lw	t3,60(sp)
9d00a268:	1000ffc5 	b	9d00a180 <__floatscan+0x650>
9d00a26c:	8fad0038 	lw	t5,56(sp)
9d00a270:	02802025 	move	a0,s4
9d00a274:	afaa0048 	sw	t2,72(sp)
9d00a278:	afa50044 	sw	a1,68(sp)
9d00a27c:	afab0040 	sw	t3,64(sp)
9d00a280:	afa3003c 	sw	v1,60(sp)
9d00a284:	0f4049ab 	jal	9d0126ac <__shgetc>
9d00a288:	afad0038 	sw	t5,56(sp)
9d00a28c:	8faa0048 	lw	t2,72(sp)
9d00a290:	8fa50044 	lw	a1,68(sp)
9d00a294:	8fab0040 	lw	t3,64(sp)
9d00a298:	8fa3003c 	lw	v1,60(sp)
9d00a29c:	1000ffa8 	b	9d00a140 <__floatscan+0x610>
9d00a2a0:	8fad0038 	lw	t5,56(sp)
9d00a2a4:	2442ffff 	addiu	v0,v0,-1
9d00a2a8:	ae82003c 	sw	v0,60(s4)
9d00a2ac:	00002825 	move	a1,zero
9d00a2b0:	0f405189 	jal	9d014624 <__shlim>
9d00a2b4:	02802025 	move	a0,s4
9d00a2b8:	1000fee8 	b	9d009e5c <__floatscan+0x32c>
9d00a2bc:	00000000 	nop
9d00a2c0:	016df00a 	movz	s8,t3,t5
9d00a2c4:	5d600006 	bgtzl	t3,9d00a2e0 <__floatscan+0x7b0>
9d00a2c8:	34420020 	ori	v0,v0,0x20
9d00a2cc:	15600014 	bnez	t3,9d00a320 <__floatscan+0x7f0>
9d00a2d0:	2ea30008 	sltiu	v1,s5,8
9d00a2d4:	14600013 	bnez	v1,9d00a324 <__floatscan+0x7f4>
9d00a2d8:	26a30001 	addiu	v1,s5,1
9d00a2dc:	34420020 	ori	v0,v0,0x20
9d00a2e0:	24030070 	li	v1,112
9d00a2e4:	1443003d 	bne	v0,v1,9d00a3dc <__floatscan+0x8ac>
9d00a2e8:	02c02825 	move	a1,s6
9d00a2ec:	0f403e03 	jal	9d00f80c <scanexp>
9d00a2f0:	02802025 	move	a0,s4
9d00a2f4:	14400013 	bnez	v0,9d00a344 <__floatscan+0x814>
9d00a2f8:	3c048000 	lui	a0,0x8000
9d00a2fc:	14640011 	bne	v1,a0,9d00a344 <__floatscan+0x814>
9d00a300:	00000000 	nop
9d00a304:	12c0ff2f 	beqz	s6,9d009fc4 <__floatscan+0x494>
9d00a308:	00002825 	move	a1,zero
9d00a30c:	8e83004c 	lw	v1,76(s4)
9d00a310:	54600009 	bnezl	v1,9d00a338 <__floatscan+0x808>
9d00a314:	8e83003c 	lw	v1,60(s4)
9d00a318:	10000009 	b	9d00a340 <__floatscan+0x810>
9d00a31c:	00001025 	move	v0,zero
9d00a320:	26a30001 	addiu	v1,s5,1
9d00a324:	0075202b 	sltu	a0,v1,s5
9d00a328:	00108100 	sll	s0,s0,0x4
9d00a32c:	0060a825 	move	s5,v1
9d00a330:	1000ffe4 	b	9d00a2c4 <__floatscan+0x794>
9d00a334:	008b5821 	addu	t3,a0,t3
9d00a338:	2463ffff 	addiu	v1,v1,-1
9d00a33c:	ae83003c 	sw	v1,60(s4)
9d00a340:	00001825 	move	v1,zero
9d00a344:	1200fec5 	beqz	s0,9d009e5c <__floatscan+0x32c>
9d00a348:	26e4fff8 	addiu	a0,s7,-8
9d00a34c:	0097482b 	sltu	t1,a0,s7
9d00a350:	27ccffff 	addiu	t4,s8,-1
9d00a354:	012c4821 	addu	t1,t1,t4
9d00a358:	00042f82 	srl	a1,a0,0x1e
9d00a35c:	00094880 	sll	t1,t1,0x2
9d00a360:	00042080 	sll	a0,a0,0x2
9d00a364:	00a94825 	or	t1,a1,t1
9d00a368:	00821021 	addu	v0,a0,v0
9d00a36c:	0044202b 	sltu	a0,v0,a0
9d00a370:	01231821 	addu	v1,t1,v1
9d00a374:	00831821 	addu	v1,a0,v1
9d00a378:	8fa40018 	lw	a0,24(sp)
9d00a37c:	0040a025 	move	s4,v0
9d00a380:	00042023 	negu	a0,a0
9d00a384:	00042fc3 	sra	a1,a0,0x1f
9d00a388:	00a3302a 	slt	a2,a1,v1
9d00a38c:	14c00005 	bnez	a2,9d00a3a4 <__floatscan+0x874>
9d00a390:	0060a825 	move	s5,v1
9d00a394:	14650018 	bne	v1,a1,9d00a3f8 <__floatscan+0x8c8>
9d00a398:	0082202b 	sltu	a0,a0,v0
9d00a39c:	10800017 	beqz	a0,9d00a3fc <__floatscan+0x8cc>
9d00a3a0:	8fa40018 	lw	a0,24(sp)
9d00a3a4:	3c02a000 	lui	v0,0xa000
9d00a3a8:	24030022 	li	v1,34
9d00a3ac:	3c109d00 	lui	s0,0x9d00
9d00a3b0:	02202025 	move	a0,s1
9d00a3b4:	0f404d77 	jal	9d0135dc <__floatsidf>
9d00a3b8:	ac4353b4 	sw	v1,21428(v0)
9d00a3bc:	8e0675b8 	lw	a2,30136(s0)
9d00a3c0:	8e0775bc 	lw	a3,30140(s0)
9d00a3c4:	00402025 	move	a0,v0
9d00a3c8:	0f403be4 	jal	9d00ef90 <__muldf3>
9d00a3cc:	00602825 	move	a1,v1
9d00a3d0:	8e0675b8 	lw	a2,30136(s0)
9d00a3d4:	1000fea5 	b	9d009e6c <__floatscan+0x33c>
9d00a3d8:	8e0775bc 	lw	a3,30140(s0)
9d00a3dc:	8e82004c 	lw	v0,76(s4)
9d00a3e0:	5040ffd7 	beqzl	v0,9d00a340 <__floatscan+0x810>
9d00a3e4:	00001025 	move	v0,zero
9d00a3e8:	8e82003c 	lw	v0,60(s4)
9d00a3ec:	2442ffff 	addiu	v0,v0,-1
9d00a3f0:	1000ffc9 	b	9d00a318 <__floatscan+0x7e8>
9d00a3f4:	ae82003c 	sw	v0,60(s4)
9d00a3f8:	8fa40018 	lw	a0,24(sp)
9d00a3fc:	2484ff96 	addiu	a0,a0,-106
9d00a400:	00042fc3 	sra	a1,a0,0x1f
9d00a404:	0065302a 	slt	a2,v1,a1
9d00a408:	54c00005 	bnezl	a2,9d00a420 <__floatscan+0x8f0>
9d00a40c:	3c02a000 	lui	v0,0xa000
9d00a410:	14a3009e 	bne	a1,v1,9d00a68c <__floatscan+0xb5c>
9d00a414:	0044102b 	sltu	v0,v0,a0
9d00a418:	1040009c 	beqz	v0,9d00a68c <__floatscan+0xb5c>
9d00a41c:	3c02a000 	lui	v0,0xa000
9d00a420:	24030022 	li	v1,34
9d00a424:	3c109d00 	lui	s0,0x9d00
9d00a428:	02202025 	move	a0,s1
9d00a42c:	0f404d77 	jal	9d0135dc <__floatsidf>
9d00a430:	ac4353b4 	sw	v1,21428(v0)
9d00a434:	8e0675c0 	lw	a2,30144(s0)
9d00a438:	8e0775c4 	lw	a3,30148(s0)
9d00a43c:	00402025 	move	a0,v0
9d00a440:	0f403be4 	jal	9d00ef90 <__muldf3>
9d00a444:	00602825 	move	a1,v1
9d00a448:	8e0675c0 	lw	a2,30144(s0)
9d00a44c:	1000fe87 	b	9d009e6c <__floatscan+0x33c>
9d00a450:	8e0775c4 	lw	a3,30148(s0)
9d00a454:	02c03025 	move	a2,s6
9d00a458:	02e03825 	move	a3,s7
9d00a45c:	02402025 	move	a0,s2
9d00a460:	02602825 	move	a1,s3
9d00a464:	0f404581 	jal	9d011604 <__eqdf2>
9d00a468:	00108040 	sll	s0,s0,0x1
9d00a46c:	04400084 	bltz	v0,9d00a680 <__floatscan+0xb50>
9d00a470:	02402025 	move	a0,s2
9d00a474:	8fa60028 	lw	a2,40(sp)
9d00a478:	8fa7002c 	lw	a3,44(sp)
9d00a47c:	0f403728 	jal	9d00dca0 <__subdf3>
9d00a480:	02602825 	move	a1,s3
9d00a484:	26100001 	addiu	s0,s0,1
9d00a488:	00403025 	move	a2,v0
9d00a48c:	00603825 	move	a3,v1
9d00a490:	02402025 	move	a0,s2
9d00a494:	0f40372a 	jal	9d00dca8 <__adddf3>
9d00a498:	02602825 	move	a1,s3
9d00a49c:	00409025 	move	s2,v0
9d00a4a0:	2682ffff 	addiu	v0,s4,-1
9d00a4a4:	00609825 	move	s3,v1
9d00a4a8:	26b5ffff 	addiu	s5,s5,-1
9d00a4ac:	0054182b 	sltu	v1,v0,s4
9d00a4b0:	0075a821 	addu	s5,v1,s5
9d00a4b4:	0040a025 	move	s4,v0
9d00a4b8:	0601ffe6 	bgez	s0,9d00a454 <__floatscan+0x924>
9d00a4bc:	8fa20024 	lw	v0,36(sp)
9d00a4c0:	8fa40018 	lw	a0,24(sp)
9d00a4c4:	26830020 	addiu	v1,s4,32
9d00a4c8:	00022fc3 	sra	a1,v0,0x1f
9d00a4cc:	0074102b 	sltu	v0,v1,s4
9d00a4d0:	00551021 	addu	v0,v0,s5
9d00a4d4:	0004afc3 	sra	s5,a0,0x1f
9d00a4d8:	00642023 	subu	a0,v1,a0
9d00a4dc:	0055a823 	subu	s5,v0,s5
9d00a4e0:	0064182b 	sltu	v1,v1,a0
9d00a4e4:	02a3a823 	subu	s5,s5,v1
9d00a4e8:	02a5102a 	slt	v0,s5,a1
9d00a4ec:	14400006 	bnez	v0,9d00a508 <__floatscan+0x9d8>
9d00a4f0:	8fa20018 	lw	v0,24(sp)
9d00a4f4:	14b50008 	bne	a1,s5,9d00a518 <__floatscan+0x9e8>
9d00a4f8:	8fa20024 	lw	v0,36(sp)
9d00a4fc:	0082202b 	sltu	a0,a0,v0
9d00a500:	10800005 	beqz	a0,9d00a518 <__floatscan+0x9e8>
9d00a504:	8fa20018 	lw	v0,24(sp)
9d00a508:	0282b823 	subu	s7,s4,v0
9d00a50c:	26e20020 	addiu	v0,s7,32
9d00a510:	04400067 	bltz	v0,9d00a6b0 <__floatscan+0xb80>
9d00a514:	afa20020 	sw	v0,32(sp)
9d00a518:	8fa20020 	lw	v0,32(sp)
9d00a51c:	0000b025 	move	s6,zero
9d00a520:	28420035 	slti	v0,v0,53
9d00a524:	10400022 	beqz	v0,9d00a5b0 <__floatscan+0xa80>
9d00a528:	0000b825 	move	s7,zero
9d00a52c:	8fa20020 	lw	v0,32(sp)
9d00a530:	24060054 	li	a2,84
9d00a534:	00c23023 	subu	a2,a2,v0
9d00a538:	8fa20034 	lw	v0,52(sp)
9d00a53c:	8c4575d4 	lw	a1,30164(v0)
9d00a540:	0f40483d 	jal	9d0120f4 <scalbn>
9d00a544:	8c4475d0 	lw	a0,30160(v0)
9d00a548:	02202025 	move	a0,s1
9d00a54c:	0040b025 	move	s6,v0
9d00a550:	0f404d77 	jal	9d0135dc <__floatsidf>
9d00a554:	0060b825 	move	s7,v1
9d00a558:	00403025 	move	a2,v0
9d00a55c:	02c02025 	move	a0,s6
9d00a560:	02e02825 	move	a1,s7
9d00a564:	0f4051aa 	jal	9d0146a8 <copysignl>
9d00a568:	00603825 	move	a3,v1
9d00a56c:	0040b025 	move	s6,v0
9d00a570:	8fa20020 	lw	v0,32(sp)
9d00a574:	285e0020 	slti	s8,v0,32
9d00a578:	13c0000d 	beqz	s8,9d00a5b0 <__floatscan+0xa80>
9d00a57c:	0060b825 	move	s7,v1
9d00a580:	00003025 	move	a2,zero
9d00a584:	00003825 	move	a3,zero
9d00a588:	02402025 	move	a0,s2
9d00a58c:	0f404581 	jal	9d011604 <__eqdf2>
9d00a590:	02602825 	move	a1,s3
9d00a594:	10400006 	beqz	v0,9d00a5b0 <__floatscan+0xa80>
9d00a598:	32020001 	andi	v0,s0,0x1
9d00a59c:	14400004 	bnez	v0,9d00a5b0 <__floatscan+0xa80>
9d00a5a0:	00000000 	nop
9d00a5a4:	26100001 	addiu	s0,s0,1
9d00a5a8:	00009025 	move	s2,zero
9d00a5ac:	00009825 	move	s3,zero
9d00a5b0:	0f404d77 	jal	9d0135dc <__floatsidf>
9d00a5b4:	02202025 	move	a0,s1
9d00a5b8:	00602825 	move	a1,v1
9d00a5bc:	02403025 	move	a2,s2
9d00a5c0:	02603825 	move	a3,s3
9d00a5c4:	00402025 	move	a0,v0
9d00a5c8:	afa20018 	sw	v0,24(sp)
9d00a5cc:	0f403be4 	jal	9d00ef90 <__muldf3>
9d00a5d0:	afa3001c 	sw	v1,28(sp)
9d00a5d4:	02002025 	move	a0,s0
9d00a5d8:	00409025 	move	s2,v0
9d00a5dc:	0f40505b 	jal	9d01416c <__floatunsidf>
9d00a5e0:	00609825 	move	s3,v1
9d00a5e4:	8fa80018 	lw	t0,24(sp)
9d00a5e8:	8fa9001c 	lw	t1,28(sp)
9d00a5ec:	00402025 	move	a0,v0
9d00a5f0:	01003025 	move	a2,t0
9d00a5f4:	01203825 	move	a3,t1
9d00a5f8:	0f403be4 	jal	9d00ef90 <__muldf3>
9d00a5fc:	00602825 	move	a1,v1
9d00a600:	00402025 	move	a0,v0
9d00a604:	02c03025 	move	a2,s6
9d00a608:	02e03825 	move	a3,s7
9d00a60c:	0f40372a 	jal	9d00dca8 <__adddf3>
9d00a610:	00602825 	move	a1,v1
9d00a614:	00402025 	move	a0,v0
9d00a618:	02403025 	move	a2,s2
9d00a61c:	02603825 	move	a3,s3
9d00a620:	0f40372a 	jal	9d00dca8 <__adddf3>
9d00a624:	00602825 	move	a1,v1
9d00a628:	00402025 	move	a0,v0
9d00a62c:	02c03025 	move	a2,s6
9d00a630:	02e03825 	move	a3,s7
9d00a634:	0f403728 	jal	9d00dca0 <__subdf3>
9d00a638:	00602825 	move	a1,v1
9d00a63c:	00402025 	move	a0,v0
9d00a640:	00003025 	move	a2,zero
9d00a644:	00003825 	move	a3,zero
9d00a648:	00602825 	move	a1,v1
9d00a64c:	00408025 	move	s0,v0
9d00a650:	0f404581 	jal	9d011604 <__eqdf2>
9d00a654:	00608825 	move	s1,v1
9d00a658:	14400004 	bnez	v0,9d00a66c <__floatscan+0xb3c>
9d00a65c:	02803025 	move	a2,s4
9d00a660:	3c02a000 	lui	v0,0xa000
9d00a664:	24030022 	li	v1,34
9d00a668:	ac4353b4 	sw	v1,21428(v0)
9d00a66c:	02002025 	move	a0,s0
9d00a670:	0f405297 	jal	9d014a5c <scalbnl>
9d00a674:	02202825 	move	a1,s1
9d00a678:	1000fda0 	b	9d009cfc <__floatscan+0x1cc>
9d00a67c:	8fbf0074 	lw	ra,116(sp)
9d00a680:	02403025 	move	a2,s2
9d00a684:	1000ff82 	b	9d00a490 <__floatscan+0x960>
9d00a688:	02603825 	move	a3,s3
9d00a68c:	3c029d00 	lui	v0,0x9d00
9d00a690:	8c5675e8 	lw	s6,30184(v0)
9d00a694:	8c5775ec 	lw	s7,30188(v0)
9d00a698:	8fa20034 	lw	v0,52(sp)
9d00a69c:	8c4375d4 	lw	v1,30164(v0)
9d00a6a0:	8c4275d0 	lw	v0,30160(v0)
9d00a6a4:	afa3002c 	sw	v1,44(sp)
9d00a6a8:	1000ff83 	b	9d00a4b8 <__floatscan+0x988>
9d00a6ac:	afa20028 	sw	v0,40(sp)
9d00a6b0:	1000ff9e 	b	9d00a52c <__floatscan+0x9fc>
9d00a6b4:	afa00020 	sw	zero,32(sp)
9d00a6b8:	10600005 	beqz	v1,9d00a6d0 <__floatscan+0xba0>
9d00a6bc:	8fa70018 	lw	a3,24(sp)
9d00a6c0:	8e82003c 	lw	v0,60(s4)
9d00a6c4:	2442ffff 	addiu	v0,v0,-1
9d00a6c8:	ae82003c 	sw	v0,60(s4)
9d00a6cc:	8fa70018 	lw	a3,24(sp)
9d00a6d0:	8fa60024 	lw	a2,36(sp)
9d00a6d4:	afb60014 	sw	s6,20(sp)
9d00a6d8:	afb10010 	sw	s1,16(sp)
9d00a6dc:	02402825 	move	a1,s2
9d00a6e0:	0f40236f 	jal	9d008dbc <decfloat>
9d00a6e4:	02802025 	move	a0,s4
9d00a6e8:	1000fd84 	b	9d009cfc <__floatscan+0x1cc>
9d00a6ec:	8fbf0074 	lw	ra,116(sp)
9d00a6f0:	8c4375fc 	lw	v1,30204(v0)
9d00a6f4:	1000fd80 	b	9d009cf8 <__floatscan+0x1c8>
9d00a6f8:	8c4275f8 	lw	v0,30200(v0)
9d00a6fc:	16c0fdd7 	bnez	s6,9d009e5c <__floatscan+0x32c>
9d00a700:	00000000 	nop
9d00a704:	1000feea 	b	9d00a2b0 <__floatscan+0x780>
9d00a708:	00002825 	move	a1,zero
9d00a70c:	1460feed 	bnez	v1,9d00a2c4 <__floatscan+0x794>
9d00a710:	2402002e 	li	v0,46
9d00a714:	1000fdc9 	b	9d009e3c <__floatscan+0x30c>
9d00a718:	8e82004c 	lw	v0,76(s4)
9d00a71c:	03e00008 	jr	ra
9d00a720:	00000000 	nop

Disassembly of section .text.__fmt_fp:

9d00a724 <__fmt_fp>:
9d00a724:	27bdff78 	addiu	sp,sp,-136
9d00a728:	afa70094 	sw	a3,148(sp)
9d00a72c:	8ca20000 	lw	v0,0(a1)
9d00a730:	afb3006c 	sw	s3,108(sp)
9d00a734:	8cd30004 	lw	s3,4(a2)
9d00a738:	afa2001c 	sw	v0,28(sp)
9d00a73c:	8ca20008 	lw	v0,8(a1)
9d00a740:	afb10064 	sw	s1,100(sp)
9d00a744:	afb00060 	sw	s0,96(sp)
9d00a748:	afa20020 	sw	v0,32(sp)
9d00a74c:	8ca20010 	lw	v0,16(a1)
9d00a750:	afa40088 	sw	a0,136(sp)
9d00a754:	afa5008c 	sw	a1,140(sp)
9d00a758:	afa20034 	sw	v0,52(sp)
9d00a75c:	8cc20000 	lw	v0,0(a2)
9d00a760:	8cb10004 	lw	s1,4(a1)
9d00a764:	8cb0000c 	lw	s0,12(a1)
9d00a768:	afa20018 	sw	v0,24(sp)
9d00a76c:	8fa30018 	lw	v1,24(sp)
9d00a770:	00003025 	move	a2,zero
9d00a774:	00003825 	move	a3,zero
9d00a778:	00602025 	move	a0,v1
9d00a77c:	02602825 	move	a1,s3
9d00a780:	afbf0084 	sw	ra,132(sp)
9d00a784:	afbe0080 	sw	s8,128(sp)
9d00a788:	afb7007c 	sw	s7,124(sp)
9d00a78c:	afb60078 	sw	s6,120(sp)
9d00a790:	afb50074 	sw	s5,116(sp)
9d00a794:	afb40070 	sw	s4,112(sp)
9d00a798:	0f4045cc 	jal	9d011730 <dpcmplt>
9d00a79c:	afb20068 	sw	s2,104(sp)
9d00a7a0:	0440000d 	bltz	v0,9d00a7d8 <__fmt_fp+0xb4>
9d00a7a4:	3c028000 	lui	v0,0x8000
9d00a7a8:	8fa2001c 	lw	v0,28(sp)
9d00a7ac:	30420004 	andi	v0,v0,0x4
9d00a7b0:	14400037 	bnez	v0,9d00a890 <__fmt_fp+0x16c>
9d00a7b4:	8fb20020 	lw	s2,32(sp)
9d00a7b8:	8fa2001c 	lw	v0,28(sp)
9d00a7bc:	30420008 	andi	v0,v0,0x8
9d00a7c0:	1040000c 	beqz	v0,9d00a7f4 <__fmt_fp+0xd0>
9d00a7c4:	afa20024 	sw	v0,36(sp)
9d00a7c8:	24020020 	li	v0,32
9d00a7cc:	a2020000 	sb	v0,0(s0)
9d00a7d0:	10000006 	b	9d00a7ec <__fmt_fp+0xc8>
9d00a7d4:	2652ffff 	addiu	s2,s2,-1
9d00a7d8:	00539826 	xor	s3,v0,s3
9d00a7dc:	2402002d 	li	v0,45
9d00a7e0:	a2020000 	sb	v0,0(s0)
9d00a7e4:	8fa20020 	lw	v0,32(sp)
9d00a7e8:	2452ffff 	addiu	s2,v0,-1
9d00a7ec:	24020001 	li	v0,1
9d00a7f0:	afa20024 	sw	v0,36(sp)
9d00a7f4:	8fa30024 	lw	v1,36(sp)
9d00a7f8:	02031821 	addu	v1,s0,v1
9d00a7fc:	afa3002c 	sw	v1,44(sp)
9d00a800:	8fa30018 	lw	v1,24(sp)
9d00a804:	14600026 	bnez	v1,9d00a8a0 <__fmt_fp+0x17c>
9d00a808:	7e62f000 	ext	v0,s3,0x0,0x1f
9d00a80c:	3c037ff0 	lui	v1,0x7ff0
9d00a810:	14430024 	bne	v0,v1,9d00a8a4 <__fmt_fp+0x180>
9d00a814:	3c047ff0 	lui	a0,0x7ff0
9d00a818:	8fa20094 	lw	v0,148(sp)
9d00a81c:	2442ffbf 	addiu	v0,v0,-65
9d00a820:	2c42001a 	sltiu	v0,v0,26
9d00a824:	1040001c 	beqz	v0,9d00a898 <__fmt_fp+0x174>
9d00a828:	3c059d00 	lui	a1,0x9d00
9d00a82c:	3c059d00 	lui	a1,0x9d00
9d00a830:	24a57560 	addiu	a1,a1,30048
9d00a834:	0f4051e8 	jal	9d0147a0 <strcpy>
9d00a838:	8fa4002c 	lw	a0,44(sp)
9d00a83c:	0f405124 	jal	9d014490 <strlen>
9d00a840:	02002025 	move	a0,s0
9d00a844:	8fa3001c 	lw	v1,28(sp)
9d00a848:	8fa70020 	lw	a3,32(sp)
9d00a84c:	8fa40088 	lw	a0,136(sp)
9d00a850:	afa30010 	sw	v1,16(sp)
9d00a854:	02002825 	move	a1,s0
9d00a858:	0f4047bd 	jal	9d011ef4 <__pad>
9d00a85c:	00403025 	move	a2,v0
9d00a860:	8fbf0084 	lw	ra,132(sp)
9d00a864:	8fbe0080 	lw	s8,128(sp)
9d00a868:	8fb7007c 	lw	s7,124(sp)
9d00a86c:	8fb60078 	lw	s6,120(sp)
9d00a870:	8fb50074 	lw	s5,116(sp)
9d00a874:	8fb40070 	lw	s4,112(sp)
9d00a878:	8fb3006c 	lw	s3,108(sp)
9d00a87c:	8fb20068 	lw	s2,104(sp)
9d00a880:	8fb10064 	lw	s1,100(sp)
9d00a884:	8fb00060 	lw	s0,96(sp)
9d00a888:	03e00008 	jr	ra
9d00a88c:	27bd0088 	addiu	sp,sp,136
9d00a890:	1000ffd3 	b	9d00a7e0 <__fmt_fp+0xbc>
9d00a894:	2402002b 	li	v0,43
9d00a898:	1000ffe6 	b	9d00a834 <__fmt_fp+0x110>
9d00a89c:	24a57564 	addiu	a1,a1,30052
9d00a8a0:	3c047ff0 	lui	a0,0x7ff0
9d00a8a4:	24830001 	addiu	v1,a0,1
9d00a8a8:	0043182b 	sltu	v1,v0,v1
9d00a8ac:	50600005 	beqzl	v1,9d00a8c4 <__fmt_fp+0x1a0>
9d00a8b0:	8fa20094 	lw	v0,148(sp)
9d00a8b4:	1444000c 	bne	v0,a0,9d00a8e8 <__fmt_fp+0x1c4>
9d00a8b8:	8fa20018 	lw	v0,24(sp)
9d00a8bc:	1040000a 	beqz	v0,9d00a8e8 <__fmt_fp+0x1c4>
9d00a8c0:	8fa20094 	lw	v0,148(sp)
9d00a8c4:	2442ffbf 	addiu	v0,v0,-65
9d00a8c8:	2c42001a 	sltiu	v0,v0,26
9d00a8cc:	50400004 	beqzl	v0,9d00a8e0 <__fmt_fp+0x1bc>
9d00a8d0:	3c059d00 	lui	a1,0x9d00
9d00a8d4:	3c059d00 	lui	a1,0x9d00
9d00a8d8:	1000ffd6 	b	9d00a834 <__fmt_fp+0x110>
9d00a8dc:	24a57568 	addiu	a1,a1,30056
9d00a8e0:	1000ffd4 	b	9d00a834 <__fmt_fp+0x110>
9d00a8e4:	24a5756c 	addiu	a1,a1,30060
9d00a8e8:	8fa30018 	lw	v1,24(sp)
9d00a8ec:	00003025 	move	a2,zero
9d00a8f0:	00003825 	move	a3,zero
9d00a8f4:	00602025 	move	a0,v1
9d00a8f8:	0f404581 	jal	9d011604 <__eqdf2>
9d00a8fc:	02602825 	move	a1,s3
9d00a900:	3c179d00 	lui	s7,0x9d00
9d00a904:	3c039d00 	lui	v1,0x9d00
9d00a908:	afa30030 	sw	v1,48(sp)
9d00a90c:	8ef57570 	lw	s5,30064(s7)
9d00a910:	8ef67574 	lw	s6,30068(s7)
9d00a914:	14400013 	bnez	v0,9d00a964 <__fmt_fp+0x240>
9d00a918:	0000a025 	move	s4,zero
9d00a91c:	0f405251 	jal	9d014944 <tolower>
9d00a920:	8fa40094 	lw	a0,148(sp)
9d00a924:	7c021420 	seb	v0,v0
9d00a928:	afa20028 	sw	v0,40(sp)
9d00a92c:	8fa30028 	lw	v1,40(sp)
9d00a930:	062001a5 	bltz	s1,9d00afc8 <__fmt_fp+0x8a4>
9d00a934:	24020067 	li	v0,103
9d00a938:	14620057 	bne	v1,v0,9d00aa98 <__fmt_fp+0x374>
9d00a93c:	8fa90028 	lw	t1,40(sp)
9d00a940:	52200001 	beqzl	s1,9d00a948 <__fmt_fp+0x224>
9d00a944:	24110001 	li	s1,1
9d00a948:	2a82fffc 	slti	v0,s4,-4
9d00a94c:	14400003 	bnez	v0,9d00a95c <__fmt_fp+0x238>
9d00a950:	0291102a 	slt	v0,s4,s1
9d00a954:	14400196 	bnez	v0,9d00afb0 <__fmt_fp+0x88c>
9d00a958:	00000000 	nop
9d00a95c:	1000005a 	b	9d00aac8 <__fmt_fp+0x3a4>
9d00a960:	24090065 	li	t1,101
9d00a964:	3c029d00 	lui	v0,0x9d00
9d00a968:	8c4a7578 	lw	t2,30072(v0)
9d00a96c:	8c4b757c 	lw	t3,30076(v0)
9d00a970:	01403025 	move	a2,t2
9d00a974:	01603825 	move	a3,t3
9d00a978:	02a02025 	move	a0,s5
9d00a97c:	02c02825 	move	a1,s6
9d00a980:	afaa0038 	sw	t2,56(sp)
9d00a984:	0f403be4 	jal	9d00ef90 <__muldf3>
9d00a988:	afab003c 	sw	t3,60(sp)
9d00a98c:	8fa40018 	lw	a0,24(sp)
9d00a990:	02603825 	move	a3,s3
9d00a994:	00602825 	move	a1,v1
9d00a998:	00803025 	move	a2,a0
9d00a99c:	00402025 	move	a0,v0
9d00a9a0:	0040f025 	move	s8,v0
9d00a9a4:	0f404581 	jal	9d011604 <__eqdf2>
9d00a9a8:	afa30028 	sw	v1,40(sp)
9d00a9ac:	1c40002d 	bgtz	v0,9d00aa64 <__fmt_fp+0x340>
9d00a9b0:	8fa30028 	lw	v1,40(sp)
9d00a9b4:	8faa0038 	lw	t2,56(sp)
9d00a9b8:	8fab003c 	lw	t3,60(sp)
9d00a9bc:	26940001 	addiu	s4,s4,1
9d00a9c0:	03c0a825 	move	s5,s8
9d00a9c4:	1000ffea 	b	9d00a970 <__fmt_fp+0x24c>
9d00a9c8:	0060b025 	move	s6,v1
9d00a9cc:	10400013 	beqz	v0,9d00aa1c <__fmt_fp+0x2f8>
9d00a9d0:	8fa20028 	lw	v0,40(sp)
9d00a9d4:	14400011 	bnez	v0,9d00aa1c <__fmt_fp+0x2f8>
9d00a9d8:	8fa30018 	lw	v1,24(sp)
9d00a9dc:	8fa60038 	lw	a2,56(sp)
9d00a9e0:	02602825 	move	a1,s3
9d00a9e4:	03c03825 	move	a3,s8
9d00a9e8:	0f403be4 	jal	9d00ef90 <__muldf3>
9d00a9ec:	00602025 	move	a0,v1
9d00a9f0:	8fa60048 	lw	a2,72(sp)
9d00a9f4:	8fa70050 	lw	a3,80(sp)
9d00a9f8:	02a02025 	move	a0,s5
9d00a9fc:	02c02825 	move	a1,s6
9d00aa00:	afa20018 	sw	v0,24(sp)
9d00aa04:	0f403be4 	jal	9d00ef90 <__muldf3>
9d00aa08:	00609825 	move	s3,v1
9d00aa0c:	0040a825 	move	s5,v0
9d00aa10:	24020001 	li	v0,1
9d00aa14:	0060b025 	move	s6,v1
9d00aa18:	afa20028 	sw	v0,40(sp)
9d00aa1c:	8fa60040 	lw	a2,64(sp)
9d00aa20:	8fa70044 	lw	a3,68(sp)
9d00aa24:	02a02025 	move	a0,s5
9d00aa28:	0f4032c7 	jal	9d00cb1c <__divdf3>
9d00aa2c:	02c02825 	move	a1,s6
9d00aa30:	0040a825 	move	s5,v0
9d00aa34:	0060b025 	move	s6,v1
9d00aa38:	2694ffff 	addiu	s4,s4,-1
9d00aa3c:	8fa30018 	lw	v1,24(sp)
9d00aa40:	02a03025 	move	a2,s5
9d00aa44:	02c03825 	move	a3,s6
9d00aa48:	00602025 	move	a0,v1
9d00aa4c:	0f4045cc 	jal	9d011730 <dpcmplt>
9d00aa50:	02602825 	move	a1,s3
9d00aa54:	0442ffdd 	bltzl	v0,9d00a9cc <__fmt_fp+0x2a8>
9d00aa58:	2a82fed4 	slti	v0,s4,-300
9d00aa5c:	1000ffaf 	b	9d00a91c <__fmt_fp+0x1f8>
9d00aa60:	00000000 	nop
9d00aa64:	3c029d00 	lui	v0,0x9d00
9d00aa68:	8c437580 	lw	v1,30080(v0)
9d00aa6c:	8c5e7584 	lw	s8,30084(v0)
9d00aa70:	8fa20030 	lw	v0,48(sp)
9d00aa74:	afa30038 	sw	v1,56(sp)
9d00aa78:	afa30048 	sw	v1,72(sp)
9d00aa7c:	8c43757c 	lw	v1,30076(v0)
9d00aa80:	8c427578 	lw	v0,30072(v0)
9d00aa84:	afa00028 	sw	zero,40(sp)
9d00aa88:	afbe0050 	sw	s8,80(sp)
9d00aa8c:	afa20040 	sw	v0,64(sp)
9d00aa90:	1000ffea 	b	9d00aa3c <__fmt_fp+0x318>
9d00aa94:	afa30044 	sw	v1,68(sp)
9d00aa98:	24020066 	li	v0,102
9d00aa9c:	1522000a 	bne	t1,v0,9d00aac8 <__fmt_fp+0x3a4>
9d00aaa0:	26310001 	addiu	s1,s1,1
9d00aaa4:	06810004 	bgez	s4,9d00aab8 <__fmt_fp+0x394>
9d00aaa8:	8fa30028 	lw	v1,40(sp)
9d00aaac:	8ef57570 	lw	s5,30064(s7)
9d00aab0:	8ef67574 	lw	s6,30068(s7)
9d00aab4:	0000a025 	move	s4,zero
9d00aab8:	24020067 	li	v0,103
9d00aabc:	10620002 	beq	v1,v0,9d00aac8 <__fmt_fp+0x3a4>
9d00aac0:	24090066 	li	t1,102
9d00aac4:	02348821 	addu	s1,s1,s4
9d00aac8:	8fac0018 	lw	t4,24(sp)
9d00aacc:	02a05825 	move	t3,s5
9d00aad0:	02c05025 	move	t2,s6
9d00aad4:	0260b825 	move	s7,s3
9d00aad8:	00007025 	move	t6,zero
9d00aadc:	01603025 	move	a2,t3
9d00aae0:	01403825 	move	a3,t2
9d00aae4:	01802025 	move	a0,t4
9d00aae8:	02e02825 	move	a1,s7
9d00aaec:	afa9005c 	sw	t1,92(sp)
9d00aaf0:	afae0058 	sw	t6,88(sp)
9d00aaf4:	afab0050 	sw	t3,80(sp)
9d00aaf8:	afaa0054 	sw	t2,84(sp)
9d00aafc:	0f4032c7 	jal	9d00cb1c <__divdf3>
9d00ab00:	afac0048 	sw	t4,72(sp)
9d00ab04:	00402025 	move	a0,v0
9d00ab08:	0f40477b 	jal	9d011dec <dpfloor>
9d00ab0c:	00602825 	move	a1,v1
9d00ab10:	00602825 	move	a1,v1
9d00ab14:	00402025 	move	a0,v0
9d00ab18:	afa30044 	sw	v1,68(sp)
9d00ab1c:	0f404c0c 	jal	9d013030 <__fixdfsi>
9d00ab20:	afa20040 	sw	v0,64(sp)
9d00ab24:	8fac0040 	lw	t4,64(sp)
9d00ab28:	8faf0048 	lw	t7,72(sp)
9d00ab2c:	8faa0054 	lw	t2,84(sp)
9d00ab30:	8fab0050 	lw	t3,80(sp)
9d00ab34:	8fad0044 	lw	t5,68(sp)
9d00ab38:	02e0f025 	move	s8,s7
9d00ab3c:	3c178000 	lui	s7,0x8000
9d00ab40:	02fe2026 	xor	a0,s7,s8
9d00ab44:	01603025 	move	a2,t3
9d00ab48:	01403825 	move	a3,t2
9d00ab4c:	01a02825 	move	a1,t5
9d00ab50:	afaf0010 	sw	t7,16(sp)
9d00ab54:	afa40014 	sw	a0,20(sp)
9d00ab58:	01802025 	move	a0,t4
9d00ab5c:	afaa0048 	sw	t2,72(sp)
9d00ab60:	0f402dca 	jal	9d00b728 <fma>
9d00ab64:	afa20038 	sw	v0,56(sp)
9d00ab68:	afa20040 	sw	v0,64(sp)
9d00ab6c:	0040f025 	move	s8,v0
9d00ab70:	8fa20030 	lw	v0,48(sp)
9d00ab74:	8fab0050 	lw	t3,80(sp)
9d00ab78:	8faa0048 	lw	t2,72(sp)
9d00ab7c:	8c467578 	lw	a2,30072(v0)
9d00ab80:	8c47757c 	lw	a3,30076(v0)
9d00ab84:	01602025 	move	a0,t3
9d00ab88:	01402825 	move	a1,t2
9d00ab8c:	0f4032c7 	jal	9d00cb1c <__divdf3>
9d00ab90:	02e3b826 	xor	s7,s7,v1
9d00ab94:	8fae0058 	lw	t6,88(sp)
9d00ab98:	00405825 	move	t3,v0
9d00ab9c:	00605025 	move	t2,v1
9d00aba0:	25ce0001 	addiu	t6,t6,1
9d00aba4:	8fac0040 	lw	t4,64(sp)
9d00aba8:	162effcc 	bne	s1,t6,9d00aadc <__fmt_fp+0x3b8>
9d00abac:	8fa9005c 	lw	t1,92(sp)
9d00abb0:	3c029d00 	lui	v0,0x9d00
9d00abb4:	8c467588 	lw	a2,30088(v0)
9d00abb8:	8c47758c 	lw	a3,30092(v0)
9d00abbc:	01602025 	move	a0,t3
9d00abc0:	00602825 	move	a1,v1
9d00abc4:	0f403be4 	jal	9d00ef90 <__muldf3>
9d00abc8:	afa90048 	sw	t1,72(sp)
9d00abcc:	00403025 	move	a2,v0
9d00abd0:	00603825 	move	a3,v1
9d00abd4:	03c02025 	move	a0,s8
9d00abd8:	02e02825 	move	a1,s7
9d00abdc:	afa20040 	sw	v0,64(sp)
9d00abe0:	0f4045cc 	jal	9d011730 <dpcmplt>
9d00abe4:	afa30044 	sw	v1,68(sp)
9d00abe8:	04400010 	bltz	v0,9d00ac2c <__fmt_fp+0x508>
9d00abec:	8fa90048 	lw	t1,72(sp)
9d00abf0:	8faa0040 	lw	t2,64(sp)
9d00abf4:	8fab0044 	lw	t3,68(sp)
9d00abf8:	03c02025 	move	a0,s8
9d00abfc:	01403025 	move	a2,t2
9d00ac00:	01603825 	move	a3,t3
9d00ac04:	0f404581 	jal	9d011604 <__eqdf2>
9d00ac08:	02e02825 	move	a1,s7
9d00ac0c:	8faa0040 	lw	t2,64(sp)
9d00ac10:	8fab0044 	lw	t3,68(sp)
9d00ac14:	14400007 	bnez	v0,9d00ac34 <__fmt_fp+0x510>
9d00ac18:	8fa90048 	lw	t1,72(sp)
9d00ac1c:	8fa20038 	lw	v0,56(sp)
9d00ac20:	30420001 	andi	v0,v0,0x1
9d00ac24:	14400004 	bnez	v0,9d00ac38 <__fmt_fp+0x514>
9d00ac28:	8fa30018 	lw	v1,24(sp)
9d00ac2c:	00005025 	move	t2,zero
9d00ac30:	00005825 	move	t3,zero
9d00ac34:	8fa30018 	lw	v1,24(sp)
9d00ac38:	01403025 	move	a2,t2
9d00ac3c:	01603825 	move	a3,t3
9d00ac40:	02602825 	move	a1,s3
9d00ac44:	00602025 	move	a0,v1
9d00ac48:	0f40372a 	jal	9d00dca8 <__adddf3>
9d00ac4c:	afa90048 	sw	t1,72(sp)
9d00ac50:	0040f025 	move	s8,v0
9d00ac54:	afa20018 	sw	v0,24(sp)
9d00ac58:	8fa20030 	lw	v0,48(sp)
9d00ac5c:	02a02025 	move	a0,s5
9d00ac60:	02c02825 	move	a1,s6
9d00ac64:	8c467578 	lw	a2,30072(v0)
9d00ac68:	8c47757c 	lw	a3,30076(v0)
9d00ac6c:	0060b825 	move	s7,v1
9d00ac70:	0f403be4 	jal	9d00ef90 <__muldf3>
9d00ac74:	afa30038 	sw	v1,56(sp)
9d00ac78:	00402025 	move	a0,v0
9d00ac7c:	03c03025 	move	a2,s8
9d00ac80:	02e03825 	move	a3,s7
9d00ac84:	00602825 	move	a1,v1
9d00ac88:	00409825 	move	s3,v0
9d00ac8c:	0f4045cc 	jal	9d011730 <dpcmplt>
9d00ac90:	afa30040 	sw	v1,64(sp)
9d00ac94:	1c400054 	bgtz	v0,9d00ade8 <__fmt_fp+0x6c4>
9d00ac98:	8fa90048 	lw	t1,72(sp)
9d00ac9c:	24020066 	li	v0,102
9d00aca0:	26940001 	addiu	s4,s4,1
9d00aca4:	15220052 	bne	t1,v0,9d00adf0 <__fmt_fp+0x6cc>
9d00aca8:	8fab0040 	lw	t3,64(sp)
9d00acac:	26310001 	addiu	s1,s1,1
9d00acb0:	0280b025 	move	s6,s4
9d00acb4:	8fb50024 	lw	s5,36(sp)
9d00acb8:	02d11023 	subu	v0,s6,s1
9d00acbc:	afa20040 	sw	v0,64(sp)
9d00acc0:	0000f025 	move	s8,zero
9d00acc4:	00008825 	move	s1,zero
9d00acc8:	8fa20040 	lw	v0,64(sp)
9d00accc:	10560007 	beq	v0,s6,9d00acec <__fmt_fp+0x5c8>
9d00acd0:	02a0b825 	move	s7,s5
9d00acd4:	8fa2008c 	lw	v0,140(sp)
9d00acd8:	8c420010 	lw	v0,16(v0)
9d00acdc:	2442fffb 	addiu	v0,v0,-5
9d00ace0:	02a2102b 	sltu	v0,s5,v0
9d00ace4:	14400047 	bnez	v0,9d00ae04 <__fmt_fp+0x6e0>
9d00ace8:	8fa30018 	lw	v1,24(sp)
9d00acec:	16200007 	bnez	s1,9d00ad0c <__fmt_fp+0x5e8>
9d00acf0:	8fa2001c 	lw	v0,28(sp)
9d00acf4:	30420010 	andi	v0,v0,0x10
9d00acf8:	10400004 	beqz	v0,9d00ad0c <__fmt_fp+0x5e8>
9d00acfc:	0217b821 	addu	s7,s0,s7
9d00ad00:	2402002e 	li	v0,46
9d00ad04:	26b50001 	addiu	s5,s5,1
9d00ad08:	a2e20000 	sb	v0,0(s7)
9d00ad0c:	02152021 	addu	a0,s0,s5
9d00ad10:	24020065 	li	v0,101
9d00ad14:	15220022 	bne	t1,v0,9d00ada0 <__fmt_fp+0x67c>
9d00ad18:	a0800000 	sb	zero,0(a0)
9d00ad1c:	06810003 	bgez	s4,9d00ad2c <__fmt_fp+0x608>
9d00ad20:	00001825 	move	v1,zero
9d00ad24:	0014a023 	negu	s4,s4
9d00ad28:	24030001 	li	v1,1
9d00ad2c:	8fa20034 	lw	v0,52(sp)
9d00ad30:	264afffe 	addiu	t2,s2,-2
9d00ad34:	2407000a 	li	a3,10
9d00ad38:	2442ffff 	addiu	v0,v0,-1
9d00ad3c:	02022821 	addu	a1,s0,v0
9d00ad40:	a0a00000 	sb	zero,0(a1)
9d00ad44:	24050002 	li	a1,2
9d00ad48:	16800088 	bnez	s4,9d00af6c <__fmt_fp+0x848>
9d00ad4c:	01459021 	addu	s2,t2,a1
9d00ad50:	1ca00086 	bgtz	a1,9d00af6c <__fmt_fp+0x848>
9d00ad54:	2406002d 	li	a2,45
9d00ad58:	2405002b 	li	a1,43
9d00ad5c:	00c3280b 	movn	a1,a2,v1
9d00ad60:	00a01825 	move	v1,a1
9d00ad64:	02022821 	addu	a1,s0,v0
9d00ad68:	a0a3ffff 	sb	v1,-1(a1)
9d00ad6c:	8fa30094 	lw	v1,148(sp)
9d00ad70:	24050045 	li	a1,69
9d00ad74:	2442fffe 	addiu	v0,v0,-2
9d00ad78:	2463ffbf 	addiu	v1,v1,-65
9d00ad7c:	2c63001a 	sltiu	v1,v1,26
9d00ad80:	00a3480b 	movn	t1,a1,v1
9d00ad84:	02a2a82a 	slt	s5,s5,v0
9d00ad88:	02022821 	addu	a1,s0,v0
9d00ad8c:	a0a90000 	sb	t1,0(a1)
9d00ad90:	12a00003 	beqz	s5,9d00ada0 <__fmt_fp+0x67c>
9d00ad94:	2652fffe 	addiu	s2,s2,-2
9d00ad98:	0f4051e8 	jal	9d0147a0 <strcpy>
9d00ad9c:	00000000 	nop
9d00ada0:	8fa2001c 	lw	v0,28(sp)
9d00ada4:	24030002 	li	v1,2
9d00ada8:	30420003 	andi	v0,v0,0x3
9d00adac:	1443fea3 	bne	v0,v1,9d00a83c <__fmt_fp+0x118>
9d00adb0:	00000000 	nop
9d00adb4:	1a40fea1 	blez	s2,9d00a83c <__fmt_fp+0x118>
9d00adb8:	00000000 	nop
9d00adbc:	0f405124 	jal	9d014490 <strlen>
9d00adc0:	02002025 	move	a0,s0
9d00adc4:	8fa30024 	lw	v1,36(sp)
9d00adc8:	0043182a 	slt	v1,v0,v1
9d00adcc:	10600071 	beqz	v1,9d00af94 <__fmt_fp+0x870>
9d00add0:	02403025 	move	a2,s2
9d00add4:	8fa4002c 	lw	a0,44(sp)
9d00add8:	0f4051de 	jal	9d014778 <memset>
9d00addc:	24050030 	li	a1,48
9d00ade0:	1000fe96 	b	9d00a83c <__fmt_fp+0x118>
9d00ade4:	afa00020 	sw	zero,32(sp)
9d00ade8:	02a09825 	move	s3,s5
9d00adec:	02c05825 	move	t3,s6
9d00adf0:	39360065 	xori	s6,t1,0x65
9d00adf4:	02801025 	move	v0,s4
9d00adf8:	0016100a 	movz	v0,zero,s6
9d00adfc:	1000ffad 	b	9d00acb4 <__fmt_fp+0x590>
9d00ae00:	0040b025 	move	s6,v0
9d00ae04:	8fa20038 	lw	v0,56(sp)
9d00ae08:	01603825 	move	a3,t3
9d00ae0c:	02603025 	move	a2,s3
9d00ae10:	00602025 	move	a0,v1
9d00ae14:	00402825 	move	a1,v0
9d00ae18:	afa90054 	sw	t1,84(sp)
9d00ae1c:	0f4032c7 	jal	9d00cb1c <__divdf3>
9d00ae20:	afab0050 	sw	t3,80(sp)
9d00ae24:	00402025 	move	a0,v0
9d00ae28:	0f40477b 	jal	9d011dec <dpfloor>
9d00ae2c:	00602825 	move	a1,v1
9d00ae30:	00402025 	move	a0,v0
9d00ae34:	00602825 	move	a1,v1
9d00ae38:	afa3004c 	sw	v1,76(sp)
9d00ae3c:	0f404c0c 	jal	9d013030 <__fixdfsi>
9d00ae40:	afa20048 	sw	v0,72(sp)
9d00ae44:	2844000a 	slti	a0,v0,10
9d00ae48:	24030009 	li	v1,9
9d00ae4c:	0064100a 	movz	v0,v1,a0
9d00ae50:	8fa3001c 	lw	v1,28(sp)
9d00ae54:	8fae0048 	lw	t6,72(sp)
9d00ae58:	8faf004c 	lw	t7,76(sp)
9d00ae5c:	30630010 	andi	v1,v1,0x10
9d00ae60:	00621825 	or	v1,v1,v0
9d00ae64:	8fab0050 	lw	t3,80(sp)
9d00ae68:	1460000c 	bnez	v1,9d00ae9c <__fmt_fp+0x778>
9d00ae6c:	8fa90054 	lw	t1,84(sp)
9d00ae70:	8fa40028 	lw	a0,40(sp)
9d00ae74:	24030067 	li	v1,103
9d00ae78:	14830008 	bne	a0,v1,9d00ae9c <__fmt_fp+0x778>
9d00ae7c:	00000000 	nop
9d00ae80:	06c0001d 	bltz	s6,9d00aef8 <__fmt_fp+0x7d4>
9d00ae84:	27d70001 	addiu	s7,s8,1
9d00ae88:	02a01825 	move	v1,s5
9d00ae8c:	02152021 	addu	a0,s0,s5
9d00ae90:	03c0b825 	move	s7,s8
9d00ae94:	1000000e 	b	9d00aed0 <__fmt_fp+0x7ac>
9d00ae98:	24050030 	li	a1,48
9d00ae9c:	1620fffb 	bnez	s1,9d00ae8c <__fmt_fp+0x768>
9d00aea0:	02a01825 	move	v1,s5
9d00aea4:	06c3fffa 	bgezl	s6,9d00ae90 <__fmt_fp+0x76c>
9d00aea8:	02152021 	addu	a0,s0,s5
9d00aeac:	0217b821 	addu	s7,s0,s7
9d00aeb0:	2403002e 	li	v1,46
9d00aeb4:	26b50001 	addiu	s5,s5,1
9d00aeb8:	2652ffff 	addiu	s2,s2,-1
9d00aebc:	a2e30000 	sb	v1,0(s7)
9d00aec0:	1000fff1 	b	9d00ae88 <__fmt_fp+0x764>
9d00aec4:	24110001 	li	s1,1
9d00aec8:	26f7ffff 	addiu	s7,s7,-1
9d00aecc:	24840001 	addiu	a0,a0,1
9d00aed0:	56e0fffd 	bnezl	s7,9d00aec8 <__fmt_fp+0x7a4>
9d00aed4:	a0850000 	sb	a1,0(a0)
9d00aed8:	2652ffff 	addiu	s2,s2,-1
9d00aedc:	26b50001 	addiu	s5,s5,1
9d00aee0:	02031821 	addu	v1,s0,v1
9d00aee4:	025e9023 	subu	s2,s2,s8
9d00aee8:	02bea821 	addu	s5,s5,s8
9d00aeec:	24420030 	addiu	v0,v0,48
9d00aef0:	007ef021 	addu	s8,v1,s8
9d00aef4:	a3c20000 	sb	v0,0(s8)
9d00aef8:	8fa20038 	lw	v0,56(sp)
9d00aefc:	8fa50018 	lw	a1,24(sp)
9d00af00:	3c1e8000 	lui	s8,0x8000
9d00af04:	03c22026 	xor	a0,s8,v0
9d00af08:	02603025 	move	a2,s3
9d00af0c:	01603825 	move	a3,t3
9d00af10:	afa50010 	sw	a1,16(sp)
9d00af14:	afa40014 	sw	a0,20(sp)
9d00af18:	01e02825 	move	a1,t7
9d00af1c:	01c02025 	move	a0,t6
9d00af20:	afa90050 	sw	t1,80(sp)
9d00af24:	0f402dca 	jal	9d00b728 <fma>
9d00af28:	afab0048 	sw	t3,72(sp)
9d00af2c:	afa20018 	sw	v0,24(sp)
9d00af30:	03c31026 	xor	v0,s8,v1
9d00af34:	afa20038 	sw	v0,56(sp)
9d00af38:	8fa20030 	lw	v0,48(sp)
9d00af3c:	8fab0048 	lw	t3,72(sp)
9d00af40:	02602025 	move	a0,s3
9d00af44:	8c467578 	lw	a2,30072(v0)
9d00af48:	8c47757c 	lw	a3,30076(v0)
9d00af4c:	01602825 	move	a1,t3
9d00af50:	0f4032c7 	jal	9d00cb1c <__divdf3>
9d00af54:	26d6ffff 	addiu	s6,s6,-1
9d00af58:	00409825 	move	s3,v0
9d00af5c:	00605825 	move	t3,v1
9d00af60:	02e0f025 	move	s8,s7
9d00af64:	1000ff58 	b	9d00acc8 <__fmt_fp+0x5a4>
9d00af68:	8fa90050 	lw	t1,80(sp)
9d00af6c:	0287001a 	div	zero,s4,a3
9d00af70:	00e001f4 	teq	a3,zero,0x7
9d00af74:	2442ffff 	addiu	v0,v0,-1
9d00af78:	02025821 	addu	t3,s0,v0
9d00af7c:	24a5ffff 	addiu	a1,a1,-1
9d00af80:	00003010 	mfhi	a2
9d00af84:	24c60030 	addiu	a2,a2,48
9d00af88:	a1660000 	sb	a2,0(t3)
9d00af8c:	1000ff6e 	b	9d00ad48 <__fmt_fp+0x624>
9d00af90:	0000a012 	mflo	s4
9d00af94:	02021821 	addu	v1,s0,v0
9d00af98:	80640000 	lb	a0,0(v1)
9d00af9c:	02421821 	addu	v1,s2,v0
9d00afa0:	02031821 	addu	v1,s0,v1
9d00afa4:	a0640000 	sb	a0,0(v1)
9d00afa8:	1000ff86 	b	9d00adc4 <__fmt_fp+0x6a0>
9d00afac:	2442ffff 	addiu	v0,v0,-1
9d00afb0:	0681fec1 	bgez	s4,9d00aab8 <__fmt_fp+0x394>
9d00afb4:	8fa30028 	lw	v1,40(sp)
9d00afb8:	1000feb7 	b	9d00aa98 <__fmt_fp+0x374>
9d00afbc:	24090066 	li	t1,102
9d00afc0:	1000fe61 	b	9d00a948 <__fmt_fp+0x224>
9d00afc4:	24110006 	li	s1,6
9d00afc8:	1062fe5f 	beq	v1,v0,9d00a948 <__fmt_fp+0x224>
9d00afcc:	24110006 	li	s1,6
9d00afd0:	1000feb1 	b	9d00aa98 <__fmt_fp+0x374>
9d00afd4:	00604825 	move	t1,v1

Disassembly of section .text.__scanf_core:

9d00afd8 <__scanf_core>:
9d00afd8:	27bdfe20 	addiu	sp,sp,-480
9d00afdc:	afb601d4 	sw	s6,468(sp)
9d00afe0:	afb501d0 	sw	s5,464(sp)
9d00afe4:	afb201c4 	sw	s2,452(sp)
9d00afe8:	afb001bc 	sw	s0,444(sp)
9d00afec:	afbf01dc 	sw	ra,476(sp)
9d00aff0:	afb701d8 	sw	s7,472(sp)
9d00aff4:	afb401cc 	sw	s4,460(sp)
9d00aff8:	afb301c8 	sw	s3,456(sp)
9d00affc:	afb101c0 	sw	s1,448(sp)
9d00b000:	00808025 	move	s0,a0
9d00b004:	00c09025 	move	s2,a2
9d00b008:	afa501b4 	sw	a1,436(sp)
9d00b00c:	afa001b0 	sw	zero,432(sp)
9d00b010:	0000a825 	move	s5,zero
9d00b014:	27b6011c 	addiu	s6,sp,284
9d00b018:	8fa201b4 	lw	v0,436(sp)
9d00b01c:	80420000 	lb	v0,0(v0)
9d00b020:	1040005a 	beqz	v0,9d00b18c <__scanf_core+0x1b4>
9d00b024:	24020080 	li	v0,128
9d00b028:	27a501b4 	addiu	a1,sp,436
9d00b02c:	02002025 	move	a0,s0
9d00b030:	afa0019c 	sw	zero,412(sp)
9d00b034:	afa001a0 	sw	zero,416(sp)
9d00b038:	afa001a4 	sw	zero,420(sp)
9d00b03c:	afb601a8 	sw	s6,424(sp)
9d00b040:	0f404deb 	jal	9d0137ac <__consumews>
9d00b044:	afa201ac 	sw	v0,428(sp)
9d00b048:	00408825 	move	s1,v0
9d00b04c:	8fa301b4 	lw	v1,436(sp)
9d00b050:	80620000 	lb	v0,0(v1)
9d00b054:	10400003 	beqz	v0,9d00b064 <__scanf_core+0x8c>
9d00b058:	24040025 	li	a0,37
9d00b05c:	5444003b 	bnel	v0,a0,9d00b14c <__scanf_core+0x174>
9d00b060:	8e02003c 	lw	v0,60(s0)
9d00b064:	8fa201b0 	lw	v0,432(sp)
9d00b068:	00511021 	addu	v0,v0,s1
9d00b06c:	afa201b0 	sw	v0,432(sp)
9d00b070:	80640000 	lb	a0,0(v1)
9d00b074:	24020025 	li	v0,37
9d00b078:	1482002d 	bne	a0,v0,9d00b130 <__scanf_core+0x158>
9d00b07c:	24620001 	addiu	v0,v1,1
9d00b080:	afa201b4 	sw	v0,436(sp)
9d00b084:	afa001a4 	sw	zero,420(sp)
9d00b088:	80640001 	lb	a0,1(v1)
9d00b08c:	2402002a 	li	v0,42
9d00b090:	14820004 	bne	a0,v0,9d00b0a4 <__scanf_core+0xcc>
9d00b094:	00008825 	move	s1,zero
9d00b098:	24630002 	addiu	v1,v1,2
9d00b09c:	afa301b4 	sw	v1,436(sp)
9d00b0a0:	24110001 	li	s1,1
9d00b0a4:	0f404d39 	jal	9d0134e4 <atoi>
9d00b0a8:	8fa401b4 	lw	a0,436(sp)
9d00b0ac:	00402825 	move	a1,v0
9d00b0b0:	02002025 	move	a0,s0
9d00b0b4:	0f405189 	jal	9d014624 <__shlim>
9d00b0b8:	afa201a4 	sw	v0,420(sp)
9d00b0bc:	8fa301b4 	lw	v1,436(sp)
9d00b0c0:	80620000 	lb	v0,0(v1)
9d00b0c4:	2442ffd0 	addiu	v0,v0,-48
9d00b0c8:	2c42000a 	sltiu	v0,v0,10
9d00b0cc:	1440004b 	bnez	v0,9d00b1fc <__scanf_core+0x224>
9d00b0d0:	24630001 	addiu	v1,v1,1
9d00b0d4:	0f404f03 	jal	9d013c0c <__fmt_state>
9d00b0d8:	27a401b4 	addiu	a0,sp,436
9d00b0dc:	0040a025 	move	s4,v0
9d00b0e0:	8fa201b4 	lw	v0,436(sp)
9d00b0e4:	0f405251 	jal	9d014944 <tolower>
9d00b0e8:	80440000 	lb	a0,0(v0)
9d00b0ec:	28430068 	slti	v1,v0,104
9d00b0f0:	1060005f 	beqz	v1,9d00b270 <__scanf_core+0x298>
9d00b0f4:	28430065 	slti	v1,v0,101
9d00b0f8:	106000bd 	beqz	v1,9d00b3f0 <__scanf_core+0x418>
9d00b0fc:	24030061 	li	v1,97
9d00b100:	104300bb 	beq	v0,v1,9d00b3f0 <__scanf_core+0x418>
9d00b104:	28430062 	slti	v1,v0,98
9d00b108:	1060003e 	beqz	v1,9d00b204 <__scanf_core+0x22c>
9d00b10c:	24040025 	li	a0,37
9d00b110:	104400e0 	beq	v0,a0,9d00b494 <__scanf_core+0x4bc>
9d00b114:	8fa301b4 	lw	v1,436(sp)
9d00b118:	2404005b 	li	a0,91
9d00b11c:	104400fc 	beq	v0,a0,9d00b510 <__scanf_core+0x538>
9d00b120:	24020080 	li	v0,128
9d00b124:	8fa201b4 	lw	v0,436(sp)
9d00b128:	24420001 	addiu	v0,v0,1
9d00b12c:	afa201b4 	sw	v0,436(sp)
9d00b130:	2402ffff 	li	v0,-1
9d00b134:	166200ac 	bne	s3,v0,9d00b3e8 <__scanf_core+0x410>
9d00b138:	00008825 	move	s1,zero
9d00b13c:	52a00013 	beqzl	s5,9d00b18c <__scanf_core+0x1b4>
9d00b140:	2415ffff 	li	s5,-1
9d00b144:	10000012 	b	9d00b190 <__scanf_core+0x1b8>
9d00b148:	8fbf01dc 	lw	ra,476(sp)
9d00b14c:	8e03004c 	lw	v1,76(s0)
9d00b150:	0043182b 	sltu	v1,v0,v1
9d00b154:	10600019 	beqz	v1,9d00b1bc <__scanf_core+0x1e4>
9d00b158:	24430001 	addiu	v1,v0,1
9d00b15c:	ae03003c 	sw	v1,60(s0)
9d00b160:	90530000 	lbu	s3,0(v0)
9d00b164:	8fa201b4 	lw	v0,436(sp)
9d00b168:	80420000 	lb	v0,0(v0)
9d00b16c:	10530019 	beq	v0,s3,9d00b1d4 <__scanf_core+0x1fc>
9d00b170:	8fa201b0 	lw	v0,432(sp)
9d00b174:	8e02004c 	lw	v0,76(s0)
9d00b178:	10400005 	beqz	v0,9d00b190 <__scanf_core+0x1b8>
9d00b17c:	8fbf01dc 	lw	ra,476(sp)
9d00b180:	8e02003c 	lw	v0,60(s0)
9d00b184:	2442ffff 	addiu	v0,v0,-1
9d00b188:	ae02003c 	sw	v0,60(s0)
9d00b18c:	8fbf01dc 	lw	ra,476(sp)
9d00b190:	02a01025 	move	v0,s5
9d00b194:	8fb701d8 	lw	s7,472(sp)
9d00b198:	8fb601d4 	lw	s6,468(sp)
9d00b19c:	8fb501d0 	lw	s5,464(sp)
9d00b1a0:	8fb401cc 	lw	s4,460(sp)
9d00b1a4:	8fb301c8 	lw	s3,456(sp)
9d00b1a8:	8fb201c4 	lw	s2,452(sp)
9d00b1ac:	8fb101c0 	lw	s1,448(sp)
9d00b1b0:	8fb001bc 	lw	s0,444(sp)
9d00b1b4:	03e00008 	jr	ra
9d00b1b8:	27bd01e0 	addiu	sp,sp,480
9d00b1bc:	0f4049ab 	jal	9d0126ac <__shgetc>
9d00b1c0:	02002025 	move	a0,s0
9d00b1c4:	00409825 	move	s3,v0
9d00b1c8:	2402ffff 	li	v0,-1
9d00b1cc:	1662ffe5 	bne	s3,v0,9d00b164 <__scanf_core+0x18c>
9d00b1d0:	8fa201b0 	lw	v0,432(sp)
9d00b1d4:	27a501b4 	addiu	a1,sp,436
9d00b1d8:	02002025 	move	a0,s0
9d00b1dc:	24420001 	addiu	v0,v0,1
9d00b1e0:	afa201b0 	sw	v0,432(sp)
9d00b1e4:	8fa201b4 	lw	v0,436(sp)
9d00b1e8:	24420001 	addiu	v0,v0,1
9d00b1ec:	0f404deb 	jal	9d0137ac <__consumews>
9d00b1f0:	afa201b4 	sw	v0,436(sp)
9d00b1f4:	1000ff95 	b	9d00b04c <__scanf_core+0x74>
9d00b1f8:	02228821 	addu	s1,s1,v0
9d00b1fc:	1000ffaf 	b	9d00b0bc <__scanf_core+0xe4>
9d00b200:	afa301b4 	sw	v1,436(sp)
9d00b204:	24030063 	li	v1,99
9d00b208:	1043008a 	beq	v0,v1,9d00b434 <__scanf_core+0x45c>
9d00b20c:	24030064 	li	v1,100
9d00b210:	1443ffc4 	bne	v0,v1,9d00b124 <__scanf_core+0x14c>
9d00b214:	27a701b0 	addiu	a3,sp,432
9d00b218:	27a6019c 	addiu	a2,sp,412
9d00b21c:	27a50018 	addiu	a1,sp,24
9d00b220:	0f404dcf 	jal	9d01373c <__scan_d>
9d00b224:	02002025 	move	a0,s0
9d00b228:	0442000c 	bltzl	v0,9d00b25c <__scanf_core+0x284>
9d00b22c:	00408825 	move	s1,v0
9d00b230:	8fa201b4 	lw	v0,436(sp)
9d00b234:	24420001 	addiu	v0,v0,1
9d00b238:	162000a8 	bnez	s1,9d00b4dc <__scanf_core+0x504>
9d00b23c:	afa201b4 	sw	v0,436(sp)
9d00b240:	02403825 	move	a3,s2
9d00b244:	24060001 	li	a2,1
9d00b248:	02802825 	move	a1,s4
9d00b24c:	0f404280 	jal	9d010a00 <__push_int>
9d00b250:	27a40018 	addiu	a0,sp,24
9d00b254:	04410064 	bgez	v0,9d00b3e8 <__scanf_core+0x410>
9d00b258:	00408825 	move	s1,v0
9d00b25c:	2402ffff 	li	v0,-1
9d00b260:	1222ffb6 	beq	s1,v0,9d00b13c <__scanf_core+0x164>
9d00b264:	8fbf01dc 	lw	ra,476(sp)
9d00b268:	1000ffca 	b	9d00b194 <__scanf_core+0x1bc>
9d00b26c:	02a01025 	move	v0,s5
9d00b270:	24030070 	li	v1,112
9d00b274:	10430040 	beq	v0,v1,9d00b378 <__scanf_core+0x3a0>
9d00b278:	28430071 	slti	v1,v0,113
9d00b27c:	1060000d 	beqz	v1,9d00b2b4 <__scanf_core+0x2dc>
9d00b280:	2403006e 	li	v1,110
9d00b284:	1043004b 	beq	v0,v1,9d00b3b4 <__scanf_core+0x3dc>
9d00b288:	2843006f 	slti	v1,v0,111
9d00b28c:	1060002c 	beqz	v1,9d00b340 <__scanf_core+0x368>
9d00b290:	24030069 	li	v1,105
9d00b294:	1443ffa3 	bne	v0,v1,9d00b124 <__scanf_core+0x14c>
9d00b298:	27a701b0 	addiu	a3,sp,432
9d00b29c:	27a6019c 	addiu	a2,sp,412
9d00b2a0:	27a50018 	addiu	a1,sp,24
9d00b2a4:	0f403caf 	jal	9d00f2bc <__scan_i>
9d00b2a8:	02002025 	move	a0,s0
9d00b2ac:	1000ffde 	b	9d00b228 <__scanf_core+0x250>
9d00b2b0:	00000000 	nop
9d00b2b4:	24030075 	li	v1,117
9d00b2b8:	10430013 	beq	v0,v1,9d00b308 <__scanf_core+0x330>
9d00b2bc:	24030078 	li	v1,120
9d00b2c0:	10430026 	beq	v0,v1,9d00b35c <__scanf_core+0x384>
9d00b2c4:	24030073 	li	v1,115
9d00b2c8:	1443ff96 	bne	v0,v1,9d00b124 <__scanf_core+0x14c>
9d00b2cc:	24020080 	li	v0,128
9d00b2d0:	1682ff94 	bne	s4,v0,9d00b124 <__scanf_core+0x14c>
9d00b2d4:	8fa201b4 	lw	v0,436(sp)
9d00b2d8:	24420001 	addiu	v0,v0,1
9d00b2dc:	afa201b4 	sw	v0,436(sp)
9d00b2e0:	16200005 	bnez	s1,9d00b2f8 <__scanf_core+0x320>
9d00b2e4:	00001025 	move	v0,zero
9d00b2e8:	8e420000 	lw	v0,0(s2)
9d00b2ec:	24430004 	addiu	v1,v0,4
9d00b2f0:	ae430000 	sw	v1,0(s2)
9d00b2f4:	8c420000 	lw	v0,0(v0)
9d00b2f8:	afa20010 	sw	v0,16(sp)
9d00b2fc:	27a701b0 	addiu	a3,sp,432
9d00b300:	1000005f 	b	9d00b480 <__scanf_core+0x4a8>
9d00b304:	24060001 	li	a2,1
9d00b308:	27a701b0 	addiu	a3,sp,432
9d00b30c:	27a6019c 	addiu	a2,sp,412
9d00b310:	27a50018 	addiu	a1,sp,24
9d00b314:	0f4052df 	jal	9d014b7c <__scan_a>
9d00b318:	02002025 	move	a0,s0
9d00b31c:	0442ffcf 	bltzl	v0,9d00b25c <__scanf_core+0x284>
9d00b320:	00408825 	move	s1,v0
9d00b324:	8fa201b4 	lw	v0,436(sp)
9d00b328:	24420001 	addiu	v0,v0,1
9d00b32c:	1620006b 	bnez	s1,9d00b4dc <__scanf_core+0x504>
9d00b330:	afa201b4 	sw	v0,436(sp)
9d00b334:	02403825 	move	a3,s2
9d00b338:	1000ffc3 	b	9d00b248 <__scanf_core+0x270>
9d00b33c:	00003025 	move	a2,zero
9d00b340:	27a701b0 	addiu	a3,sp,432
9d00b344:	27a6019c 	addiu	a2,sp,412
9d00b348:	27a50018 	addiu	a1,sp,24
9d00b34c:	0f4052df 	jal	9d014b7c <__scan_a>
9d00b350:	02002025 	move	a0,s0
9d00b354:	1000fff1 	b	9d00b31c <__scanf_core+0x344>
9d00b358:	00000000 	nop
9d00b35c:	27a701b0 	addiu	a3,sp,432
9d00b360:	27a6019c 	addiu	a2,sp,412
9d00b364:	27a50018 	addiu	a1,sp,24
9d00b368:	0f4052df 	jal	9d014b7c <__scan_a>
9d00b36c:	02002025 	move	a0,s0
9d00b370:	1000ffea 	b	9d00b31c <__scanf_core+0x344>
9d00b374:	00000000 	nop
9d00b378:	27a701b0 	addiu	a3,sp,432
9d00b37c:	27a6019c 	addiu	a2,sp,412
9d00b380:	27a50018 	addiu	a1,sp,24
9d00b384:	0f4052df 	jal	9d014b7c <__scan_a>
9d00b388:	02002025 	move	a0,s0
9d00b38c:	0442ffb3 	bltzl	v0,9d00b25c <__scanf_core+0x284>
9d00b390:	00408825 	move	s1,v0
9d00b394:	8fa201b4 	lw	v0,436(sp)
9d00b398:	24420001 	addiu	v0,v0,1
9d00b39c:	1620004f 	bnez	s1,9d00b4dc <__scanf_core+0x504>
9d00b3a0:	afa201b4 	sw	v0,436(sp)
9d00b3a4:	02403825 	move	a3,s2
9d00b3a8:	00003025 	move	a2,zero
9d00b3ac:	1000ffa7 	b	9d00b24c <__scanf_core+0x274>
9d00b3b0:	240500f0 	li	a1,240
9d00b3b4:	8fa201b4 	lw	v0,436(sp)
9d00b3b8:	24420001 	addiu	v0,v0,1
9d00b3bc:	afa201b4 	sw	v0,436(sp)
9d00b3c0:	8fa201b0 	lw	v0,432(sp)
9d00b3c4:	afa20018 	sw	v0,24(sp)
9d00b3c8:	000217c3 	sra	v0,v0,0x1f
9d00b3cc:	16200043 	bnez	s1,9d00b4dc <__scanf_core+0x504>
9d00b3d0:	afa2001c 	sw	v0,28(sp)
9d00b3d4:	02403825 	move	a3,s2
9d00b3d8:	00003025 	move	a2,zero
9d00b3dc:	02802825 	move	a1,s4
9d00b3e0:	0f404280 	jal	9d010a00 <__push_int>
9d00b3e4:	27a40018 	addiu	a0,sp,24
9d00b3e8:	1000ff0b 	b	9d00b018 <__scanf_core+0x40>
9d00b3ec:	02b1a821 	addu	s5,s5,s1
9d00b3f0:	27a701b0 	addiu	a3,sp,432
9d00b3f4:	27a6019c 	addiu	a2,sp,412
9d00b3f8:	27a50018 	addiu	a1,sp,24
9d00b3fc:	0f403834 	jal	9d00e0d0 <__scan_fp>
9d00b400:	02002025 	move	a0,s0
9d00b404:	0442ff95 	bltzl	v0,9d00b25c <__scanf_core+0x284>
9d00b408:	00408825 	move	s1,v0
9d00b40c:	8fa201b4 	lw	v0,436(sp)
9d00b410:	24420001 	addiu	v0,v0,1
9d00b414:	16200031 	bnez	s1,9d00b4dc <__scanf_core+0x504>
9d00b418:	afa201b4 	sw	v0,436(sp)
9d00b41c:	02403025 	move	a2,s2
9d00b420:	02802825 	move	a1,s4
9d00b424:	0f404a5a 	jal	9d012968 <__push_float>
9d00b428:	27a40018 	addiu	a0,sp,24
9d00b42c:	1000ff89 	b	9d00b254 <__scanf_core+0x27c>
9d00b430:	00000000 	nop
9d00b434:	24020080 	li	v0,128
9d00b438:	1682ff3a 	bne	s4,v0,9d00b124 <__scanf_core+0x14c>
9d00b43c:	8fa201a4 	lw	v0,420(sp)
9d00b440:	54400004 	bnezl	v0,9d00b454 <__scanf_core+0x47c>
9d00b444:	8fa201b4 	lw	v0,436(sp)
9d00b448:	24020001 	li	v0,1
9d00b44c:	afa201a4 	sw	v0,420(sp)
9d00b450:	8fa201b4 	lw	v0,436(sp)
9d00b454:	24420001 	addiu	v0,v0,1
9d00b458:	afa201b4 	sw	v0,436(sp)
9d00b45c:	16200005 	bnez	s1,9d00b474 <__scanf_core+0x49c>
9d00b460:	00001025 	move	v0,zero
9d00b464:	8e420000 	lw	v0,0(s2)
9d00b468:	24430004 	addiu	v1,v0,4
9d00b46c:	ae430000 	sw	v1,0(s2)
9d00b470:	8c420000 	lw	v0,0(v0)
9d00b474:	afa20010 	sw	v0,16(sp)
9d00b478:	27a701b0 	addiu	a3,sp,432
9d00b47c:	00003025 	move	a2,zero
9d00b480:	27a5019c 	addiu	a1,sp,412
9d00b484:	0f4052e1 	jal	9d014b84 <__scan_s>
9d00b488:	02002025 	move	a0,s0
9d00b48c:	1000ff71 	b	9d00b254 <__scanf_core+0x27c>
9d00b490:	00000000 	nop
9d00b494:	24020080 	li	v0,128
9d00b498:	1682ff23 	bne	s4,v0,9d00b128 <__scanf_core+0x150>
9d00b49c:	8fa201b4 	lw	v0,436(sp)
9d00b4a0:	24630001 	addiu	v1,v1,1
9d00b4a4:	afa301b4 	sw	v1,436(sp)
9d00b4a8:	8e02003c 	lw	v0,60(s0)
9d00b4ac:	8e03004c 	lw	v1,76(s0)
9d00b4b0:	0043182b 	sltu	v1,v0,v1
9d00b4b4:	1060000b 	beqz	v1,9d00b4e4 <__scanf_core+0x50c>
9d00b4b8:	00000000 	nop
9d00b4bc:	24430001 	addiu	v1,v0,1
9d00b4c0:	ae03003c 	sw	v1,60(s0)
9d00b4c4:	90420000 	lbu	v0,0(v0)
9d00b4c8:	24030025 	li	v1,37
9d00b4cc:	14430009 	bne	v0,v1,9d00b4f4 <__scanf_core+0x51c>
9d00b4d0:	8fa201b0 	lw	v0,432(sp)
9d00b4d4:	24420001 	addiu	v0,v0,1
9d00b4d8:	afa201b0 	sw	v0,432(sp)
9d00b4dc:	1000ffc2 	b	9d00b3e8 <__scanf_core+0x410>
9d00b4e0:	00008825 	move	s1,zero
9d00b4e4:	0f4049ab 	jal	9d0126ac <__shgetc>
9d00b4e8:	02002025 	move	a0,s0
9d00b4ec:	1000fff7 	b	9d00b4cc <__scanf_core+0x4f4>
9d00b4f0:	24030025 	li	v1,37
9d00b4f4:	8e02004c 	lw	v0,76(s0)
9d00b4f8:	5040ffbb 	beqzl	v0,9d00b3e8 <__scanf_core+0x410>
9d00b4fc:	00008825 	move	s1,zero
9d00b500:	8e02003c 	lw	v0,60(s0)
9d00b504:	2442ffff 	addiu	v0,v0,-1
9d00b508:	1000fff4 	b	9d00b4dc <__scanf_core+0x504>
9d00b50c:	ae02003c 	sw	v0,60(s0)
9d00b510:	1682ff05 	bne	s4,v0,9d00b128 <__scanf_core+0x150>
9d00b514:	8fa201b4 	lw	v0,436(sp)
9d00b518:	16200005 	bnez	s1,9d00b530 <__scanf_core+0x558>
9d00b51c:	0000a025 	move	s4,zero
9d00b520:	8e420000 	lw	v0,0(s2)
9d00b524:	24440004 	addiu	a0,v0,4
9d00b528:	ae440000 	sw	a0,0(s2)
9d00b52c:	8c540000 	lw	s4,0(v0)
9d00b530:	24620001 	addiu	v0,v1,1
9d00b534:	afa201b4 	sw	v0,436(sp)
9d00b538:	80640001 	lb	a0,1(v1)
9d00b53c:	2402005e 	li	v0,94
9d00b540:	14820004 	bne	a0,v0,9d00b554 <__scanf_core+0x57c>
9d00b544:	00008825 	move	s1,zero
9d00b548:	24630002 	addiu	v1,v1,2
9d00b54c:	afa301b4 	sw	v1,436(sp)
9d00b550:	24110001 	li	s1,1
9d00b554:	27a40018 	addiu	a0,sp,24
9d00b558:	24060101 	li	a2,257
9d00b55c:	0f4051de 	jal	9d014778 <memset>
9d00b560:	02202825 	move	a1,s1
9d00b564:	8fa201b4 	lw	v0,436(sp)
9d00b568:	a3a00018 	sb	zero,24(sp)
9d00b56c:	2404002d 	li	a0,45
9d00b570:	80430000 	lb	v1,0(v0)
9d00b574:	1464001e 	bne	v1,a0,9d00b5f0 <__scanf_core+0x618>
9d00b578:	2404005d 	li	a0,93
9d00b57c:	24420001 	addiu	v0,v0,1
9d00b580:	afa201b4 	sw	v0,436(sp)
9d00b584:	24020001 	li	v0,1
9d00b588:	00511023 	subu	v0,v0,s1
9d00b58c:	a3a20046 	sb	v0,70(sp)
9d00b590:	24020001 	li	v0,1
9d00b594:	2405005d 	li	a1,93
9d00b598:	2406002d 	li	a2,45
9d00b59c:	00518823 	subu	s1,v0,s1
9d00b5a0:	8fa301b4 	lw	v1,436(sp)
9d00b5a4:	80620000 	lb	v0,0(v1)
9d00b5a8:	14450018 	bne	v0,a1,9d00b60c <__scanf_core+0x634>
9d00b5ac:	00000000 	nop
9d00b5b0:	56800037 	bnezl	s4,9d00b690 <__scanf_core+0x6b8>
9d00b5b4:	00008825 	move	s1,zero
9d00b5b8:	8e02003c 	lw	v0,60(s0)
9d00b5bc:	8e03004c 	lw	v1,76(s0)
9d00b5c0:	0043182b 	sltu	v1,v0,v1
9d00b5c4:	10600054 	beqz	v1,9d00b718 <__scanf_core+0x740>
9d00b5c8:	24430001 	addiu	v1,v0,1
9d00b5cc:	ae03003c 	sw	v1,60(s0)
9d00b5d0:	90530000 	lbu	s3,0(v0)
9d00b5d4:	27a20018 	addiu	v0,sp,24
9d00b5d8:	00531021 	addu	v0,v0,s3
9d00b5dc:	90420001 	lbu	v0,1(v0)
9d00b5e0:	14400049 	bnez	v0,9d00b708 <__scanf_core+0x730>
9d00b5e4:	0000b825 	move	s7,zero
9d00b5e8:	10000037 	b	9d00b6c8 <__scanf_core+0x6f0>
9d00b5ec:	8e02004c 	lw	v0,76(s0)
9d00b5f0:	1464ffe7 	bne	v1,a0,9d00b590 <__scanf_core+0x5b8>
9d00b5f4:	24420001 	addiu	v0,v0,1
9d00b5f8:	afa201b4 	sw	v0,436(sp)
9d00b5fc:	24020001 	li	v0,1
9d00b600:	00511023 	subu	v0,v0,s1
9d00b604:	1000ffe2 	b	9d00b590 <__scanf_core+0x5b8>
9d00b608:	a3a20076 	sb	v0,118(sp)
9d00b60c:	1040ffe8 	beqz	v0,9d00b5b0 <__scanf_core+0x5d8>
9d00b610:	00000000 	nop
9d00b614:	10460009 	beq	v0,a2,9d00b63c <__scanf_core+0x664>
9d00b618:	8fa201b8 	lw	v0,440(sp)
9d00b61c:	8fa201b4 	lw	v0,436(sp)
9d00b620:	27a40018 	addiu	a0,sp,24
9d00b624:	80430000 	lb	v1,0(v0)
9d00b628:	24420001 	addiu	v0,v0,1
9d00b62c:	afa201b4 	sw	v0,436(sp)
9d00b630:	00831821 	addu	v1,a0,v1
9d00b634:	1000ffda 	b	9d00b5a0 <__scanf_core+0x5c8>
9d00b638:	a0710001 	sb	s1,1(v1)
9d00b63c:	80420000 	lb	v0,0(v0)
9d00b640:	5040fff7 	beqzl	v0,9d00b620 <__scanf_core+0x648>
9d00b644:	8fa201b4 	lw	v0,436(sp)
9d00b648:	1045fff4 	beq	v0,a1,9d00b61c <__scanf_core+0x644>
9d00b64c:	24620001 	addiu	v0,v1,1
9d00b650:	afa201b4 	sw	v0,436(sp)
9d00b654:	8fa201b0 	lw	v0,432(sp)
9d00b658:	80420000 	lb	v0,0(v0)
9d00b65c:	80640001 	lb	a0,1(v1)
9d00b660:	0044202a 	slt	a0,v0,a0
9d00b664:	1080ffed 	beqz	a0,9d00b61c <__scanf_core+0x644>
9d00b668:	24420001 	addiu	v0,v0,1
9d00b66c:	27a40018 	addiu	a0,sp,24
9d00b670:	00822021 	addu	a0,a0,v0
9d00b674:	1000fff9 	b	9d00b65c <__scanf_core+0x684>
9d00b678:	a0910000 	sb	s1,0(a0)
9d00b67c:	a0530000 	sb	s3,0(v0)
9d00b680:	8fa201b0 	lw	v0,432(sp)
9d00b684:	26310001 	addiu	s1,s1,1
9d00b688:	24420001 	addiu	v0,v0,1
9d00b68c:	afa201b0 	sw	v0,432(sp)
9d00b690:	8e02003c 	lw	v0,60(s0)
9d00b694:	8e03004c 	lw	v1,76(s0)
9d00b698:	0043182b 	sltu	v1,v0,v1
9d00b69c:	10600016 	beqz	v1,9d00b6f8 <__scanf_core+0x720>
9d00b6a0:	0220b825 	move	s7,s1
9d00b6a4:	24430001 	addiu	v1,v0,1
9d00b6a8:	ae03003c 	sw	v1,60(s0)
9d00b6ac:	90530000 	lbu	s3,0(v0)
9d00b6b0:	27a20018 	addiu	v0,sp,24
9d00b6b4:	00531021 	addu	v0,v0,s3
9d00b6b8:	90420001 	lbu	v0,1(v0)
9d00b6bc:	1440ffef 	bnez	v0,9d00b67c <__scanf_core+0x6a4>
9d00b6c0:	02911021 	addu	v0,s4,s1
9d00b6c4:	8e02004c 	lw	v0,76(s0)
9d00b6c8:	10400004 	beqz	v0,9d00b6dc <__scanf_core+0x704>
9d00b6cc:	00000000 	nop
9d00b6d0:	8e02003c 	lw	v0,60(s0)
9d00b6d4:	2442ffff 	addiu	v0,v0,-1
9d00b6d8:	ae02003c 	sw	v0,60(s0)
9d00b6dc:	12e0fe92 	beqz	s7,9d00b128 <__scanf_core+0x150>
9d00b6e0:	8fa201b4 	lw	v0,436(sp)
9d00b6e4:	1280fe91 	beqz	s4,9d00b12c <__scanf_core+0x154>
9d00b6e8:	24420001 	addiu	v0,v0,1
9d00b6ec:	0297a021 	addu	s4,s4,s7
9d00b6f0:	1000fe8c 	b	9d00b124 <__scanf_core+0x14c>
9d00b6f4:	a2800000 	sb	zero,0(s4)
9d00b6f8:	0f4049ab 	jal	9d0126ac <__shgetc>
9d00b6fc:	02002025 	move	a0,s0
9d00b700:	1000ffeb 	b	9d00b6b0 <__scanf_core+0x6d8>
9d00b704:	00409825 	move	s3,v0
9d00b708:	8fa201b0 	lw	v0,432(sp)
9d00b70c:	24420001 	addiu	v0,v0,1
9d00b710:	1000ffa9 	b	9d00b5b8 <__scanf_core+0x5e0>
9d00b714:	afa201b0 	sw	v0,432(sp)
9d00b718:	0f4049ab 	jal	9d0126ac <__shgetc>
9d00b71c:	02002025 	move	a0,s0
9d00b720:	1000ffac 	b	9d00b5d4 <__scanf_core+0x5fc>
9d00b724:	00409825 	move	s3,v0

Disassembly of section .text.fma:

9d00b728 <fma>:
9d00b728:	27bdff78 	addiu	sp,sp,-136
9d00b72c:	afa40088 	sw	a0,136(sp)
9d00b730:	afa60090 	sw	a2,144(sp)
9d00b734:	afa70094 	sw	a3,148(sp)
9d00b738:	00803025 	move	a2,a0
9d00b73c:	00a03825 	move	a3,a1
9d00b740:	27a40030 	addiu	a0,sp,48
9d00b744:	afbf0084 	sw	ra,132(sp)
9d00b748:	afa5008c 	sw	a1,140(sp)
9d00b74c:	afbe0080 	sw	s8,128(sp)
9d00b750:	afb3006c 	sw	s3,108(sp)
9d00b754:	afb20068 	sw	s2,104(sp)
9d00b758:	afb10064 	sw	s1,100(sp)
9d00b75c:	8fb20098 	lw	s2,152(sp)
9d00b760:	8fb3009c 	lw	s3,156(sp)
9d00b764:	afb7007c 	sw	s7,124(sp)
9d00b768:	afb60078 	sw	s6,120(sp)
9d00b76c:	afb50074 	sw	s5,116(sp)
9d00b770:	afb40070 	sw	s4,112(sp)
9d00b774:	0f404a84 	jal	9d012a10 <normalize>
9d00b778:	afb00060 	sw	s0,96(sp)
9d00b77c:	8fa60090 	lw	a2,144(sp)
9d00b780:	8fa70094 	lw	a3,148(sp)
9d00b784:	8fb10038 	lw	s1,56(sp)
9d00b788:	0f404a84 	jal	9d012a10 <normalize>
9d00b78c:	27a40020 	addiu	a0,sp,32
9d00b790:	02403025 	move	a2,s2
9d00b794:	02603825 	move	a3,s3
9d00b798:	27a40010 	addiu	a0,sp,16
9d00b79c:	0f404a84 	jal	9d012a10 <normalize>
9d00b7a0:	8fbe0028 	lw	s8,40(sp)
9d00b7a4:	2a2203cb 	slti	v0,s1,971
9d00b7a8:	10400003 	beqz	v0,9d00b7b8 <fma+0x90>
9d00b7ac:	2bc203cb 	slti	v0,s8,971
9d00b7b0:	1440000e 	bnez	v0,9d00b7ec <fma+0xc4>
9d00b7b4:	8fb90018 	lw	t9,24(sp)
9d00b7b8:	8fa60090 	lw	a2,144(sp)
9d00b7bc:	8fa70094 	lw	a3,148(sp)
9d00b7c0:	8fa40088 	lw	a0,136(sp)
9d00b7c4:	0f403be4 	jal	9d00ef90 <__muldf3>
9d00b7c8:	8fa5008c 	lw	a1,140(sp)
9d00b7cc:	00403025 	move	a2,v0
9d00b7d0:	00603825 	move	a3,v1
9d00b7d4:	02402025 	move	a0,s2
9d00b7d8:	0f40372a 	jal	9d00dca8 <__adddf3>
9d00b7dc:	02602825 	move	a1,s3
9d00b7e0:	00409025 	move	s2,v0
9d00b7e4:	10000006 	b	9d00b800 <fma+0xd8>
9d00b7e8:	00609825 	move	s3,v1
9d00b7ec:	2b2203cb 	slti	v0,t9,971
9d00b7f0:	14400011 	bnez	v0,9d00b838 <fma+0x110>
9d00b7f4:	240203cb 	li	v0,971
9d00b7f8:	1722fff0 	bne	t9,v0,9d00b7bc <fma+0x94>
9d00b7fc:	8fa60090 	lw	a2,144(sp)
9d00b800:	8fbf0084 	lw	ra,132(sp)
9d00b804:	02401025 	move	v0,s2
9d00b808:	02601825 	move	v1,s3
9d00b80c:	8fbe0080 	lw	s8,128(sp)
9d00b810:	8fb7007c 	lw	s7,124(sp)
9d00b814:	8fb60078 	lw	s6,120(sp)
9d00b818:	8fb50074 	lw	s5,116(sp)
9d00b81c:	8fb40070 	lw	s4,112(sp)
9d00b820:	8fb3006c 	lw	s3,108(sp)
9d00b824:	8fb20068 	lw	s2,104(sp)
9d00b828:	8fb10064 	lw	s1,100(sp)
9d00b82c:	8fb00060 	lw	s0,96(sp)
9d00b830:	03e00008 	jr	ra
9d00b834:	27bd0088 	addiu	sp,sp,136
9d00b838:	8fa20030 	lw	v0,48(sp)
9d00b83c:	8faa0020 	lw	t2,32(sp)
9d00b840:	8fa40024 	lw	a0,36(sp)
9d00b844:	8fa60034 	lw	a2,52(sp)
9d00b848:	004a0019 	multu	v0,t2
9d00b84c:	03d1f021 	addu	s8,s8,s1
9d00b850:	033e8823 	subu	s1,t9,s8
9d00b854:	8fa70010 	lw	a3,16(sp)
9d00b858:	8fb70014 	lw	s7,20(sp)
9d00b85c:	00004012 	mflo	t0
9d00b860:	afa80040 	sw	t0,64(sp)
9d00b864:	8faf0040 	lw	t7,64(sp)
9d00b868:	00004810 	mfhi	t1
9d00b86c:	afa90044 	sw	t1,68(sp)
9d00b870:	00440019 	multu	v0,a0
9d00b874:	00001012 	mflo	v0
9d00b878:	00001810 	mfhi	v1
9d00b87c:	00ca0019 	multu	a2,t2
9d00b880:	00005012 	mflo	t2
9d00b884:	004ac021 	addu	t8,v0,t2
9d00b888:	0302402b 	sltu	t0,t8,v0
9d00b88c:	00005810 	mfhi	t3
9d00b890:	8fa20044 	lw	v0,68(sp)
9d00b894:	006b5821 	addu	t3,v1,t3
9d00b898:	00c40019 	multu	a2,a0
9d00b89c:	010b4021 	addu	t0,t0,t3
9d00b8a0:	0302c021 	addu	t8,t8,v0
9d00b8a4:	0302302b 	sltu	a2,t8,v0
9d00b8a8:	00002012 	mflo	a0
9d00b8ac:	00884021 	addu	t0,a0,t0
9d00b8b0:	01063021 	addu	a2,t0,a2
9d00b8b4:	00002810 	mfhi	a1
9d00b8b8:	0104582b 	sltu	t3,t0,a0
9d00b8bc:	01655821 	addu	t3,t3,a1
9d00b8c0:	00c8182b 	sltu	v1,a2,t0
9d00b8c4:	00c08025 	move	s0,a2
9d00b8c8:	1a2000ab 	blez	s1,9d00bb78 <fma+0x450>
9d00b8cc:	006bb021 	addu	s6,v1,t3
9d00b8d0:	2a220040 	slti	v0,s1,64
9d00b8d4:	10400078 	beqz	v0,9d00bab8 <fma+0x390>
9d00b8d8:	00e02025 	move	a0,a3
9d00b8dc:	02e02825 	move	a1,s7
9d00b8e0:	02203025 	move	a2,s1
9d00b8e4:	afb80054 	sw	t8,84(sp)
9d00b8e8:	afaf0050 	sw	t7,80(sp)
9d00b8ec:	0f4050d4 	jal	9d014350 <__ashldi3>
9d00b8f0:	afa7004c 	sw	a3,76(sp)
9d00b8f4:	8fa7004c 	lw	a3,76(sp)
9d00b8f8:	24060040 	li	a2,64
9d00b8fc:	02e02825 	move	a1,s7
9d00b900:	00e02025 	move	a0,a3
9d00b904:	00d13023 	subu	a2,a2,s1
9d00b908:	afa20048 	sw	v0,72(sp)
9d00b90c:	0f4050c5 	jal	9d014314 <__lshrdi3>
9d00b910:	afa30040 	sw	v1,64(sp)
9d00b914:	8fb90040 	lw	t9,64(sp)
9d00b918:	8fa80048 	lw	t0,72(sp)
9d00b91c:	8faf0050 	lw	t7,80(sp)
9d00b920:	8fb80054 	lw	t8,84(sp)
9d00b924:	00403825 	move	a3,v0
9d00b928:	0060b825 	move	s7,v1
9d00b92c:	8fa2002c 	lw	v0,44(sp)
9d00b930:	8fb1003c 	lw	s1,60(sp)
9d00b934:	02228826 	xor	s1,s1,v0
9d00b938:	8fa2001c 	lw	v0,28(sp)
9d00b93c:	145100b5 	bne	v0,s1,9d00bc14 <fma+0x4ec>
9d00b940:	010f5021 	addu	t2,t0,t7
9d00b944:	0148902b 	sltu	s2,t2,t0
9d00b948:	0338c021 	addu	t8,t9,t8
9d00b94c:	0258a021 	addu	s4,s2,t8
9d00b950:	0299102b 	sltu	v0,s4,t9
9d00b954:	0140a825 	move	s5,t2
9d00b958:	14400006 	bnez	v0,9d00b974 <fma+0x24c>
9d00b95c:	24040001 	li	a0,1
9d00b960:	17340003 	bne	t9,s4,9d00b970 <fma+0x248>
9d00b964:	0148402b 	sltu	t0,t2,t0
9d00b968:	15000003 	bnez	t0,9d00b978 <fma+0x250>
9d00b96c:	00f06021 	addu	t4,a3,s0
9d00b970:	00002025 	move	a0,zero
9d00b974:	00f06021 	addu	t4,a3,s0
9d00b978:	0187102b 	sltu	v0,t4,a3
9d00b97c:	02f61821 	addu	v1,s7,s6
9d00b980:	008c6021 	addu	t4,a0,t4
9d00b984:	00431021 	addu	v0,v0,v1
9d00b988:	0184202b 	sltu	a0,t4,a0
9d00b98c:	00826821 	addu	t5,a0,v0
9d00b990:	01802025 	move	a0,t4
9d00b994:	01a02825 	move	a1,t5
9d00b998:	afac0048 	sw	t4,72(sp)
9d00b99c:	0f404e5a 	jal	9d013968 <a_clz_64>
9d00b9a0:	afad0040 	sw	t5,64(sp)
9d00b9a4:	2453ffff 	addiu	s3,v0,-1
9d00b9a8:	24060040 	li	a2,64
9d00b9ac:	00d33023 	subu	a2,a2,s3
9d00b9b0:	02a02025 	move	a0,s5
9d00b9b4:	0f4050c5 	jal	9d014314 <__lshrdi3>
9d00b9b8:	02802825 	move	a1,s4
9d00b9bc:	8fac0048 	lw	t4,72(sp)
9d00b9c0:	8fad0040 	lw	t5,64(sp)
9d00b9c4:	02603025 	move	a2,s3
9d00b9c8:	01802025 	move	a0,t4
9d00b9cc:	01a02825 	move	a1,t5
9d00b9d0:	00408025 	move	s0,v0
9d00b9d4:	0f4050d4 	jal	9d014350 <__ashldi3>
9d00b9d8:	00609025 	move	s2,v1
9d00b9dc:	02603025 	move	a2,s3
9d00b9e0:	02a02025 	move	a0,s5
9d00b9e4:	02802825 	move	a1,s4
9d00b9e8:	02028025 	or	s0,s0,v0
9d00b9ec:	0f4050d4 	jal	9d014350 <__ashldi3>
9d00b9f0:	02439025 	or	s2,s2,v1
9d00b9f4:	00431025 	or	v0,v0,v1
9d00b9f8:	0002102b 	sltu	v0,zero,v0
9d00b9fc:	27de0040 	addiu	s8,s8,64
9d00ba00:	02028025 	or	s0,s0,v0
9d00ba04:	02002025 	move	a0,s0
9d00ba08:	12200005 	beqz	s1,9d00ba20 <fma+0x2f8>
9d00ba0c:	02402825 	move	a1,s2
9d00ba10:	00102023 	negu	a0,s0
9d00ba14:	0004102b 	sltu	v0,zero,a0
9d00ba18:	00122823 	negu	a1,s2
9d00ba1c:	00a22823 	subu	a1,a1,v0
9d00ba20:	0f404db2 	jal	9d0136c8 <__floatdidf>
9d00ba24:	03d3f023 	subu	s8,s8,s3
9d00ba28:	0040b025 	move	s6,v0
9d00ba2c:	2bc2fbc4 	slti	v0,s8,-1084
9d00ba30:	104000f8 	beqz	v0,9d00be14 <fma+0x6ec>
9d00ba34:	0060b825 	move	s7,v1
9d00ba38:	2402fbc3 	li	v0,-1085
9d00ba3c:	17c200fb 	bne	s8,v0,9d00be2c <fma+0x704>
9d00ba40:	00102580 	sll	a0,s0,0x16
9d00ba44:	122000b4 	beqz	s1,9d00bd18 <fma+0x5f0>
9d00ba48:	3c029d00 	lui	v0,0x9d00
9d00ba4c:	8c547640 	lw	s4,30272(v0)
9d00ba50:	8c557644 	lw	s5,30276(v0)
9d00ba54:	02c03025 	move	a2,s6
9d00ba58:	02e03825 	move	a3,s7
9d00ba5c:	02802025 	move	a0,s4
9d00ba60:	0f404581 	jal	9d011604 <__eqdf2>
9d00ba64:	02a02825 	move	a1,s5
9d00ba68:	144000af 	bnez	v0,9d00bd28 <fma+0x600>
9d00ba6c:	3c029d00 	lui	v0,0x9d00
9d00ba70:	8c467648 	lw	a2,30280(v0)
9d00ba74:	8c47764c 	lw	a3,30284(v0)
9d00ba78:	02c02025 	move	a0,s6
9d00ba7c:	0f403be4 	jal	9d00ef90 <__muldf3>
9d00ba80:	02e02825 	move	a1,s7
9d00ba84:	00602825 	move	a1,v1
9d00ba88:	0f4047fd 	jal	9d011ff4 <__truncdfsf2>
9d00ba8c:	00402025 	move	a0,v0
9d00ba90:	0f404a2f 	jal	9d0128bc <__extendsfdf2>
9d00ba94:	00402025 	move	a0,v0
9d00ba98:	3c049d00 	lui	a0,0x9d00
9d00ba9c:	8c867650 	lw	a2,30288(a0)
9d00baa0:	8c877654 	lw	a3,30292(a0)
9d00baa4:	00602825 	move	a1,v1
9d00baa8:	0f403be4 	jal	9d00ef90 <__muldf3>
9d00baac:	00402025 	move	a0,v0
9d00bab0:	1000ff4c 	b	9d00b7e4 <fma+0xbc>
9d00bab4:	00409025 	move	s2,v0
9d00bab8:	2631ffc0 	addiu	s1,s1,-64
9d00babc:	273effc0 	addiu	s8,t9,-64
9d00bac0:	00004025 	move	t0,zero
9d00bac4:	1220ff99 	beqz	s1,9d00b92c <fma+0x204>
9d00bac8:	0000c825 	move	t9,zero
9d00bacc:	2a220040 	slti	v0,s1,64
9d00bad0:	10400043 	beqz	v0,9d00bbe0 <fma+0x4b8>
9d00bad4:	8fa40040 	lw	a0,64(sp)
9d00bad8:	240d0040 	li	t5,64
9d00badc:	01b16823 	subu	t5,t5,s1
9d00bae0:	01a03025 	move	a2,t5
9d00bae4:	03002825 	move	a1,t8
9d00bae8:	afb90058 	sw	t9,88(sp)
9d00baec:	afa80054 	sw	t0,84(sp)
9d00baf0:	afa70050 	sw	a3,80(sp)
9d00baf4:	afad004c 	sw	t5,76(sp)
9d00baf8:	0f4050d4 	jal	9d014350 <__ashldi3>
9d00bafc:	afb80048 	sw	t8,72(sp)
9d00bb00:	8fb80048 	lw	t8,72(sp)
9d00bb04:	8fa40040 	lw	a0,64(sp)
9d00bb08:	00431025 	or	v0,v0,v1
9d00bb0c:	03002825 	move	a1,t8
9d00bb10:	02203025 	move	a2,s1
9d00bb14:	0f4050c5 	jal	9d014314 <__lshrdi3>
9d00bb18:	0002a82b 	sltu	s5,zero,v0
9d00bb1c:	8fad004c 	lw	t5,76(sp)
9d00bb20:	02002025 	move	a0,s0
9d00bb24:	02c02825 	move	a1,s6
9d00bb28:	01a03025 	move	a2,t5
9d00bb2c:	0060a025 	move	s4,v1
9d00bb30:	0f4050d4 	jal	9d014350 <__ashldi3>
9d00bb34:	02a2a825 	or	s5,s5,v0
9d00bb38:	02a27825 	or	t7,s5,v0
9d00bb3c:	0283c025 	or	t8,s4,v1
9d00bb40:	02002025 	move	a0,s0
9d00bb44:	02c02825 	move	a1,s6
9d00bb48:	02203025 	move	a2,s1
9d00bb4c:	afaf0048 	sw	t7,72(sp)
9d00bb50:	0f4050c5 	jal	9d014314 <__lshrdi3>
9d00bb54:	afb80040 	sw	t8,64(sp)
9d00bb58:	00408025 	move	s0,v0
9d00bb5c:	0060b025 	move	s6,v1
9d00bb60:	8fb80040 	lw	t8,64(sp)
9d00bb64:	8faf0048 	lw	t7,72(sp)
9d00bb68:	8fa70050 	lw	a3,80(sp)
9d00bb6c:	8fa80054 	lw	t0,84(sp)
9d00bb70:	1000ff6e 	b	9d00b92c <fma+0x204>
9d00bb74:	8fb90058 	lw	t9,88(sp)
9d00bb78:	03d98823 	subu	s1,s8,t9
9d00bb7c:	1220001d 	beqz	s1,9d00bbf4 <fma+0x4cc>
9d00bb80:	2a220040 	slti	v0,s1,64
9d00bb84:	10400020 	beqz	v0,9d00bc08 <fma+0x4e0>
9d00bb88:	24060040 	li	a2,64
9d00bb8c:	00e02025 	move	a0,a3
9d00bb90:	02e02825 	move	a1,s7
9d00bb94:	00d13023 	subu	a2,a2,s1
9d00bb98:	afb8004c 	sw	t8,76(sp)
9d00bb9c:	afaf0048 	sw	t7,72(sp)
9d00bba0:	0f4050d4 	jal	9d014350 <__ashldi3>
9d00bba4:	afa70040 	sw	a3,64(sp)
9d00bba8:	8fa70040 	lw	a3,64(sp)
9d00bbac:	00431025 	or	v0,v0,v1
9d00bbb0:	02e02825 	move	a1,s7
9d00bbb4:	00e02025 	move	a0,a3
9d00bbb8:	02203025 	move	a2,s1
9d00bbbc:	0f4050c5 	jal	9d014314 <__lshrdi3>
9d00bbc0:	0002a02b 	sltu	s4,zero,v0
9d00bbc4:	02824025 	or	t0,s4,v0
9d00bbc8:	0060c825 	move	t9,v1
9d00bbcc:	00003825 	move	a3,zero
9d00bbd0:	0000b825 	move	s7,zero
9d00bbd4:	8faf0048 	lw	t7,72(sp)
9d00bbd8:	1000ff54 	b	9d00b92c <fma+0x204>
9d00bbdc:	8fb8004c 	lw	t8,76(sp)
9d00bbe0:	240f0001 	li	t7,1
9d00bbe4:	0000c025 	move	t8,zero
9d00bbe8:	00008025 	move	s0,zero
9d00bbec:	1000ff4f 	b	9d00b92c <fma+0x204>
9d00bbf0:	0000b025 	move	s6,zero
9d00bbf4:	00e04025 	move	t0,a3
9d00bbf8:	02e0c825 	move	t9,s7
9d00bbfc:	00003825 	move	a3,zero
9d00bc00:	1000ff4a 	b	9d00b92c <fma+0x204>
9d00bc04:	0000b825 	move	s7,zero
9d00bc08:	24080001 	li	t0,1
9d00bc0c:	1000fffb 	b	9d00bbfc <fma+0x4d4>
9d00bc10:	0000c825 	move	t9,zero
9d00bc14:	01e85023 	subu	t2,t7,t0
9d00bc18:	01ea182b 	sltu	v1,t7,t2
9d00bc1c:	03194823 	subu	t1,t8,t9
9d00bc20:	0123a023 	subu	s4,t1,v1
9d00bc24:	0314102b 	sltu	v0,t8,s4
9d00bc28:	0140a825 	move	s5,t2
9d00bc2c:	241f0001 	li	ra,1
9d00bc30:	14400006 	bnez	v0,9d00bc4c <fma+0x524>
9d00bc34:	00002025 	move	a0,zero
9d00bc38:	56980004 	bnel	s4,t8,9d00bc4c <fma+0x524>
9d00bc3c:	0000f825 	move	ra,zero
9d00bc40:	14600003 	bnez	v1,9d00bc50 <fma+0x528>
9d00bc44:	02071823 	subu	v1,s0,a3
9d00bc48:	0000f825 	move	ra,zero
9d00bc4c:	02071823 	subu	v1,s0,a3
9d00bc50:	0203682b 	sltu	t5,s0,v1
9d00bc54:	02d71023 	subu	v0,s6,s7
9d00bc58:	004d1023 	subu	v0,v0,t5
9d00bc5c:	007f6023 	subu	t4,v1,ra
9d00bc60:	006c182b 	sltu	v1,v1,t4
9d00bc64:	00441023 	subu	v0,v0,a0
9d00bc68:	00436823 	subu	t5,v0,v1
9d00bc6c:	05a10013 	bgez	t5,9d00bcbc <fma+0x594>
9d00bc70:	010f5023 	subu	t2,t0,t7
9d00bc74:	010a402b 	sltu	t0,t0,t2
9d00bc78:	03384823 	subu	t1,t9,t8
9d00bc7c:	00f03023 	subu	a2,a3,s0
9d00bc80:	0128a023 	subu	s4,t1,t0
9d00bc84:	00e6102b 	sltu	v0,a3,a2
9d00bc88:	02f61823 	subu	v1,s7,s6
9d00bc8c:	01546025 	or	t4,t2,s4
9d00bc90:	00dff821 	addu	ra,a2,ra
9d00bc94:	00621823 	subu	v1,v1,v0
9d00bc98:	000c602b 	sltu	t4,zero,t4
9d00bc9c:	03e6302b 	sltu	a2,ra,a2
9d00bca0:	00641021 	addu	v0,v1,a0
9d00bca4:	03ec6023 	subu	t4,ra,t4
9d00bca8:	00c21021 	addu	v0,a2,v0
9d00bcac:	03ecf82b 	sltu	ra,ra,t4
9d00bcb0:	0140a825 	move	s5,t2
9d00bcb4:	005f6823 	subu	t5,v0,ra
9d00bcb8:	2e310001 	sltiu	s1,s1,1
9d00bcbc:	018d1025 	or	v0,t4,t5
9d00bcc0:	1440ff33 	bnez	v0,9d00b990 <fma+0x268>
9d00bcc4:	02b41025 	or	v0,s5,s4
9d00bcc8:	1040febb 	beqz	v0,9d00b7b8 <fma+0x90>
9d00bccc:	02a02025 	move	a0,s5
9d00bcd0:	0f404e5a 	jal	9d013968 <a_clz_64>
9d00bcd4:	02802825 	move	a1,s4
9d00bcd8:	2453ffff 	addiu	s3,v0,-1
9d00bcdc:	06610007 	bgez	s3,9d00bcfc <fma+0x5d4>
9d00bce0:	001417c0 	sll	v0,s4,0x1f
9d00bce4:	00158042 	srl	s0,s5,0x1
9d00bce8:	00508025 	or	s0,v0,s0
9d00bcec:	32aa0001 	andi	t2,s5,0x1
9d00bcf0:	020a8025 	or	s0,s0,t2
9d00bcf4:	1000ff43 	b	9d00ba04 <fma+0x2dc>
9d00bcf8:	00149042 	srl	s2,s4,0x1
9d00bcfc:	02603025 	move	a2,s3
9d00bd00:	02a02025 	move	a0,s5
9d00bd04:	0f4050d4 	jal	9d014350 <__ashldi3>
9d00bd08:	02802825 	move	a1,s4
9d00bd0c:	00408025 	move	s0,v0
9d00bd10:	1000ff3c 	b	9d00ba04 <fma+0x2dc>
9d00bd14:	00609025 	move	s2,v1
9d00bd18:	3c029d00 	lui	v0,0x9d00
9d00bd1c:	8c547638 	lw	s4,30264(v0)
9d00bd20:	1000ff4c 	b	9d00ba54 <fma+0x32c>
9d00bd24:	8c55763c 	lw	s5,30268(v0)
9d00bd28:	00101540 	sll	v0,s0,0x15
9d00bd2c:	10400039 	beqz	v0,9d00be14 <fma+0x6ec>
9d00bd30:	001217c0 	sll	v0,s2,0x1f
9d00bd34:	00102042 	srl	a0,s0,0x1
9d00bd38:	00442025 	or	a0,v0,a0
9d00bd3c:	00122842 	srl	a1,s2,0x1
9d00bd40:	32100001 	andi	s0,s0,0x1
9d00bd44:	3c024000 	lui	v0,0x4000
9d00bd48:	00902025 	or	a0,a0,s0
9d00bd4c:	12200005 	beqz	s1,9d00bd64 <fma+0x63c>
9d00bd50:	00452825 	or	a1,v0,a1
9d00bd54:	00042023 	negu	a0,a0
9d00bd58:	0004102b 	sltu	v0,zero,a0
9d00bd5c:	00052823 	negu	a1,a1
9d00bd60:	00a22823 	subu	a1,a1,v0
9d00bd64:	0f404db2 	jal	9d0136c8 <__floatdidf>
9d00bd68:	00000000 	nop
9d00bd6c:	00403025 	move	a2,v0
9d00bd70:	00603825 	move	a3,v1
9d00bd74:	00402025 	move	a0,v0
9d00bd78:	0f40372a 	jal	9d00dca8 <__adddf3>
9d00bd7c:	00602825 	move	a1,v1
9d00bd80:	00402025 	move	a0,v0
9d00bd84:	02803025 	move	a2,s4
9d00bd88:	02a03825 	move	a3,s5
9d00bd8c:	0f403728 	jal	9d00dca0 <__subdf3>
9d00bd90:	00602825 	move	a1,v1
9d00bd94:	00408025 	move	s0,v0
9d00bd98:	3c029d00 	lui	v0,0x9d00
9d00bd9c:	8c467650 	lw	a2,30288(v0)
9d00bda0:	8c477654 	lw	a3,30292(v0)
9d00bda4:	02002025 	move	a0,s0
9d00bda8:	00602825 	move	a1,v1
9d00bdac:	0f403be4 	jal	9d00ef90 <__muldf3>
9d00bdb0:	00608825 	move	s1,v1
9d00bdb4:	00403025 	move	a2,v0
9d00bdb8:	00603825 	move	a3,v1
9d00bdbc:	00402025 	move	a0,v0
9d00bdc0:	0f403be4 	jal	9d00ef90 <__muldf3>
9d00bdc4:	00602825 	move	a1,v1
9d00bdc8:	02003025 	move	a2,s0
9d00bdcc:	02203825 	move	a3,s1
9d00bdd0:	02002025 	move	a0,s0
9d00bdd4:	02202825 	move	a1,s1
9d00bdd8:	00409025 	move	s2,v0
9d00bddc:	0f403728 	jal	9d00dca0 <__subdf3>
9d00bde0:	00609825 	move	s3,v1
9d00bde4:	00403025 	move	a2,v0
9d00bde8:	00603825 	move	a3,v1
9d00bdec:	02402025 	move	a0,s2
9d00bdf0:	0f403be4 	jal	9d00ef90 <__muldf3>
9d00bdf4:	02602825 	move	a1,s3
9d00bdf8:	00402025 	move	a0,v0
9d00bdfc:	02003025 	move	a2,s0
9d00be00:	02203825 	move	a3,s1
9d00be04:	0f40372a 	jal	9d00dca8 <__adddf3>
9d00be08:	00602825 	move	a1,v1
9d00be0c:	0040b025 	move	s6,v0
9d00be10:	0060b825 	move	s7,v1
9d00be14:	03c03025 	move	a2,s8
9d00be18:	02c02025 	move	a0,s6
9d00be1c:	0f40483d 	jal	9d0120f4 <scalbn>
9d00be20:	02e02825 	move	a1,s7
9d00be24:	1000fe6f 	b	9d00b7e4 <fma+0xbc>
9d00be28:	00409025 	move	s2,v0
9d00be2c:	00121580 	sll	v0,s2,0x16
9d00be30:	00108282 	srl	s0,s0,0xa
9d00be34:	00508025 	or	s0,v0,s0
9d00be38:	0004202b 	sltu	a0,zero,a0
9d00be3c:	00902025 	or	a0,a0,s0
9d00be40:	02402825 	move	a1,s2
9d00be44:	00041582 	srl	v0,a0,0x16
9d00be48:	7c054804 	ins	a1,zero,0x0,0xa
9d00be4c:	00452825 	or	a1,v0,a1
9d00be50:	12200005 	beqz	s1,9d00be68 <fma+0x740>
9d00be54:	00042280 	sll	a0,a0,0xa
9d00be58:	00042023 	negu	a0,a0
9d00be5c:	0004102b 	sltu	v0,zero,a0
9d00be60:	00052823 	negu	a1,a1
9d00be64:	00a22823 	subu	a1,a1,v0
9d00be68:	0f404db2 	jal	9d0136c8 <__floatdidf>
9d00be6c:	00000000 	nop
9d00be70:	1000ffe7 	b	9d00be10 <fma+0x6e8>
9d00be74:	0040b025 	move	s6,v0

Disassembly of section .text.__intscan:

9d00be78 <__intscan>:
9d00be78:	27bdffb8 	addiu	sp,sp,-72
9d00be7c:	8fa2005c 	lw	v0,92(sp)
9d00be80:	afb20028 	sw	s2,40(sp)
9d00be84:	afbf0044 	sw	ra,68(sp)
9d00be88:	afa20010 	sw	v0,16(sp)
9d00be8c:	2ca20025 	sltiu	v0,a1,37
9d00be90:	afbe0040 	sw	s8,64(sp)
9d00be94:	afb7003c 	sw	s7,60(sp)
9d00be98:	afb60038 	sw	s6,56(sp)
9d00be9c:	afb50034 	sw	s5,52(sp)
9d00bea0:	afb40030 	sw	s4,48(sp)
9d00bea4:	afb3002c 	sw	s3,44(sp)
9d00bea8:	afb10024 	sw	s1,36(sp)
9d00beac:	afb00020 	sw	s0,32(sp)
9d00beb0:	10400006 	beqz	v0,9d00becc <__intscan+0x54>
9d00beb4:	8fb20058 	lw	s2,88(sp)
9d00beb8:	24020001 	li	v0,1
9d00bebc:	00808025 	move	s0,a0
9d00bec0:	00a08825 	move	s1,a1
9d00bec4:	14a20005 	bne	a1,v0,9d00bedc <__intscan+0x64>
9d00bec8:	00c09825 	move	s3,a2
9d00becc:	3c02a000 	lui	v0,0xa000
9d00bed0:	24030016 	li	v1,22
9d00bed4:	1000005a 	b	9d00c040 <__intscan+0x1c8>
9d00bed8:	ac4353b4 	sw	v1,21428(v0)
9d00bedc:	8e02003c 	lw	v0,60(s0)
9d00bee0:	8e03004c 	lw	v1,76(s0)
9d00bee4:	0043182b 	sltu	v1,v0,v1
9d00bee8:	1060002b 	beqz	v1,9d00bf98 <__intscan+0x120>
9d00beec:	24430001 	addiu	v1,v0,1
9d00bef0:	ae03003c 	sw	v1,60(s0)
9d00bef4:	90490000 	lbu	t1,0(v0)
9d00bef8:	24020020 	li	v0,32
9d00befc:	1122fff7 	beq	t1,v0,9d00bedc <__intscan+0x64>
9d00bf00:	2522fff7 	addiu	v0,t1,-9
9d00bf04:	2c420005 	sltiu	v0,v0,5
9d00bf08:	1440fff4 	bnez	v0,9d00bedc <__intscan+0x64>
9d00bf0c:	2522ffd5 	addiu	v0,t1,-43
9d00bf10:	7c020844 	ins	v0,zero,0x1,0x1
9d00bf14:	1440000b 	bnez	v0,9d00bf44 <__intscan+0xcc>
9d00bf18:	0000a025 	move	s4,zero
9d00bf1c:	8e02003c 	lw	v0,60(s0)
9d00bf20:	8e03004c 	lw	v1,76(s0)
9d00bf24:	3934002d 	xori	s4,t1,0x2d
9d00bf28:	2e940001 	sltiu	s4,s4,1
9d00bf2c:	0043182b 	sltu	v1,v0,v1
9d00bf30:	1060001d 	beqz	v1,9d00bfa8 <__intscan+0x130>
9d00bf34:	0014a023 	negu	s4,s4
9d00bf38:	24430001 	addiu	v1,v0,1
9d00bf3c:	ae03003c 	sw	v1,60(s0)
9d00bf40:	90490000 	lbu	t1,0(v0)
9d00bf44:	1220001c 	beqz	s1,9d00bfb8 <__intscan+0x140>
9d00bf48:	8e03004c 	lw	v1,76(s0)
9d00bf4c:	24020010 	li	v0,16
9d00bf50:	12220185 	beq	s1,v0,9d00c568 <__intscan+0x6f0>
9d00bf54:	24020030 	li	v0,48
9d00bf58:	3c029d01 	lui	v0,0x9d01
9d00bf5c:	24421ce9 	addiu	v0,v0,7401
9d00bf60:	01221021 	addu	v0,t1,v0
9d00bf64:	90420000 	lbu	v0,0(v0)
9d00bf68:	0051102b 	sltu	v0,v0,s1
9d00bf6c:	14400055 	bnez	v0,9d00c0c4 <__intscan+0x24c>
9d00bf70:	2402000a 	li	v0,10
9d00bf74:	10600004 	beqz	v1,9d00bf88 <__intscan+0x110>
9d00bf78:	00002825 	move	a1,zero
9d00bf7c:	8e02003c 	lw	v0,60(s0)
9d00bf80:	2442ffff 	addiu	v0,v0,-1
9d00bf84:	ae02003c 	sw	v0,60(s0)
9d00bf88:	0f405189 	jal	9d014624 <__shlim>
9d00bf8c:	02002025 	move	a0,s0
9d00bf90:	1000ffcf 	b	9d00bed0 <__intscan+0x58>
9d00bf94:	3c02a000 	lui	v0,0xa000
9d00bf98:	0f4049ab 	jal	9d0126ac <__shgetc>
9d00bf9c:	02002025 	move	a0,s0
9d00bfa0:	1000ffd5 	b	9d00bef8 <__intscan+0x80>
9d00bfa4:	00404825 	move	t1,v0
9d00bfa8:	0f4049ab 	jal	9d0126ac <__shgetc>
9d00bfac:	02002025 	move	a0,s0
9d00bfb0:	1000ffe4 	b	9d00bf44 <__intscan+0xcc>
9d00bfb4:	00404825 	move	t1,v0
9d00bfb8:	24020030 	li	v0,48
9d00bfbc:	5522ffe6 	bnel	t1,v0,9d00bf58 <__intscan+0xe0>
9d00bfc0:	2411000a 	li	s1,10
9d00bfc4:	8e02003c 	lw	v0,60(s0)
9d00bfc8:	0043182b 	sltu	v1,v0,v1
9d00bfcc:	1060002c 	beqz	v1,9d00c080 <__intscan+0x208>
9d00bfd0:	24430001 	addiu	v1,v0,1
9d00bfd4:	ae03003c 	sw	v1,60(s0)
9d00bfd8:	90490000 	lbu	t1,0(v0)
9d00bfdc:	35220020 	ori	v0,t1,0x20
9d00bfe0:	24030078 	li	v1,120
9d00bfe4:	14430035 	bne	v0,v1,9d00c0bc <__intscan+0x244>
9d00bfe8:	00000000 	nop
9d00bfec:	8e02003c 	lw	v0,60(s0)
9d00bff0:	8e03004c 	lw	v1,76(s0)
9d00bff4:	0043182b 	sltu	v1,v0,v1
9d00bff8:	10600025 	beqz	v1,9d00c090 <__intscan+0x218>
9d00bffc:	24430001 	addiu	v1,v0,1
9d00c000:	ae03003c 	sw	v1,60(s0)
9d00c004:	90490000 	lbu	t1,0(v0)
9d00c008:	3c029d01 	lui	v0,0x9d01
9d00c00c:	24421ce9 	addiu	v0,v0,7401
9d00c010:	01221021 	addu	v0,t1,v0
9d00c014:	90420000 	lbu	v0,0(v0)
9d00c018:	2c420010 	sltiu	v0,v0,16
9d00c01c:	5440002b 	bnezl	v0,9d00c0cc <__intscan+0x254>
9d00c020:	24110010 	li	s1,16
9d00c024:	8e02004c 	lw	v0,76(s0)
9d00c028:	1040014b 	beqz	v0,9d00c558 <__intscan+0x6e0>
9d00c02c:	00003825 	move	a3,zero
9d00c030:	1260001b 	beqz	s3,9d00c0a0 <__intscan+0x228>
9d00c034:	8e02003c 	lw	v0,60(s0)
9d00c038:	2442fffe 	addiu	v0,v0,-2
9d00c03c:	ae02003c 	sw	v0,60(s0)
9d00c040:	00003825 	move	a3,zero
9d00c044:	0000f025 	move	s8,zero
9d00c048:	8fbf0044 	lw	ra,68(sp)
9d00c04c:	03c01825 	move	v1,s8
9d00c050:	00e01025 	move	v0,a3
9d00c054:	8fbe0040 	lw	s8,64(sp)
9d00c058:	8fb7003c 	lw	s7,60(sp)
9d00c05c:	8fb60038 	lw	s6,56(sp)
9d00c060:	8fb50034 	lw	s5,52(sp)
9d00c064:	8fb40030 	lw	s4,48(sp)
9d00c068:	8fb3002c 	lw	s3,44(sp)
9d00c06c:	8fb20028 	lw	s2,40(sp)
9d00c070:	8fb10024 	lw	s1,36(sp)
9d00c074:	8fb00020 	lw	s0,32(sp)
9d00c078:	03e00008 	jr	ra
9d00c07c:	27bd0048 	addiu	sp,sp,72
9d00c080:	0f4049ab 	jal	9d0126ac <__shgetc>
9d00c084:	02002025 	move	a0,s0
9d00c088:	1000ffd4 	b	9d00bfdc <__intscan+0x164>
9d00c08c:	00404825 	move	t1,v0
9d00c090:	0f4049ab 	jal	9d0126ac <__shgetc>
9d00c094:	02002025 	move	a0,s0
9d00c098:	1000ffdb 	b	9d00c008 <__intscan+0x190>
9d00c09c:	00404825 	move	t1,v0
9d00c0a0:	2442ffff 	addiu	v0,v0,-1
9d00c0a4:	ae02003c 	sw	v0,60(s0)
9d00c0a8:	00002825 	move	a1,zero
9d00c0ac:	0f405189 	jal	9d014624 <__shlim>
9d00c0b0:	02002025 	move	a0,s0
9d00c0b4:	1000ffe3 	b	9d00c044 <__intscan+0x1cc>
9d00c0b8:	00003825 	move	a3,zero
9d00c0bc:	12200083 	beqz	s1,9d00c2cc <__intscan+0x454>
9d00c0c0:	2402000a 	li	v0,10
9d00c0c4:	1222007a 	beq	s1,v0,9d00c2b0 <__intscan+0x438>
9d00c0c8:	3c151999 	lui	s5,0x1999
9d00c0cc:	2627ffff 	addiu	a3,s1,-1
9d00c0d0:	3c139d01 	lui	s3,0x9d01
9d00c0d4:	00f1a824 	and	s5,a3,s1
9d00c0d8:	16a000f5 	bnez	s5,9d00c4b0 <__intscan+0x638>
9d00c0dc:	26731ce9 	addiu	s3,s3,7401
9d00c0e0:	24020017 	li	v0,23
9d00c0e4:	72221002 	mul	v0,s1,v0
9d00c0e8:	3c039d01 	lui	v1,0x9d01
9d00c0ec:	24631cdc 	addiu	v1,v1,7388
9d00c0f0:	7c421140 	ext	v0,v0,0x5,0x3
9d00c0f4:	00431021 	addu	v0,v0,v1
9d00c0f8:	80560000 	lb	s6,0(v0)
9d00c0fc:	02691021 	addu	v0,s3,t1
9d00c100:	90570000 	lbu	s7,0(v0)
9d00c104:	02f1102b 	sltu	v0,s7,s1
9d00c108:	10400004 	beqz	v0,9d00c11c <__intscan+0x2a4>
9d00c10c:	3c020800 	lui	v0,0x800
9d00c110:	02a2102b 	sltu	v0,s5,v0
9d00c114:	5440006f 	bnezl	v0,9d00c2d4 <__intscan+0x45c>
9d00c118:	8e02003c 	lw	v0,60(s0)
9d00c11c:	02c03025 	move	a2,s6
9d00c120:	2404ffff 	li	a0,-1
9d00c124:	2405ffff 	li	a1,-1
9d00c128:	afa9001c 	sw	t1,28(sp)
9d00c12c:	0f4050c5 	jal	9d014314 <__lshrdi3>
9d00c130:	afb50018 	sw	s5,24(sp)
9d00c134:	8fa70018 	lw	a3,24(sp)
9d00c138:	8fa9001c 	lw	t1,28(sp)
9d00c13c:	0000f025 	move	s8,zero
9d00c140:	afa20014 	sw	v0,20(sp)
9d00c144:	0060a825 	move	s5,v1
9d00c148:	02691021 	addu	v0,s3,t1
9d00c14c:	90570000 	lbu	s7,0(v0)
9d00c150:	02f1102b 	sltu	v0,s7,s1
9d00c154:	1040009e 	beqz	v0,9d00c3d0 <__intscan+0x558>
9d00c158:	02be102b 	sltu	v0,s5,s8
9d00c15c:	5440009d 	bnezl	v0,9d00c3d4 <__intscan+0x55c>
9d00c160:	3c139d01 	lui	s3,0x9d01
9d00c164:	17d50004 	bne	s8,s5,9d00c178 <__intscan+0x300>
9d00c168:	8fa20014 	lw	v0,20(sp)
9d00c16c:	0047102b 	sltu	v0,v0,a3
9d00c170:	54400098 	bnezl	v0,9d00c3d4 <__intscan+0x55c>
9d00c174:	3c139d01 	lui	s3,0x9d01
9d00c178:	8e02003c 	lw	v0,60(s0)
9d00c17c:	8e03004c 	lw	v1,76(s0)
9d00c180:	0043182b 	sltu	v1,v0,v1
9d00c184:	10600060 	beqz	v1,9d00c308 <__intscan+0x490>
9d00c188:	24430001 	addiu	v1,v0,1
9d00c18c:	ae03003c 	sw	v1,60(s0)
9d00c190:	90490000 	lbu	t1,0(v0)
9d00c194:	00e02025 	move	a0,a3
9d00c198:	03c02825 	move	a1,s8
9d00c19c:	02c03025 	move	a2,s6
9d00c1a0:	0f4050d4 	jal	9d014350 <__ashldi3>
9d00c1a4:	afa90018 	sw	t1,24(sp)
9d00c1a8:	02e23825 	or	a3,s7,v0
9d00c1ac:	0060f025 	move	s8,v1
9d00c1b0:	1000ffe5 	b	9d00c148 <__intscan+0x2d0>
9d00c1b4:	8fa90018 	lw	t1,24(sp)
9d00c1b8:	8e03004c 	lw	v1,76(s0)
9d00c1bc:	0043182b 	sltu	v1,v0,v1
9d00c1c0:	10600036 	beqz	v1,9d00c29c <__intscan+0x424>
9d00c1c4:	24430001 	addiu	v1,v0,1
9d00c1c8:	ae03003c 	sw	v1,60(s0)
9d00c1cc:	90420000 	lbu	v0,0(v0)
9d00c1d0:	2407000a 	li	a3,10
9d00c1d4:	72671802 	mul	v1,s3,a3
9d00c1d8:	00693821 	addu	a3,v1,t1
9d00c1dc:	24f3ffd0 	addiu	s3,a3,-48
9d00c1e0:	00404825 	move	t1,v0
9d00c1e4:	2522ffd0 	addiu	v0,t1,-48
9d00c1e8:	2c42000a 	sltiu	v0,v0,10
9d00c1ec:	10400003 	beqz	v0,9d00c1fc <__intscan+0x384>
9d00c1f0:	0275102b 	sltu	v0,s3,s5
9d00c1f4:	5440fff0 	bnezl	v0,9d00c1b8 <__intscan+0x340>
9d00c1f8:	8e02003c 	lw	v0,60(s0)
9d00c1fc:	3c151999 	lui	s5,0x1999
9d00c200:	02603825 	move	a3,s3
9d00c204:	0000f025 	move	s8,zero
9d00c208:	36b5999a 	ori	s5,s5,0x999a
9d00c20c:	2533ffd0 	addiu	s3,t1,-48
9d00c210:	2e62000a 	sltiu	v0,s3,10
9d00c214:	10400087 	beqz	v0,9d00c434 <__intscan+0x5bc>
9d00c218:	03d5102b 	sltu	v0,s8,s5
9d00c21c:	1040006c 	beqz	v0,9d00c3d0 <__intscan+0x558>
9d00c220:	26a2ffff 	addiu	v0,s5,-1
9d00c224:	17c20006 	bne	s8,v0,9d00c240 <__intscan+0x3c8>
9d00c228:	2402000a 	li	v0,10
9d00c22c:	3c029999 	lui	v0,0x9999
9d00c230:	3442999a 	ori	v0,v0,0x999a
9d00c234:	00e2102b 	sltu	v0,a3,v0
9d00c238:	10400065 	beqz	v0,9d00c3d0 <__intscan+0x558>
9d00c23c:	2402000a 	li	v0,10
9d00c240:	00470019 	multu	v0,a3
9d00c244:	0000b810 	mfhi	s7
9d00c248:	0000b012 	mflo	s6
9d00c24c:	705e1802 	mul	v1,v0,s8
9d00c250:	0077b821 	addu	s7,v1,s7
9d00c254:	2403ffff 	li	v1,-1
9d00c258:	16e30004 	bne	s7,v1,9d00c26c <__intscan+0x3f4>
9d00c25c:	00131027 	nor	v0,zero,s3
9d00c260:	0056102b 	sltu	v0,v0,s6
9d00c264:	5440005b 	bnezl	v0,9d00c3d4 <__intscan+0x55c>
9d00c268:	3c139d01 	lui	s3,0x9d01
9d00c26c:	8e02003c 	lw	v0,60(s0)
9d00c270:	8e03004c 	lw	v1,76(s0)
9d00c274:	0043182b 	sltu	v1,v0,v1
9d00c278:	10600010 	beqz	v1,9d00c2bc <__intscan+0x444>
9d00c27c:	00000000 	nop
9d00c280:	24430001 	addiu	v1,v0,1
9d00c284:	ae03003c 	sw	v1,60(s0)
9d00c288:	90490000 	lbu	t1,0(v0)
9d00c28c:	02763821 	addu	a3,s3,s6
9d00c290:	00f6402b 	sltu	t0,a3,s6
9d00c294:	1000ffdd 	b	9d00c20c <__intscan+0x394>
9d00c298:	0117f021 	addu	s8,t0,s7
9d00c29c:	02002025 	move	a0,s0
9d00c2a0:	0f4049ab 	jal	9d0126ac <__shgetc>
9d00c2a4:	afa90014 	sw	t1,20(sp)
9d00c2a8:	1000ffc9 	b	9d00c1d0 <__intscan+0x358>
9d00c2ac:	8fa90014 	lw	t1,20(sp)
9d00c2b0:	00009825 	move	s3,zero
9d00c2b4:	1000ffcb 	b	9d00c1e4 <__intscan+0x36c>
9d00c2b8:	36b59999 	ori	s5,s5,0x9999
9d00c2bc:	0f4049ab 	jal	9d0126ac <__shgetc>
9d00c2c0:	02002025 	move	a0,s0
9d00c2c4:	1000fff1 	b	9d00c28c <__intscan+0x414>
9d00c2c8:	00404825 	move	t1,v0
9d00c2cc:	1000ff7f 	b	9d00c0cc <__intscan+0x254>
9d00c2d0:	24110008 	li	s1,8
9d00c2d4:	8e03004c 	lw	v1,76(s0)
9d00c2d8:	0043182b 	sltu	v1,v0,v1
9d00c2dc:	10600006 	beqz	v1,9d00c2f8 <__intscan+0x480>
9d00c2e0:	24430001 	addiu	v1,v0,1
9d00c2e4:	ae03003c 	sw	v1,60(s0)
9d00c2e8:	90490000 	lbu	t1,0(v0)
9d00c2ec:	02d53804 	sllv	a3,s5,s6
9d00c2f0:	1000ff82 	b	9d00c0fc <__intscan+0x284>
9d00c2f4:	00f7a825 	or	s5,a3,s7
9d00c2f8:	0f4049ab 	jal	9d0126ac <__shgetc>
9d00c2fc:	02002025 	move	a0,s0
9d00c300:	1000fffa 	b	9d00c2ec <__intscan+0x474>
9d00c304:	00404825 	move	t1,v0
9d00c308:	02002025 	move	a0,s0
9d00c30c:	0f4049ab 	jal	9d0126ac <__shgetc>
9d00c310:	afa70018 	sw	a3,24(sp)
9d00c314:	00404825 	move	t1,v0
9d00c318:	1000ff9e 	b	9d00c194 <__intscan+0x31c>
9d00c31c:	8fa70018 	lw	a3,24(sp)
9d00c320:	8e03004c 	lw	v1,76(s0)
9d00c324:	0043182b 	sltu	v1,v0,v1
9d00c328:	1060005d 	beqz	v1,9d00c4a0 <__intscan+0x628>
9d00c32c:	24430001 	addiu	v1,v0,1
9d00c330:	ae03003c 	sw	v1,60(s0)
9d00c334:	90490000 	lbu	t1,0(v0)
9d00c338:	72351002 	mul	v0,s1,s5
9d00c33c:	0056a821 	addu	s5,v0,s6
9d00c340:	02691021 	addu	v0,s3,t1
9d00c344:	90560000 	lbu	s6,0(v0)
9d00c348:	02d1102b 	sltu	v0,s6,s1
9d00c34c:	10400005 	beqz	v0,9d00c364 <__intscan+0x4ec>
9d00c350:	3c02071c 	lui	v0,0x71c
9d00c354:	244271c7 	addiu	v0,v0,29127
9d00c358:	02a2102b 	sltu	v0,s5,v0
9d00c35c:	5440fff0 	bnezl	v0,9d00c320 <__intscan+0x4a8>
9d00c360:	8e02003c 	lw	v0,60(s0)
9d00c364:	02a03825 	move	a3,s5
9d00c368:	0000f025 	move	s8,zero
9d00c36c:	02691021 	addu	v0,s3,t1
9d00c370:	90550000 	lbu	s5,0(v0)
9d00c374:	02b1102b 	sltu	v0,s5,s1
9d00c378:	10400015 	beqz	v0,9d00c3d0 <__intscan+0x558>
9d00c37c:	00f10019 	multu	a3,s1
9d00c380:	00002012 	mflo	a0
9d00c384:	13c00009 	beqz	s8,9d00c3ac <__intscan+0x534>
9d00c388:	00002810 	mfhi	a1
9d00c38c:	023e0019 	multu	s1,s8
9d00c390:	00006012 	mflo	t4
9d00c394:	00ac1021 	addu	v0,a1,t4
9d00c398:	004c102b 	sltu	v0,v0,t4
9d00c39c:	00006810 	mfhi	t5
9d00c3a0:	004d1021 	addu	v0,v0,t5
9d00c3a4:	5440000b 	bnezl	v0,9d00c3d4 <__intscan+0x55c>
9d00c3a8:	3c139d01 	lui	s3,0x9d01
9d00c3ac:	73d11002 	mul	v0,s8,s1
9d00c3b0:	2403ffff 	li	v1,-1
9d00c3b4:	0080b025 	move	s6,a0
9d00c3b8:	0045b821 	addu	s7,v0,a1
9d00c3bc:	16e3003e 	bne	s7,v1,9d00c4b8 <__intscan+0x640>
9d00c3c0:	00151027 	nor	v0,zero,s5
9d00c3c4:	0044102b 	sltu	v0,v0,a0
9d00c3c8:	5040003c 	beqzl	v0,9d00c4bc <__intscan+0x644>
9d00c3cc:	8e02003c 	lw	v0,60(s0)
9d00c3d0:	3c139d01 	lui	s3,0x9d01
9d00c3d4:	26731ce9 	addiu	s3,s3,7401
9d00c3d8:	01334821 	addu	t1,t1,s3
9d00c3dc:	91220000 	lbu	v0,0(t1)
9d00c3e0:	0051102b 	sltu	v0,v0,s1
9d00c3e4:	50400014 	beqzl	v0,9d00c438 <__intscan+0x5c0>
9d00c3e8:	8e02004c 	lw	v0,76(s0)
9d00c3ec:	8e02003c 	lw	v0,60(s0)
9d00c3f0:	8e03004c 	lw	v1,76(s0)
9d00c3f4:	0043182b 	sltu	v1,v0,v1
9d00c3f8:	1060003e 	beqz	v1,9d00c4f4 <__intscan+0x67c>
9d00c3fc:	24430001 	addiu	v1,v0,1
9d00c400:	ae03003c 	sw	v1,60(s0)
9d00c404:	90420000 	lbu	v0,0(v0)
9d00c408:	02621021 	addu	v0,s3,v0
9d00c40c:	90420000 	lbu	v0,0(v0)
9d00c410:	0051102b 	sltu	v0,v0,s1
9d00c414:	1440fff5 	bnez	v0,9d00c3ec <__intscan+0x574>
9d00c418:	3c02a000 	lui	v0,0xa000
9d00c41c:	24030022 	li	v1,34
9d00c420:	8fbe0010 	lw	s8,16(sp)
9d00c424:	ac4353b4 	sw	v1,21428(v0)
9d00c428:	32420001 	andi	v0,s2,0x1
9d00c42c:	02403825 	move	a3,s2
9d00c430:	0002a00b 	movn	s4,zero,v0
9d00c434:	8e02004c 	lw	v0,76(s0)
9d00c438:	10400005 	beqz	v0,9d00c450 <__intscan+0x5d8>
9d00c43c:	8fa20010 	lw	v0,16(sp)
9d00c440:	8e02003c 	lw	v0,60(s0)
9d00c444:	2442ffff 	addiu	v0,v0,-1
9d00c448:	ae02003c 	sw	v0,60(s0)
9d00c44c:	8fa20010 	lw	v0,16(sp)
9d00c450:	03c2102b 	sltu	v0,s8,v0
9d00c454:	14400039 	bnez	v0,9d00c53c <__intscan+0x6c4>
9d00c458:	8fa20010 	lw	v0,16(sp)
9d00c45c:	145e0003 	bne	v0,s8,9d00c46c <__intscan+0x5f4>
9d00c460:	00f2102b 	sltu	v0,a3,s2
9d00c464:	14400036 	bnez	v0,9d00c540 <__intscan+0x6c8>
9d00c468:	2402ffff 	li	v0,-1
9d00c46c:	32420001 	andi	v0,s2,0x1
9d00c470:	14400025 	bnez	v0,9d00c508 <__intscan+0x690>
9d00c474:	8fa20010 	lw	v0,16(sp)
9d00c478:	16800022 	bnez	s4,9d00c504 <__intscan+0x68c>
9d00c47c:	3c02a000 	lui	v0,0xa000
9d00c480:	24030022 	li	v1,34
9d00c484:	ac4353b4 	sw	v1,21428(v0)
9d00c488:	8fa20010 	lw	v0,16(sp)
9d00c48c:	2647ffff 	addiu	a3,s2,-1
9d00c490:	00f2902b 	sltu	s2,a3,s2
9d00c494:	2451ffff 	addiu	s1,v0,-1
9d00c498:	1000feeb 	b	9d00c048 <__intscan+0x1d0>
9d00c49c:	0251f021 	addu	s8,s2,s1
9d00c4a0:	0f4049ab 	jal	9d0126ac <__shgetc>
9d00c4a4:	02002025 	move	a0,s0
9d00c4a8:	1000ffa3 	b	9d00c338 <__intscan+0x4c0>
9d00c4ac:	00404825 	move	t1,v0
9d00c4b0:	1000ffa3 	b	9d00c340 <__intscan+0x4c8>
9d00c4b4:	0000a825 	move	s5,zero
9d00c4b8:	8e02003c 	lw	v0,60(s0)
9d00c4bc:	8e03004c 	lw	v1,76(s0)
9d00c4c0:	0043182b 	sltu	v1,v0,v1
9d00c4c4:	10600007 	beqz	v1,9d00c4e4 <__intscan+0x66c>
9d00c4c8:	24430001 	addiu	v1,v0,1
9d00c4cc:	ae03003c 	sw	v1,60(s0)
9d00c4d0:	90490000 	lbu	t1,0(v0)
9d00c4d4:	02b63821 	addu	a3,s5,s6
9d00c4d8:	00f6402b 	sltu	t0,a3,s6
9d00c4dc:	1000ffa3 	b	9d00c36c <__intscan+0x4f4>
9d00c4e0:	0117f021 	addu	s8,t0,s7
9d00c4e4:	0f4049ab 	jal	9d0126ac <__shgetc>
9d00c4e8:	02002025 	move	a0,s0
9d00c4ec:	1000fff9 	b	9d00c4d4 <__intscan+0x65c>
9d00c4f0:	00404825 	move	t1,v0
9d00c4f4:	0f4049ab 	jal	9d0126ac <__shgetc>
9d00c4f8:	02002025 	move	a0,s0
9d00c4fc:	1000ffc3 	b	9d00c40c <__intscan+0x594>
9d00c500:	02621021 	addu	v0,s3,v0
9d00c504:	8fa20010 	lw	v0,16(sp)
9d00c508:	005e102b 	sltu	v0,v0,s8
9d00c50c:	14400005 	bnez	v0,9d00c524 <__intscan+0x6ac>
9d00c510:	8fa20010 	lw	v0,16(sp)
9d00c514:	17c20009 	bne	s8,v0,9d00c53c <__intscan+0x6c4>
9d00c518:	0247102b 	sltu	v0,s2,a3
9d00c51c:	10400008 	beqz	v0,9d00c540 <__intscan+0x6c8>
9d00c520:	2402ffff 	li	v0,-1
9d00c524:	3c02a000 	lui	v0,0xa000
9d00c528:	24030022 	li	v1,34
9d00c52c:	ac4353b4 	sw	v1,21428(v0)
9d00c530:	02403825 	move	a3,s2
9d00c534:	1000fec4 	b	9d00c048 <__intscan+0x1d0>
9d00c538:	8fbe0010 	lw	s8,16(sp)
9d00c53c:	2402ffff 	li	v0,-1
9d00c540:	1682fec1 	bne	s4,v0,9d00c048 <__intscan+0x1d0>
9d00c544:	001e4023 	negu	t0,s8
9d00c548:	00073823 	negu	a3,a3
9d00c54c:	0007102b 	sltu	v0,zero,a3
9d00c550:	1000febd 	b	9d00c048 <__intscan+0x1d0>
9d00c554:	0102f023 	subu	s8,t0,v0
9d00c558:	1660febb 	bnez	s3,9d00c048 <__intscan+0x1d0>
9d00c55c:	0000f025 	move	s8,zero
9d00c560:	1000fed2 	b	9d00c0ac <__intscan+0x234>
9d00c564:	00002825 	move	a1,zero
9d00c568:	1122fe96 	beq	t1,v0,9d00bfc4 <__intscan+0x14c>
9d00c56c:	3c029d01 	lui	v0,0x9d01
9d00c570:	1000fe7b 	b	9d00bf60 <__intscan+0xe8>
9d00c574:	24421ce9 	addiu	v0,v0,7401

Disassembly of section .text.__printf_core:

9d00c578 <__printf_core>:
9d00c578:	27bdff18 	addiu	sp,sp,-232
9d00c57c:	afb400dc 	sw	s4,220(sp)
9d00c580:	afb300d8 	sw	s3,216(sp)
9d00c584:	afb200d4 	sw	s2,212(sp)
9d00c588:	afb100d0 	sw	s1,208(sp)
9d00c58c:	afbf00e4 	sw	ra,228(sp)
9d00c590:	afb500e0 	sw	s5,224(sp)
9d00c594:	afb000cc 	sw	s0,204(sp)
9d00c598:	00809025 	move	s2,a0
9d00c59c:	00c08825 	move	s1,a2
9d00c5a0:	afa500b8 	sw	a1,184(sp)
9d00c5a4:	00009825 	move	s3,zero
9d00c5a8:	3c149d00 	lui	s4,0x9d00
9d00c5ac:	8fa500b8 	lw	a1,184(sp)
9d00c5b0:	80a20000 	lb	v0,0(a1)
9d00c5b4:	104000e4 	beqz	v0,9d00c948 <__printf_core+0x3d0>
9d00c5b8:	2402ffff 	li	v0,-1
9d00c5bc:	afa2009c 	sw	v0,156(sp)
9d00c5c0:	27a20018 	addiu	v0,sp,24
9d00c5c4:	afa200a4 	sw	v0,164(sp)
9d00c5c8:	24020080 	li	v0,128
9d00c5cc:	afa00098 	sw	zero,152(sp)
9d00c5d0:	afa000a0 	sw	zero,160(sp)
9d00c5d4:	afa200a8 	sw	v0,168(sp)
9d00c5d8:	00008025 	move	s0,zero
9d00c5dc:	24030025 	li	v1,37
9d00c5e0:	00b01021 	addu	v0,a1,s0
9d00c5e4:	80420000 	lb	v0,0(v0)
9d00c5e8:	10400003 	beqz	v0,9d00c5f8 <__printf_core+0x80>
9d00c5ec:	00000000 	nop
9d00c5f0:	5443fffb 	bnel	v0,v1,9d00c5e0 <__printf_core+0x68>
9d00c5f4:	26100001 	addiu	s0,s0,1
9d00c5f8:	12000006 	beqz	s0,9d00c614 <__printf_core+0x9c>
9d00c5fc:	02003025 	move	a2,s0
9d00c600:	0f404c30 	jal	9d0130c0 <__out>
9d00c604:	02402025 	move	a0,s2
9d00c608:	8fa200b8 	lw	v0,184(sp)
9d00c60c:	00501021 	addu	v0,v0,s0
9d00c610:	afa200b8 	sw	v0,184(sp)
9d00c614:	8fb500b8 	lw	s5,184(sp)
9d00c618:	24020025 	li	v0,37
9d00c61c:	82a30000 	lb	v1,0(s5)
9d00c620:	146200c2 	bne	v1,v0,9d00c92c <__printf_core+0x3b4>
9d00c624:	26b50001 	addiu	s5,s5,1
9d00c628:	afb500b8 	sw	s5,184(sp)
9d00c62c:	2405002b 	li	a1,43
9d00c630:	2406002d 	li	a2,45
9d00c634:	24030030 	li	v1,48
9d00c638:	24070020 	li	a3,32
9d00c63c:	24080023 	li	t0,35
9d00c640:	8fa400b8 	lw	a0,184(sp)
9d00c644:	80820000 	lb	v0,0(a0)
9d00c648:	5045001b 	beql	v0,a1,9d00c6b8 <__printf_core+0x140>
9d00c64c:	8fa20098 	lw	v0,152(sp)
9d00c650:	2849002c 	slti	t1,v0,44
9d00c654:	1120001e 	beqz	t1,9d00c6d0 <__printf_core+0x158>
9d00c658:	00000000 	nop
9d00c65c:	50470018 	beql	v0,a3,9d00c6c0 <__printf_core+0x148>
9d00c660:	8fa20098 	lw	v0,152(sp)
9d00c664:	50480018 	beql	v0,t0,9d00c6c8 <__printf_core+0x150>
9d00c668:	8fa20098 	lw	v0,152(sp)
9d00c66c:	2403002a 	li	v1,42
9d00c670:	5043001e 	beql	v0,v1,9d00c6ec <__printf_core+0x174>
9d00c674:	8e220000 	lw	v0,0(s1)
9d00c678:	0f404d39 	jal	9d0134e4 <atoi>
9d00c67c:	00000000 	nop
9d00c680:	afa200a0 	sw	v0,160(sp)
9d00c684:	8fa300b8 	lw	v1,184(sp)
9d00c688:	80620000 	lb	v0,0(v1)
9d00c68c:	2442ffd0 	addiu	v0,v0,-48
9d00c690:	2c42000a 	sltiu	v0,v0,10
9d00c694:	10400021 	beqz	v0,9d00c71c <__printf_core+0x1a4>
9d00c698:	24630001 	addiu	v1,v1,1
9d00c69c:	1000fff9 	b	9d00c684 <__printf_core+0x10c>
9d00c6a0:	afa300b8 	sw	v1,184(sp)
9d00c6a4:	34420001 	ori	v0,v0,0x1
9d00c6a8:	24840001 	addiu	a0,a0,1
9d00c6ac:	afa20098 	sw	v0,152(sp)
9d00c6b0:	1000ffe3 	b	9d00c640 <__printf_core+0xc8>
9d00c6b4:	afa400b8 	sw	a0,184(sp)
9d00c6b8:	1000fffb 	b	9d00c6a8 <__printf_core+0x130>
9d00c6bc:	34420004 	ori	v0,v0,0x4
9d00c6c0:	1000fff9 	b	9d00c6a8 <__printf_core+0x130>
9d00c6c4:	34420008 	ori	v0,v0,0x8
9d00c6c8:	1000fff7 	b	9d00c6a8 <__printf_core+0x130>
9d00c6cc:	34420010 	ori	v0,v0,0x10
9d00c6d0:	5046fff4 	beql	v0,a2,9d00c6a4 <__printf_core+0x12c>
9d00c6d4:	8fa20098 	lw	v0,152(sp)
9d00c6d8:	5443ffe5 	bnel	v0,v1,9d00c670 <__printf_core+0xf8>
9d00c6dc:	2403002a 	li	v1,42
9d00c6e0:	8fa20098 	lw	v0,152(sp)
9d00c6e4:	1000fff0 	b	9d00c6a8 <__printf_core+0x130>
9d00c6e8:	34420002 	ori	v0,v0,0x2
9d00c6ec:	24840001 	addiu	a0,a0,1
9d00c6f0:	afa400b8 	sw	a0,184(sp)
9d00c6f4:	24430004 	addiu	v1,v0,4
9d00c6f8:	8c420000 	lw	v0,0(v0)
9d00c6fc:	ae230000 	sw	v1,0(s1)
9d00c700:	04410006 	bgez	v0,9d00c71c <__printf_core+0x1a4>
9d00c704:	afa200a0 	sw	v0,160(sp)
9d00c708:	8fa30098 	lw	v1,152(sp)
9d00c70c:	00021023 	negu	v0,v0
9d00c710:	afa200a0 	sw	v0,160(sp)
9d00c714:	38630001 	xori	v1,v1,0x1
9d00c718:	afa30098 	sw	v1,152(sp)
9d00c71c:	8fa20098 	lw	v0,152(sp)
9d00c720:	30430001 	andi	v1,v0,0x1
9d00c724:	10600002 	beqz	v1,9d00c730 <__printf_core+0x1b8>
9d00c728:	7c020844 	ins	v0,zero,0x1,0x1
9d00c72c:	afa20098 	sw	v0,152(sp)
9d00c730:	8fa200b8 	lw	v0,184(sp)
9d00c734:	2403002e 	li	v1,46
9d00c738:	80440000 	lb	a0,0(v0)
9d00c73c:	1483000d 	bne	a0,v1,9d00c774 <__printf_core+0x1fc>
9d00c740:	24440001 	addiu	a0,v0,1
9d00c744:	afa0009c 	sw	zero,156(sp)
9d00c748:	afa400b8 	sw	a0,184(sp)
9d00c74c:	80450001 	lb	a1,1(v0)
9d00c750:	2403002a 	li	v1,42
9d00c754:	14a30023 	bne	a1,v1,9d00c7e4 <__printf_core+0x26c>
9d00c758:	24420002 	addiu	v0,v0,2
9d00c75c:	afa200b8 	sw	v0,184(sp)
9d00c760:	8e220000 	lw	v0,0(s1)
9d00c764:	24430004 	addiu	v1,v0,4
9d00c768:	8c420000 	lw	v0,0(v0)
9d00c76c:	ae230000 	sw	v1,0(s1)
9d00c770:	afa2009c 	sw	v0,156(sp)
9d00c774:	0f404f03 	jal	9d013c0c <__fmt_state>
9d00c778:	27a400b8 	addiu	a0,sp,184
9d00c77c:	afa200c0 	sw	v0,192(sp)
9d00c780:	8fa200b8 	lw	v0,184(sp)
9d00c784:	0f405251 	jal	9d014944 <tolower>
9d00c788:	80440000 	lb	a0,0(v0)
9d00c78c:	24030069 	li	v1,105
9d00c790:	10430077 	beq	v0,v1,9d00c970 <__printf_core+0x3f8>
9d00c794:	8fa500c0 	lw	a1,192(sp)
9d00c798:	2843006a 	slti	v1,v0,106
9d00c79c:	1060002f 	beqz	v1,9d00c85c <__printf_core+0x2e4>
9d00c7a0:	24030063 	li	v1,99
9d00c7a4:	104300be 	beq	v0,v1,9d00caa0 <__printf_core+0x528>
9d00c7a8:	28430064 	slti	v1,v0,100
9d00c7ac:	10600018 	beqz	v1,9d00c810 <__printf_core+0x298>
9d00c7b0:	24030025 	li	v1,37
9d00c7b4:	104300cb 	beq	v0,v1,9d00cae4 <__printf_core+0x56c>
9d00c7b8:	24030061 	li	v1,97
9d00c7bc:	5043004f 	beql	v0,v1,9d00c8fc <__printf_core+0x384>
9d00c7c0:	02203025 	move	a2,s1
9d00c7c4:	2402ffff 	li	v0,-1
9d00c7c8:	afb500b8 	sw	s5,184(sp)
9d00c7cc:	afa00098 	sw	zero,152(sp)
9d00c7d0:	afa000a0 	sw	zero,160(sp)
9d00c7d4:	afa2009c 	sw	v0,156(sp)
9d00c7d8:	afa00010 	sw	zero,16(sp)
9d00c7dc:	100000c9 	b	9d00cb04 <__printf_core+0x58c>
9d00c7e0:	00003825 	move	a3,zero
9d00c7e4:	0f404d39 	jal	9d0134e4 <atoi>
9d00c7e8:	00000000 	nop
9d00c7ec:	afa2009c 	sw	v0,156(sp)
9d00c7f0:	8fa300b8 	lw	v1,184(sp)
9d00c7f4:	80620000 	lb	v0,0(v1)
9d00c7f8:	2442ffd0 	addiu	v0,v0,-48
9d00c7fc:	2c42000a 	sltiu	v0,v0,10
9d00c800:	1040ffdc 	beqz	v0,9d00c774 <__printf_core+0x1fc>
9d00c804:	24630001 	addiu	v1,v1,1
9d00c808:	1000fff9 	b	9d00c7f0 <__printf_core+0x278>
9d00c80c:	afa300b8 	sw	v1,184(sp)
9d00c810:	24030064 	li	v1,100
9d00c814:	10430056 	beq	v0,v1,9d00c970 <__printf_core+0x3f8>
9d00c818:	28420068 	slti	v0,v0,104
9d00c81c:	1040ffea 	beqz	v0,9d00c7c8 <__printf_core+0x250>
9d00c820:	2402ffff 	li	v0,-1
9d00c824:	02203025 	move	a2,s1
9d00c828:	0f404f6f 	jal	9d013dbc <__pop_float>
9d00c82c:	27a400b0 	addiu	a0,sp,176
9d00c830:	10400097 	beqz	v0,9d00ca90 <__printf_core+0x518>
9d00c834:	8fa200b8 	lw	v0,184(sp)
9d00c838:	27a600b0 	addiu	a2,sp,176
9d00c83c:	27a50098 	addiu	a1,sp,152
9d00c840:	24430001 	addiu	v1,v0,1
9d00c844:	afa300b8 	sw	v1,184(sp)
9d00c848:	80470000 	lb	a3,0(v0)
9d00c84c:	0f4029c9 	jal	9d00a724 <__fmt_fp>
9d00c850:	02402025 	move	a0,s2
9d00c854:	10000035 	b	9d00c92c <__printf_core+0x3b4>
9d00c858:	02028021 	addu	s0,s0,v0
9d00c85c:	24030070 	li	v1,112
9d00c860:	1043006e 	beq	v0,v1,9d00ca1c <__printf_core+0x4a4>
9d00c864:	28430071 	slti	v1,v0,113
9d00c868:	10600013 	beqz	v1,9d00c8b8 <__printf_core+0x340>
9d00c86c:	2403006e 	li	v1,110
9d00c870:	10430083 	beq	v0,v1,9d00ca80 <__printf_core+0x508>
9d00c874:	2403006f 	li	v1,111
9d00c878:	1443ffd3 	bne	v0,v1,9d00c7c8 <__printf_core+0x250>
9d00c87c:	2402ffff 	li	v0,-1
9d00c880:	02203825 	move	a3,s1
9d00c884:	00003025 	move	a2,zero
9d00c888:	0f4041c0 	jal	9d010700 <__pop_int>
9d00c88c:	27a400b0 	addiu	a0,sp,176
9d00c890:	1040007f 	beqz	v0,9d00ca90 <__printf_core+0x518>
9d00c894:	8fa200b8 	lw	v0,184(sp)
9d00c898:	27a600b0 	addiu	a2,sp,176
9d00c89c:	27a50098 	addiu	a1,sp,152
9d00c8a0:	24420001 	addiu	v0,v0,1
9d00c8a4:	02402025 	move	a0,s2
9d00c8a8:	0f4052d9 	jal	9d014b64 <__fmt_o>
9d00c8ac:	afa200b8 	sw	v0,184(sp)
9d00c8b0:	1000001e 	b	9d00c92c <__printf_core+0x3b4>
9d00c8b4:	02028021 	addu	s0,s0,v0
9d00c8b8:	24030075 	li	v1,117
9d00c8bc:	1043003a 	beq	v0,v1,9d00c9a8 <__printf_core+0x430>
9d00c8c0:	24030078 	li	v1,120
9d00c8c4:	10430046 	beq	v0,v1,9d00c9e0 <__printf_core+0x468>
9d00c8c8:	24030073 	li	v1,115
9d00c8cc:	1443ffbd 	bne	v0,v1,9d00c7c4 <__printf_core+0x24c>
9d00c8d0:	24020080 	li	v0,128
9d00c8d4:	14a2006e 	bne	a1,v0,9d00ca90 <__printf_core+0x518>
9d00c8d8:	8fa200b8 	lw	v0,184(sp)
9d00c8dc:	00003825 	move	a3,zero
9d00c8e0:	24420001 	addiu	v0,v0,1
9d00c8e4:	afa200b8 	sw	v0,184(sp)
9d00c8e8:	8e220000 	lw	v0,0(s1)
9d00c8ec:	24430004 	addiu	v1,v0,4
9d00c8f0:	ae230000 	sw	v1,0(s1)
9d00c8f4:	10000076 	b	9d00cad0 <__printf_core+0x558>
9d00c8f8:	8c460000 	lw	a2,0(v0)
9d00c8fc:	0f404f6f 	jal	9d013dbc <__pop_float>
9d00c900:	27a400b0 	addiu	a0,sp,176
9d00c904:	10400062 	beqz	v0,9d00ca90 <__printf_core+0x518>
9d00c908:	8fa200b8 	lw	v0,184(sp)
9d00c90c:	27a600b0 	addiu	a2,sp,176
9d00c910:	27a50098 	addiu	a1,sp,152
9d00c914:	24430001 	addiu	v1,v0,1
9d00c918:	afa300b8 	sw	v1,184(sp)
9d00c91c:	80470000 	lb	a3,0(v0)
9d00c920:	0f4052db 	jal	9d014b6c <__fmt_a>
9d00c924:	02402025 	move	a0,s2
9d00c928:	02028021 	addu	s0,s0,v0
9d00c92c:	02708021 	addu	s0,s3,s0
9d00c930:	0213982a 	slt	s3,s0,s3
9d00c934:	12600077 	beqz	s3,9d00cb14 <__printf_core+0x59c>
9d00c938:	3c02a000 	lui	v0,0xa000
9d00c93c:	2403004f 	li	v1,79
9d00c940:	ac4353b4 	sw	v1,21428(v0)
9d00c944:	2413ffff 	li	s3,-1
9d00c948:	8fbf00e4 	lw	ra,228(sp)
9d00c94c:	02601025 	move	v0,s3
9d00c950:	8fb500e0 	lw	s5,224(sp)
9d00c954:	8fb400dc 	lw	s4,220(sp)
9d00c958:	8fb300d8 	lw	s3,216(sp)
9d00c95c:	8fb200d4 	lw	s2,212(sp)
9d00c960:	8fb100d0 	lw	s1,208(sp)
9d00c964:	8fb000cc 	lw	s0,204(sp)
9d00c968:	03e00008 	jr	ra
9d00c96c:	27bd00e8 	addiu	sp,sp,232
9d00c970:	02203825 	move	a3,s1
9d00c974:	24060001 	li	a2,1
9d00c978:	0f4041c0 	jal	9d010700 <__pop_int>
9d00c97c:	27a400b0 	addiu	a0,sp,176
9d00c980:	10400043 	beqz	v0,9d00ca90 <__printf_core+0x518>
9d00c984:	8fa200b8 	lw	v0,184(sp)
9d00c988:	27a600b0 	addiu	a2,sp,176
9d00c98c:	27a50098 	addiu	a1,sp,152
9d00c990:	24420001 	addiu	v0,v0,1
9d00c994:	02402025 	move	a0,s2
9d00c998:	0f404442 	jal	9d011108 <__fmt_d>
9d00c99c:	afa200b8 	sw	v0,184(sp)
9d00c9a0:	1000ffe2 	b	9d00c92c <__printf_core+0x3b4>
9d00c9a4:	02028021 	addu	s0,s0,v0
9d00c9a8:	02203825 	move	a3,s1
9d00c9ac:	00003025 	move	a2,zero
9d00c9b0:	0f4041c0 	jal	9d010700 <__pop_int>
9d00c9b4:	27a400b0 	addiu	a0,sp,176
9d00c9b8:	10400035 	beqz	v0,9d00ca90 <__printf_core+0x518>
9d00c9bc:	8fa200b8 	lw	v0,184(sp)
9d00c9c0:	27a600b0 	addiu	a2,sp,176
9d00c9c4:	27a50098 	addiu	a1,sp,152
9d00c9c8:	24420001 	addiu	v0,v0,1
9d00c9cc:	02402025 	move	a0,s2
9d00c9d0:	0f4052d9 	jal	9d014b64 <__fmt_o>
9d00c9d4:	afa200b8 	sw	v0,184(sp)
9d00c9d8:	1000ffd4 	b	9d00c92c <__printf_core+0x3b4>
9d00c9dc:	02028021 	addu	s0,s0,v0
9d00c9e0:	02203825 	move	a3,s1
9d00c9e4:	00003025 	move	a2,zero
9d00c9e8:	0f4041c0 	jal	9d010700 <__pop_int>
9d00c9ec:	27a400b0 	addiu	a0,sp,176
9d00c9f0:	10400027 	beqz	v0,9d00ca90 <__printf_core+0x518>
9d00c9f4:	8fa200b8 	lw	v0,184(sp)
9d00c9f8:	24430001 	addiu	v1,v0,1
9d00c9fc:	afa300b8 	sw	v1,184(sp)
9d00ca00:	80470000 	lb	a3,0(v0)
9d00ca04:	27a600b0 	addiu	a2,sp,176
9d00ca08:	27a50098 	addiu	a1,sp,152
9d00ca0c:	0f4052db 	jal	9d014b6c <__fmt_a>
9d00ca10:	02402025 	move	a0,s2
9d00ca14:	1000ffc5 	b	9d00c92c <__printf_core+0x3b4>
9d00ca18:	02028021 	addu	s0,s0,v0
9d00ca1c:	02203825 	move	a3,s1
9d00ca20:	00003025 	move	a2,zero
9d00ca24:	240500f0 	li	a1,240
9d00ca28:	0f4041c0 	jal	9d010700 <__pop_int>
9d00ca2c:	27a400b0 	addiu	a0,sp,176
9d00ca30:	10400017 	beqz	v0,9d00ca90 <__printf_core+0x518>
9d00ca34:	8fa200b8 	lw	v0,184(sp)
9d00ca38:	8fa300b4 	lw	v1,180(sp)
9d00ca3c:	24420001 	addiu	v0,v0,1
9d00ca40:	afa200b8 	sw	v0,184(sp)
9d00ca44:	8fa200b0 	lw	v0,176(sp)
9d00ca48:	00431025 	or	v0,v0,v1
9d00ca4c:	1440ffed 	bnez	v0,9d00ca04 <__printf_core+0x48c>
9d00ca50:	24070078 	li	a3,120
9d00ca54:	0f405124 	jal	9d014490 <strlen>
9d00ca58:	26847590 	addiu	a0,s4,30096
9d00ca5c:	8fa30098 	lw	v1,152(sp)
9d00ca60:	8fa700a0 	lw	a3,160(sp)
9d00ca64:	00403025 	move	a2,v0
9d00ca68:	afa30010 	sw	v1,16(sp)
9d00ca6c:	26857590 	addiu	a1,s4,30096
9d00ca70:	0f4047bd 	jal	9d011ef4 <__pad>
9d00ca74:	02402025 	move	a0,s2
9d00ca78:	1000ffac 	b	9d00c92c <__printf_core+0x3b4>
9d00ca7c:	02028021 	addu	s0,s0,v0
9d00ca80:	02203825 	move	a3,s1
9d00ca84:	02703021 	addu	a2,s3,s0
9d00ca88:	0f404879 	jal	9d0121e4 <__pop_ptr>
9d00ca8c:	27a400b0 	addiu	a0,sp,176
9d00ca90:	8fa200b8 	lw	v0,184(sp)
9d00ca94:	24420001 	addiu	v0,v0,1
9d00ca98:	1000ffa4 	b	9d00c92c <__printf_core+0x3b4>
9d00ca9c:	afa200b8 	sw	v0,184(sp)
9d00caa0:	24020080 	li	v0,128
9d00caa4:	14a2fffa 	bne	a1,v0,9d00ca90 <__printf_core+0x518>
9d00caa8:	8fa200b8 	lw	v0,184(sp)
9d00caac:	24070001 	li	a3,1
9d00cab0:	27a600b0 	addiu	a2,sp,176
9d00cab4:	24420001 	addiu	v0,v0,1
9d00cab8:	afa200b8 	sw	v0,184(sp)
9d00cabc:	8e220000 	lw	v0,0(s1)
9d00cac0:	24430004 	addiu	v1,v0,4
9d00cac4:	8c420000 	lw	v0,0(v0)
9d00cac8:	ae230000 	sw	v1,0(s1)
9d00cacc:	a3a200b0 	sb	v0,176(sp)
9d00cad0:	27a50098 	addiu	a1,sp,152
9d00cad4:	0f4052dd 	jal	9d014b74 <__fmt_s>
9d00cad8:	02402025 	move	a0,s2
9d00cadc:	1000ff93 	b	9d00c92c <__printf_core+0x3b4>
9d00cae0:	02028021 	addu	s0,s0,v0
9d00cae4:	24020080 	li	v0,128
9d00cae8:	14a2ffe9 	bne	a1,v0,9d00ca90 <__printf_core+0x518>
9d00caec:	8fa200b8 	lw	v0,184(sp)
9d00caf0:	8fa700a0 	lw	a3,160(sp)
9d00caf4:	24420001 	addiu	v0,v0,1
9d00caf8:	afa200b8 	sw	v0,184(sp)
9d00cafc:	8fa20098 	lw	v0,152(sp)
9d00cb00:	afa20010 	sw	v0,16(sp)
9d00cb04:	3c059d00 	lui	a1,0x9d00
9d00cb08:	24060001 	li	a2,1
9d00cb0c:	1000ffd8 	b	9d00ca70 <__printf_core+0x4f8>
9d00cb10:	24a57598 	addiu	a1,a1,30104
9d00cb14:	1000fea5 	b	9d00c5ac <__printf_core+0x34>
9d00cb18:	02009825 	move	s3,s0

Disassembly of section .text.dp32mul:

9d00cb1c <__divdf3>:
9d00cb1c:	00055040 000a5542 00054ac0 00047d42     @P..BU...J..B}..
9d00cb2c:	012f4825 000442c0 3c0e8000 012e4825     %H/..B.....<%H..
9d00cb3c:	00076840 000d6d42 000762c0 00067d42     @h..Bm...b..B}..
9d00cb4c:	018f6025 00065ac0 018e6025 00a72826     %`...Z..%`..&(..
9d00cb5c:	00ae2824 254fffff 2de107fe 102000cb     $(....O%...-.. .
9d00cb6c:	00000000                                ....

9d00cb70 <Dlab1>:
9d00cb70:	25afffff 	addiu	t7,t5,-1
9d00cb74:	2de107fe 	sltiu	at,t7,2046
9d00cb78:	102000f4 	beqz	at,9d00cf4c <DspecB>
9d00cb7c:	00000000 	nop

9d00cb80 <Dlab2>:
9d00cb80:	014d5023 	subu	t2,t2,t5
9d00cb84:	254a03ff 	addiu	t2,t2,1023
9d00cb88:	00084042 	srl	t0,t0,0x1
9d00cb8c:	00097fc0 	sll	t7,t1,0x1f
9d00cb90:	010f4025 	or	t0,t0,t7
9d00cb94:	00094842 	srl	t1,t1,0x1
9d00cb98:	000c3c02 	srl	a3,t4,0x10
9d00cb9c:	00e001f4 	teq	a3,zero,0x7
9d00cba0:	0127001b 	divu	zero,t1,a3
9d00cba4:	00007012 	mflo	t6
9d00cba8:	00004810 	mfhi	t1
9d00cbac:	3186ffff 	andi	a2,t4,0xffff
9d00cbb0:	00ce0019 	multu	a2,t6
9d00cbb4:	00002012 	mflo	a0
9d00cbb8:	00094c00 	sll	t1,t1,0x10
9d00cbbc:	00087c02 	srl	t7,t0,0x10
9d00cbc0:	012f4825 	or	t1,t1,t7
9d00cbc4:	0124782b 	sltu	t7,t1,a0
9d00cbc8:	11e00006 	beqz	t7,9d00cbe4 <i20>
9d00cbcc:	01244823 	subu	t1,t1,a0

9d00cbd0 <b21>:
9d00cbd0:	25ceffff 	addiu	t6,t6,-1
9d00cbd4:	012c4821 	addu	t1,t1,t4
9d00cbd8:	012c082b 	sltu	at,t1,t4
9d00cbdc:	1020fffc 	beqz	at,9d00cbd0 <b21>
9d00cbe0:	00000000 	nop

9d00cbe4 <i20>:
9d00cbe4:	00e001f4 	teq	a3,zero,0x7
9d00cbe8:	0127001b 	divu	zero,t1,a3
9d00cbec:	00003812 	mflo	a3
9d00cbf0:	00004810 	mfhi	t1
9d00cbf4:	00c70019 	multu	a2,a3
9d00cbf8:	00002012 	mflo	a0
9d00cbfc:	00094c00 	sll	t1,t1,0x10
9d00cc00:	310fffff 	andi	t7,t0,0xffff
9d00cc04:	012f4825 	or	t1,t1,t7
9d00cc08:	0124782b 	sltu	t7,t1,a0
9d00cc0c:	11e00006 	beqz	t7,9d00cc28 <i22>
9d00cc10:	01244823 	subu	t1,t1,a0

9d00cc14 <b23>:
9d00cc14:	24e7ffff 	addiu	a3,a3,-1
9d00cc18:	012c4821 	addu	t1,t1,t4
9d00cc1c:	012c082b 	sltu	at,t1,t4
9d00cc20:	1020fffc 	beqz	at,9d00cc14 <b23>
9d00cc24:	00000000 	nop

9d00cc28 <i22>:
9d00cc28:	000e7400 	sll	t6,t6,0x10
9d00cc2c:	01c77021 	addu	t6,t6,a3
9d00cc30:	01cb0019 	multu	t6,t3
9d00cc34:	00003812 	mflo	a3
9d00cc38:	00002010 	mfhi	a0
9d00cc3c:	24080000 	li	t0,0
9d00cc40:	0107782b 	sltu	t7,t0,a3
9d00cc44:	01074023 	subu	t0,t0,a3
9d00cc48:	012f102b 	sltu	v0,t1,t7
9d00cc4c:	012f4823 	subu	t1,t1,t7
9d00cc50:	0124782b 	sltu	t7,t1,a0
9d00cc54:	01e27825 	or	t7,t7,v0
9d00cc58:	11e0000b 	beqz	t7,9d00cc88 <i24>
9d00cc5c:	01244823 	subu	t1,t1,a0

9d00cc60 <Dlab3>:
9d00cc60:	25ceffff 	addiu	t6,t6,-1
9d00cc64:	010b4021 	addu	t0,t0,t3
9d00cc68:	010b782b 	sltu	t7,t0,t3
9d00cc6c:	012c4821 	addu	t1,t1,t4
9d00cc70:	012f4821 	addu	t1,t1,t7
9d00cc74:	112c0002 	beq	t1,t4,9d00cc80 <L31>
9d00cc78:	00000000 	nop
9d00cc7c:	012c782b 	sltu	t7,t1,t4

9d00cc80 <L31>:
9d00cc80:	11e0fff7 	beqz	t7,9d00cc60 <Dlab3>
9d00cc84:	00000000 	nop

9d00cc88 <i24>:
9d00cc88:	152c0006 	bne	t1,t4,9d00cca4 <i25>
9d00cc8c:	00000000 	nop
9d00cc90:	000b2025 	or	a0,zero,t3
9d00cc94:	00084825 	or	t1,zero,t0
9d00cc98:	240d0000 	li	t5,0
9d00cc9c:	1000002a 	b	9d00cd48 <e25>
9d00cca0:	000d3825 	or	a3,zero,t5

9d00cca4 <i25>:
9d00cca4:	000c3c02 	srl	a3,t4,0x10
9d00cca8:	00e001f4 	teq	a3,zero,0x7
9d00ccac:	0127001b 	divu	zero,t1,a3
9d00ccb0:	00006812 	mflo	t5
9d00ccb4:	00004810 	mfhi	t1
9d00ccb8:	3186ffff 	andi	a2,t4,0xffff
9d00ccbc:	00cd0019 	multu	a2,t5
9d00ccc0:	00002012 	mflo	a0
9d00ccc4:	00094c00 	sll	t1,t1,0x10
9d00ccc8:	00087c02 	srl	t7,t0,0x10
9d00cccc:	012f4825 	or	t1,t1,t7
9d00ccd0:	0124782b 	sltu	t7,t1,a0
9d00ccd4:	11e00006 	beqz	t7,9d00ccf0 <i26>
9d00ccd8:	01244823 	subu	t1,t1,a0

9d00ccdc <b27>:
9d00ccdc:	25adffff 	addiu	t5,t5,-1
9d00cce0:	012c4821 	addu	t1,t1,t4
9d00cce4:	012c082b 	sltu	at,t1,t4
9d00cce8:	1020fffc 	beqz	at,9d00ccdc <b27>
9d00ccec:	00000000 	nop

9d00ccf0 <i26>:
9d00ccf0:	00e001f4 	teq	a3,zero,0x7
9d00ccf4:	0127001b 	divu	zero,t1,a3
9d00ccf8:	00003812 	mflo	a3
9d00ccfc:	00004810 	mfhi	t1
9d00cd00:	00c70019 	multu	a2,a3
9d00cd04:	00002012 	mflo	a0
9d00cd08:	00094c00 	sll	t1,t1,0x10
9d00cd0c:	310fffff 	andi	t7,t0,0xffff
9d00cd10:	012f4825 	or	t1,t1,t7
9d00cd14:	0124782b 	sltu	t7,t1,a0
9d00cd18:	11e00006 	beqz	t7,9d00cd34 <i28>
9d00cd1c:	01244823 	subu	t1,t1,a0

9d00cd20 <b29>:
9d00cd20:	24e7ffff 	addiu	a3,a3,-1
9d00cd24:	012c4821 	addu	t1,t1,t4
9d00cd28:	012c082b 	sltu	at,t1,t4
9d00cd2c:	1020fffc 	beqz	at,9d00cd20 <b29>
9d00cd30:	00000000 	nop

9d00cd34 <i28>:
9d00cd34:	000d6c00 	sll	t5,t5,0x10
9d00cd38:	01a76821 	addu	t5,t5,a3
9d00cd3c:	01ab0019 	multu	t5,t3
9d00cd40:	00003812 	mflo	a3
9d00cd44:	00002010 	mfhi	a0

9d00cd48 <e25>:
9d00cd48:	24080000 	li	t0,0
9d00cd4c:	0107782b 	sltu	t7,t0,a3
9d00cd50:	01074023 	subu	t0,t0,a3
9d00cd54:	012f102b 	sltu	v0,t1,t7
9d00cd58:	012f4823 	subu	t1,t1,t7
9d00cd5c:	0124782b 	sltu	t7,t1,a0
9d00cd60:	01e27825 	or	t7,t7,v0
9d00cd64:	11e0000b 	beqz	t7,9d00cd94 <i30>
9d00cd68:	01244823 	subu	t1,t1,a0

9d00cd6c <Dlab4>:
9d00cd6c:	25adffff 	addiu	t5,t5,-1
9d00cd70:	010b4021 	addu	t0,t0,t3
9d00cd74:	010b782b 	sltu	t7,t0,t3
9d00cd78:	012c4821 	addu	t1,t1,t4
9d00cd7c:	012f4821 	addu	t1,t1,t7
9d00cd80:	112c0002 	beq	t1,t4,9d00cd8c <L32>
9d00cd84:	00000000 	nop
9d00cd88:	012c782b 	sltu	t7,t1,t4

9d00cd8c <L32>:
9d00cd8c:	11e0fff7 	beqz	t7,9d00cd6c <Dlab4>
9d00cd90:	00000000 	nop

9d00cd94 <i30>:
9d00cd94:	05c00006 	bltz	t6,9d00cdb0 <i31>
9d00cd98:	00000000 	nop
9d00cd9c:	01a0782a 	slt	t7,t5,zero
9d00cda0:	01ad6821 	addu	t5,t5,t5
9d00cda4:	01ce7021 	addu	t6,t6,t6
9d00cda8:	01cf7021 	addu	t6,t6,t7
9d00cdac:	254affff 	addiu	t2,t2,-1

9d00cdb0 <i31>:
9d00cdb0:	01287825 	or	t7,t1,t0
9d00cdb4:	11e00002 	beqz	t7,9d00cdc0 <i32>
9d00cdb8:	00000000 	nop
9d00cdbc:	35ad0001 	ori	t5,t5,0x1

9d00cdc0 <i32>:
9d00cdc0:	000e4825 	or	t1,zero,t6
9d00cdc4:	000d4025 	or	t0,zero,t5
9d00cdc8:	254fffff 	addiu	t7,t2,-1
9d00cdcc:	2de107fe 	sltiu	at,t7,2046
9d00cdd0:	10200015 	beqz	at,9d00ce28 <Doveund>
9d00cdd4:	00000000 	nop
9d00cdd8:	25080400 	addiu	t0,t0,1024
9d00cddc:	2d0f0400 	sltiu	t7,t0,1024
9d00cde0:	012f4821 	addu	t1,t1,t7
9d00cde4:	012f782b 	sltu	t7,t1,t7
9d00cde8:	014f5021 	addu	t2,t2,t7

9d00cdec <Dlab8>:
9d00cdec:	00087ac2 	srl	t7,t0,0xb
9d00cdf0:	31ef0001 	andi	t7,t7,0x1
9d00cdf4:	010f4023 	subu	t0,t0,t7
9d00cdf8:	000822c2 	srl	a0,t0,0xb
9d00cdfc:	00097d40 	sll	t7,t1,0x15
9d00ce00:	008f2025 	or	a0,a0,t7
9d00ce04:	00097840 	sll	t7,t1,0x1
9d00ce08:	000f7b02 	srl	t7,t7,0xc
9d00ce0c:	00af2825 	or	a1,a1,t7
9d00ce10:	000a7d00 	sll	t7,t2,0x14
9d00ce14:	00af2825 	or	a1,a1,t7

9d00ce18 <Dret>:
9d00ce18:	00041025 	or	v0,zero,a0
9d00ce1c:	00051825 	or	v1,zero,a1

9d00ce20 <D999>:
9d00ce20:	03e00008 	jr	ra
9d00ce24:	00000000 	nop

9d00ce28 <Doveund>:
9d00ce28:	1d400044 	bgtz	t2,9d00cf3c <Dinf>
9d00ce2c:	00000000 	nop
9d00ce30:	240e0001 	li	t6,1
9d00ce34:	01ca7023 	subu	t6,t6,t2

9d00ce38 <L33>:
9d00ce38:	2dc10020 	sltiu	at,t6,32
9d00ce3c:	14200007 	bnez	at,9d00ce5c <L34>
9d00ce40:	00000000 	nop
9d00ce44:	21ceffe0 	addi	t6,t6,-32
9d00ce48:	0008202b 	sltu	a0,zero,t0
9d00ce4c:	1009000d 	beq	zero,t1,9d00ce84 <L35>
9d00ce50:	01244025 	or	t0,t1,a0
9d00ce54:	1000fff8 	b	9d00ce38 <L33>
9d00ce58:	34090000 	li	t1,0x0

9d00ce5c <L34>:
9d00ce5c:	11c00009 	beqz	t6,9d00ce84 <L35>
9d00ce60:	00000000 	nop
9d00ce64:	000e3022 	neg	a2,t6
9d00ce68:	00c82004 	sllv	a0,t0,a2
9d00ce6c:	00c93004 	sllv	a2,t1,a2
9d00ce70:	01c84006 	srlv	t0,t0,t6
9d00ce74:	01c94806 	srlv	t1,t1,t6
9d00ce78:	10800002 	beqz	a0,9d00ce84 <L35>
9d00ce7c:	00c84025 	or	t0,a2,t0
9d00ce80:	35080002 	ori	t0,t0,0x2

9d00ce84 <L35>:
9d00ce84:	25080400 	addiu	t0,t0,1024
9d00ce88:	2d0f0400 	sltiu	t7,t0,1024
9d00ce8c:	012f4821 	addu	t1,t1,t7
9d00ce90:	1000ffd6 	b	9d00cdec <Dlab8>
9d00ce94:	000957c2 	srl	t2,t1,0x1f

9d00ce98 <DspecA>:
9d00ce98:	0100782a 	slt	t7,t0,zero
9d00ce9c:	01084021 	addu	t0,t0,t0
9d00cea0:	01294821 	addu	t1,t1,t1
9d00cea4:	15400017 	bnez	t2,9d00cf04 <i33>
9d00cea8:	012f4821 	addu	t1,t1,t7
9d00ceac:	01287825 	or	t7,t1,t0
9d00ceb0:	11e00014 	beqz	t7,9d00cf04 <i33>
9d00ceb4:	00000000 	nop
9d00ceb8:	15200008 	bnez	t1,9d00cedc <L36>
9d00cebc:	00000000 	nop
9d00cec0:	15000003 	bnez	t0,9d00ced0 <L37>
9d00cec4:	00000000 	nop
9d00cec8:	1000ff29 	b	9d00cb70 <Dlab1>
9d00cecc:	240a0000 	li	t2,0

9d00ced0 <L37>:
9d00ced0:	01004825 	move	t1,t0
9d00ced4:	24080000 	li	t0,0
9d00ced8:	254affe0 	addiu	t2,t2,-32

9d00cedc <L36>:
9d00cedc:	712e7020 	clz	t6,t1
9d00cee0:	11c0ff23 	beqz	t6,9d00cb70 <Dlab1>
9d00cee4:	00000000 	nop
9d00cee8:	014e5023 	subu	t2,t2,t6
9d00ceec:	000e3022 	neg	a2,t6
9d00cef0:	00c83006 	srlv	a2,t0,a2
9d00cef4:	01c84004 	sllv	t0,t0,t6
9d00cef8:	01c94804 	sllv	t1,t1,t6
9d00cefc:	1000ff1c 	b	9d00cb70 <Dlab1>
9d00cf00:	01264825 	or	t1,t1,a2

9d00cf04 <i33>:
9d00cf04:	154d0005 	bne	t2,t5,9d00cf1c <i35>
9d00cf08:	00000000 	nop
9d00cf0c:	000c7840 	sll	t7,t4,0x1
9d00cf10:	01eb7825 	or	t7,t7,t3
9d00cf14:	11e0002b 	beqz	t7,9d00cfc4 <Dnan>
9d00cf18:	00000000 	nop

9d00cf1c <i35>:
9d00cf1c:	240107ff 	li	at,2047
9d00cf20:	11a1000a 	beq	t5,at,9d00cf4c <DspecB>
9d00cf24:	00000000 	nop
9d00cf28:	1140ffbb 	beqz	t2,9d00ce18 <Dret>
9d00cf2c:	00000000 	nop
9d00cf30:	01287825 	or	t7,t1,t0
9d00cf34:	15e00023 	bnez	t7,9d00cfc4 <Dnan>
9d00cf38:	00000000 	nop

9d00cf3c <Dinf>:
9d00cf3c:	3c017ff0 	lui	at,0x7ff0
9d00cf40:	00a12825 	or	a1,a1,at
9d00cf44:	1000ffb4 	b	9d00ce18 <Dret>
9d00cf48:	24040000 	li	a0,0

9d00cf4c <DspecB>:
9d00cf4c:	0160782a 	slt	t7,t3,zero
9d00cf50:	016b5821 	addu	t3,t3,t3
9d00cf54:	018c6021 	addu	t4,t4,t4
9d00cf58:	15a00017 	bnez	t5,9d00cfb8 <i36>
9d00cf5c:	018f6021 	addu	t4,t4,t7
9d00cf60:	018b7825 	or	t7,t4,t3
9d00cf64:	11e0fff5 	beqz	t7,9d00cf3c <Dinf>
9d00cf68:	00000000 	nop
9d00cf6c:	15800008 	bnez	t4,9d00cf90 <L39>
9d00cf70:	00000000 	nop
9d00cf74:	15600003 	bnez	t3,9d00cf84 <L40>
9d00cf78:	00000000 	nop
9d00cf7c:	1000ff00 	b	9d00cb80 <Dlab2>
9d00cf80:	240d0000 	li	t5,0

9d00cf84 <L40>:
9d00cf84:	01606025 	move	t4,t3
9d00cf88:	240b0000 	li	t3,0
9d00cf8c:	25adffe0 	addiu	t5,t5,-32

9d00cf90 <L39>:
9d00cf90:	718e7020 	clz	t6,t4
9d00cf94:	11c0fefa 	beqz	t6,9d00cb80 <Dlab2>
9d00cf98:	00000000 	nop
9d00cf9c:	01ae6823 	subu	t5,t5,t6
9d00cfa0:	000e3022 	neg	a2,t6
9d00cfa4:	00cb3006 	srlv	a2,t3,a2
9d00cfa8:	01cb5804 	sllv	t3,t3,t6
9d00cfac:	01cc6004 	sllv	t4,t4,t6
9d00cfb0:	1000fef3 	b	9d00cb80 <Dlab2>
9d00cfb4:	01866025 	or	t4,t4,a2

9d00cfb8 <i36>:
9d00cfb8:	018b7825 	or	t7,t4,t3
9d00cfbc:	11e00002 	beqz	t7,9d00cfc8 <i38>
9d00cfc0:	00000000 	nop

9d00cfc4 <Dnan>:
9d00cfc4:	3c05fff8 	lui	a1,0xfff8

9d00cfc8 <i38>:
9d00cfc8:	1000ff93 	b	9d00ce18 <Dret>
9d00cfcc:	24040000 	li	a0,0
9d00cfd0:	00000000 	nop

Disassembly of section .text.dreml:

9d00cfd4 <dreml>:
9d00cfd4:	27bdffa8 	addiu	sp,sp,-88
9d00cfd8:	afa70064 	sw	a3,100(sp)
9d00cfdc:	afa5005c 	sw	a1,92(sp)
9d00cfe0:	afbe0050 	sw	s8,80(sp)
9d00cfe4:	afb10034 	sw	s1,52(sp)
9d00cfe8:	97be005e 	lhu	s8,94(sp)
9d00cfec:	97b10066 	lhu	s1,102(sp)
9d00cff0:	afb40040 	sw	s4,64(sp)
9d00cff4:	afb00030 	sw	s0,48(sp)
9d00cff8:	24147ff0 	li	s4,32752
9d00cffc:	32307fff 	andi	s0,s1,0x7fff
9d00d000:	33c27ff0 	andi	v0,s8,0x7ff0
9d00d004:	afbf0054 	sw	ra,84(sp)
9d00d008:	afb7004c 	sw	s7,76(sp)
9d00d00c:	afb60048 	sw	s6,72(sp)
9d00d010:	afb50044 	sw	s5,68(sp)
9d00d014:	afb3003c 	sw	s3,60(sp)
9d00d018:	afb20038 	sw	s2,56(sp)
9d00d01c:	afa60060 	sw	a2,96(sp)
9d00d020:	afa40058 	sw	a0,88(sp)
9d00d024:	105400a6 	beq	v0,s4,9d00d2c0 <dreml+0x2ec>
9d00d028:	a7b00066 	sh	s0,102(sp)
9d00d02c:	8fb20060 	lw	s2,96(sp)
9d00d030:	8fb30064 	lw	s3,100(sp)
9d00d034:	00003025 	move	a2,zero
9d00d038:	00003825 	move	a3,zero
9d00d03c:	02402025 	move	a0,s2
9d00d040:	0f404581 	jal	9d011604 <__eqdf2>
9d00d044:	02602825 	move	a1,s3
9d00d048:	10400088 	beqz	v0,9d00d26c <dreml+0x298>
9d00d04c:	32317ff0 	andi	s1,s1,0x7ff0
9d00d050:	123400b3 	beq	s1,s4,9d00d320 <dreml+0x34c>
9d00d054:	00108103 	sra	s0,s0,0x4
9d00d058:	321007fe 	andi	s0,s0,0x7fe
9d00d05c:	120000cb 	beqz	s0,9d00d38c <dreml+0x3b8>
9d00d060:	3c109d00 	lui	s0,0x9d00
9d00d064:	8e067628 	lw	a2,30248(s0)
9d00d068:	8e07762c 	lw	a3,30252(s0)
9d00d06c:	02402025 	move	a0,s2
9d00d070:	0f403be4 	jal	9d00ef90 <__muldf3>
9d00d074:	02602825 	move	a1,s3
9d00d078:	afa20020 	sw	v0,32(sp)
9d00d07c:	3c029d00 	lui	v0,0x9d00
9d00d080:	8c467630 	lw	a2,30256(v0)
9d00d084:	8c477634 	lw	a3,30260(v0)
9d00d088:	02402025 	move	a0,s2
9d00d08c:	02602825 	move	a1,s3
9d00d090:	0f404581 	jal	9d011604 <__eqdf2>
9d00d094:	afa30024 	sw	v1,36(sp)
9d00d098:	044100aa 	bgez	v0,9d00d344 <dreml+0x370>
9d00d09c:	33c87fff 	andi	t0,s8,0x7fff
9d00d0a0:	02403025 	move	a2,s2
9d00d0a4:	02603825 	move	a3,s3
9d00d0a8:	02402025 	move	a0,s2
9d00d0ac:	02602825 	move	a1,s3
9d00d0b0:	0f40372a 	jal	9d00dca8 <__adddf3>
9d00d0b4:	afa80018 	sw	t0,24(sp)
9d00d0b8:	8fa80018 	lw	t0,24(sp)
9d00d0bc:	8fb00058 	lw	s0,88(sp)
9d00d0c0:	7c1e7004 	ins	s8,zero,0x0,0xf
9d00d0c4:	a7a8005e 	sh	t0,94(sp)
9d00d0c8:	8fb1005c 	lw	s1,92(sp)
9d00d0cc:	00402025 	move	a0,v0
9d00d0d0:	0040a825 	move	s5,v0
9d00d0d4:	00602825 	move	a1,v1
9d00d0d8:	7c1e1620 	seh	v0,s8
9d00d0dc:	02003025 	move	a2,s0
9d00d0e0:	02203825 	move	a3,s1
9d00d0e4:	0003b402 	srl	s6,v1,0x10
9d00d0e8:	0060a025 	move	s4,v1
9d00d0ec:	0f4045cc 	jal	9d011730 <dpcmplt>
9d00d0f0:	afa20028 	sw	v0,40(sp)
9d00d0f4:	32d77ff0 	andi	s7,s6,0x7ff0
9d00d0f8:	04400003 	bltz	v0,9d00d108 <dreml+0x134>
9d00d0fc:	8fa80018 	lw	t0,24(sp)
9d00d100:	10000029 	b	9d00d1a8 <dreml+0x1d4>
9d00d104:	8fb40020 	lw	s4,32(sp)
9d00d108:	31037ff0 	andi	v1,t0,0x7ff0
9d00d10c:	02c31821 	addu	v1,s6,v1
9d00d110:	00771823 	subu	v1,v1,s7
9d00d114:	307effff 	andi	s8,v1,0xffff
9d00d118:	afb40014 	sw	s4,20(sp)
9d00d11c:	afb50010 	sw	s5,16(sp)
9d00d120:	a7be0016 	sh	s8,22(sp)
9d00d124:	8fa80010 	lw	t0,16(sp)
9d00d128:	8fa90014 	lw	t1,20(sp)
9d00d12c:	02003025 	move	a2,s0
9d00d130:	01002025 	move	a0,t0
9d00d134:	01202825 	move	a1,t1
9d00d138:	02203825 	move	a3,s1
9d00d13c:	afa80018 	sw	t0,24(sp)
9d00d140:	0f404581 	jal	9d011604 <__eqdf2>
9d00d144:	afa9001c 	sw	t1,28(sp)
9d00d148:	02002025 	move	a0,s0
9d00d14c:	02202825 	move	a1,s1
9d00d150:	27c3fff0 	addiu	v1,s8,-16
9d00d154:	8fa80018 	lw	t0,24(sp)
9d00d158:	18400004 	blez	v0,9d00d16c <dreml+0x198>
9d00d15c:	8fa9001c 	lw	t1,28(sp)
9d00d160:	a7a30016 	sh	v1,22(sp)
9d00d164:	8fa80010 	lw	t0,16(sp)
9d00d168:	8fa90014 	lw	t1,20(sp)
9d00d16c:	01003025 	move	a2,t0
9d00d170:	0f403728 	jal	9d00dca0 <__subdf3>
9d00d174:	01203825 	move	a3,t1
9d00d178:	00403025 	move	a2,v0
9d00d17c:	02a02025 	move	a0,s5
9d00d180:	02802825 	move	a1,s4
9d00d184:	00603825 	move	a3,v1
9d00d188:	00408025 	move	s0,v0
9d00d18c:	00608825 	move	s1,v1
9d00d190:	afa20058 	sw	v0,88(sp)
9d00d194:	0f4045cc 	jal	9d011730 <dpcmplt>
9d00d198:	afa3005c 	sw	v1,92(sp)
9d00d19c:	0440ffda 	bltz	v0,9d00d108 <dreml+0x134>
9d00d1a0:	97a8005e 	lhu	t0,94(sp)
9d00d1a4:	8fb40020 	lw	s4,32(sp)
9d00d1a8:	8fb50024 	lw	s5,36(sp)
9d00d1ac:	02002025 	move	a0,s0
9d00d1b0:	02803025 	move	a2,s4
9d00d1b4:	02a03825 	move	a3,s5
9d00d1b8:	0f404581 	jal	9d011604 <__eqdf2>
9d00d1bc:	02202825 	move	a1,s1
9d00d1c0:	18400017 	blez	v0,9d00d220 <dreml+0x24c>
9d00d1c4:	97a2005e 	lhu	v0,94(sp)
9d00d1c8:	02002025 	move	a0,s0
9d00d1cc:	02202825 	move	a1,s1
9d00d1d0:	02403025 	move	a2,s2
9d00d1d4:	0f403728 	jal	9d00dca0 <__subdf3>
9d00d1d8:	02603825 	move	a3,s3
9d00d1dc:	00402025 	move	a0,v0
9d00d1e0:	02803025 	move	a2,s4
9d00d1e4:	02a03825 	move	a3,s5
9d00d1e8:	00602825 	move	a1,v1
9d00d1ec:	00408025 	move	s0,v0
9d00d1f0:	0f404581 	jal	9d011604 <__eqdf2>
9d00d1f4:	00608825 	move	s1,v1
9d00d1f8:	04420089 	bltzl	v0,9d00d420 <dreml+0x44c>
9d00d1fc:	afb00058 	sw	s0,88(sp)
9d00d200:	02403025 	move	a2,s2
9d00d204:	02603825 	move	a3,s3
9d00d208:	02002025 	move	a0,s0
9d00d20c:	0f403728 	jal	9d00dca0 <__subdf3>
9d00d210:	02202825 	move	a1,s1
9d00d214:	afa20058 	sw	v0,88(sp)
9d00d218:	afa3005c 	sw	v1,92(sp)
9d00d21c:	97a2005e 	lhu	v0,94(sp)
9d00d220:	8fa30028 	lw	v1,40(sp)
9d00d224:	0062f026 	xor	s8,v1,v0
9d00d228:	a7be005e 	sh	s8,94(sp)
9d00d22c:	8fb20058 	lw	s2,88(sp)
9d00d230:	8fb3005c 	lw	s3,92(sp)
9d00d234:	8fbf0054 	lw	ra,84(sp)
9d00d238:	02401025 	move	v0,s2
9d00d23c:	02601825 	move	v1,s3
9d00d240:	8fbe0050 	lw	s8,80(sp)
9d00d244:	8fb7004c 	lw	s7,76(sp)
9d00d248:	8fb60048 	lw	s6,72(sp)
9d00d24c:	8fb50044 	lw	s5,68(sp)
9d00d250:	8fb40040 	lw	s4,64(sp)
9d00d254:	8fb3003c 	lw	s3,60(sp)
9d00d258:	8fb20038 	lw	s2,56(sp)
9d00d25c:	8fb10034 	lw	s1,52(sp)
9d00d260:	8fb00030 	lw	s0,48(sp)
9d00d264:	03e00008 	jr	ra
9d00d268:	27bd0058 	addiu	sp,sp,88
9d00d26c:	00003025 	move	a2,zero
9d00d270:	00003825 	move	a3,zero
9d00d274:	00c02025 	move	a0,a2
9d00d278:	0f4032c7 	jal	9d00cb1c <__divdf3>
9d00d27c:	00e02825 	move	a1,a3
9d00d280:	00409025 	move	s2,v0
9d00d284:	00609825 	move	s3,v1
9d00d288:	8fbf0054 	lw	ra,84(sp)
9d00d28c:	02401025 	move	v0,s2
9d00d290:	02601825 	move	v1,s3
9d00d294:	8fbe0050 	lw	s8,80(sp)
9d00d298:	8fb7004c 	lw	s7,76(sp)
9d00d29c:	8fb60048 	lw	s6,72(sp)
9d00d2a0:	8fb50044 	lw	s5,68(sp)
9d00d2a4:	8fb40040 	lw	s4,64(sp)
9d00d2a8:	8fb3003c 	lw	s3,60(sp)
9d00d2ac:	8fb20038 	lw	s2,56(sp)
9d00d2b0:	8fb10034 	lw	s1,52(sp)
9d00d2b4:	8fb00030 	lw	s0,48(sp)
9d00d2b8:	03e00008 	jr	ra
9d00d2bc:	27bd0058 	addiu	sp,sp,88
9d00d2c0:	8fa60060 	lw	a2,96(sp)
9d00d2c4:	0f403728 	jal	9d00dca0 <__subdf3>
9d00d2c8:	8fa70064 	lw	a3,100(sp)
9d00d2cc:	00403025 	move	a2,v0
9d00d2d0:	00603825 	move	a3,v1
9d00d2d4:	00402025 	move	a0,v0
9d00d2d8:	0f403728 	jal	9d00dca0 <__subdf3>
9d00d2dc:	00602825 	move	a1,v1
9d00d2e0:	8fbf0054 	lw	ra,84(sp)
9d00d2e4:	00409025 	move	s2,v0
9d00d2e8:	00609825 	move	s3,v1
9d00d2ec:	02401025 	move	v0,s2
9d00d2f0:	02601825 	move	v1,s3
9d00d2f4:	8fbe0050 	lw	s8,80(sp)
9d00d2f8:	8fb7004c 	lw	s7,76(sp)
9d00d2fc:	8fb60048 	lw	s6,72(sp)
9d00d300:	8fb50044 	lw	s5,68(sp)
9d00d304:	8fb40040 	lw	s4,64(sp)
9d00d308:	8fb3003c 	lw	s3,60(sp)
9d00d30c:	8fb20038 	lw	s2,56(sp)
9d00d310:	8fb10034 	lw	s1,52(sp)
9d00d314:	8fb00030 	lw	s0,48(sp)
9d00d318:	03e00008 	jr	ra
9d00d31c:	27bd0058 	addiu	sp,sp,88
9d00d320:	02403025 	move	a2,s2
9d00d324:	02603825 	move	a3,s3
9d00d328:	02402025 	move	a0,s2
9d00d32c:	0f404581 	jal	9d011604 <__eqdf2>
9d00d330:	02602825 	move	a1,s3
9d00d334:	1440ffd5 	bnez	v0,9d00d28c <dreml+0x2b8>
9d00d338:	8fbf0054 	lw	ra,84(sp)
9d00d33c:	1000ffbc 	b	9d00d230 <dreml+0x25c>
9d00d340:	8fb20058 	lw	s2,88(sp)
9d00d344:	8e067628 	lw	a2,30248(s0)
9d00d348:	8e07762c 	lw	a3,30252(s0)
9d00d34c:	8fa40058 	lw	a0,88(sp)
9d00d350:	0f403be4 	jal	9d00ef90 <__muldf3>
9d00d354:	8fa5005c 	lw	a1,92(sp)
9d00d358:	8fa60020 	lw	a2,32(sp)
9d00d35c:	8fa70024 	lw	a3,36(sp)
9d00d360:	00402025 	move	a0,v0
9d00d364:	0f4033f5 	jal	9d00cfd4 <dreml>
9d00d368:	00602825 	move	a1,v1
9d00d36c:	00403025 	move	a2,v0
9d00d370:	00603825 	move	a3,v1
9d00d374:	00402025 	move	a0,v0
9d00d378:	0f40372a 	jal	9d00dca8 <__adddf3>
9d00d37c:	00602825 	move	a1,v1
9d00d380:	00409025 	move	s2,v0
9d00d384:	1000ffc0 	b	9d00d288 <dreml+0x2b4>
9d00d388:	00609825 	move	s3,v1
9d00d38c:	3c029d00 	lui	v0,0x9d00
9d00d390:	8c447620 	lw	a0,30240(v0)
9d00d394:	8c457624 	lw	a1,30244(v0)
9d00d398:	0f404338 	jal	9d010ce0 <__mchp_ldexp>
9d00d39c:	24060036 	li	a2,54
9d00d3a0:	00403025 	move	a2,v0
9d00d3a4:	02402025 	move	a0,s2
9d00d3a8:	02602825 	move	a1,s3
9d00d3ac:	00603825 	move	a3,v1
9d00d3b0:	00408025 	move	s0,v0
9d00d3b4:	0f403be4 	jal	9d00ef90 <__muldf3>
9d00d3b8:	00608825 	move	s1,v1
9d00d3bc:	8fa40058 	lw	a0,88(sp)
9d00d3c0:	8fa5005c 	lw	a1,92(sp)
9d00d3c4:	00403025 	move	a2,v0
9d00d3c8:	00603825 	move	a3,v1
9d00d3cc:	00409025 	move	s2,v0
9d00d3d0:	0f4033f5 	jal	9d00cfd4 <dreml>
9d00d3d4:	00609825 	move	s3,v1
9d00d3d8:	00402025 	move	a0,v0
9d00d3dc:	02003025 	move	a2,s0
9d00d3e0:	02203825 	move	a3,s1
9d00d3e4:	0f403be4 	jal	9d00ef90 <__muldf3>
9d00d3e8:	00602825 	move	a1,v1
9d00d3ec:	00402025 	move	a0,v0
9d00d3f0:	02403025 	move	a2,s2
9d00d3f4:	02603825 	move	a3,s3
9d00d3f8:	0f4033f5 	jal	9d00cfd4 <dreml>
9d00d3fc:	00602825 	move	a1,v1
9d00d400:	00402025 	move	a0,v0
9d00d404:	02003025 	move	a2,s0
9d00d408:	02203825 	move	a3,s1
9d00d40c:	0f4032c7 	jal	9d00cb1c <__divdf3>
9d00d410:	00602825 	move	a1,v1
9d00d414:	00409025 	move	s2,v0
9d00d418:	1000ff9b 	b	9d00d288 <dreml+0x2b4>
9d00d41c:	00609825 	move	s3,v1
9d00d420:	1000ff7e 	b	9d00d21c <dreml+0x248>
9d00d424:	afb1005c 	sw	s1,92(sp)

Disassembly of section .text:

9d00d428 <__divdi3>:
9d00d428:	04a10007 	bgez	a1,9d00d448 <__divdi3+0x20>
9d00d42c:	00005025 	move	t2,zero
9d00d430:	00041023 	negu	v0,a0
9d00d434:	0002182b 	sltu	v1,zero,v0
9d00d438:	00052823 	negu	a1,a1
9d00d43c:	00402025 	move	a0,v0
9d00d440:	00a32823 	subu	a1,a1,v1
9d00d444:	240affff 	li	t2,-1
9d00d448:	04e10008 	bgez	a3,9d00d46c <__divdi3+0x44>
9d00d44c:	00c04025 	move	t0,a2
9d00d450:	00061023 	negu	v0,a2
9d00d454:	0002182b 	sltu	v1,zero,v0
9d00d458:	00073823 	negu	a3,a3
9d00d45c:	000a5027 	nor	t2,zero,t2
9d00d460:	00403025 	move	a2,v0
9d00d464:	00e33823 	subu	a3,a3,v1
9d00d468:	00c04025 	move	t0,a2
9d00d46c:	00e01825 	move	v1,a3
9d00d470:	00804825 	move	t1,a0
9d00d474:	14e000ab 	bnez	a3,9d00d724 <__divdi3+0x2fc>
9d00d478:	00a01025 	move	v0,a1
9d00d47c:	00a6302b 	sltu	a2,a1,a2
9d00d480:	10c0003c 	beqz	a2,9d00d574 <__divdi3+0x14c>
9d00d484:	00000000 	nop
9d00d488:	71052820 	clz	a1,t0
9d00d48c:	10a00006 	beqz	a1,9d00d4a8 <__divdi3+0x80>
9d00d490:	00a22004 	sllv	a0,v0,a1
9d00d494:	00051023 	negu	v0,a1
9d00d498:	00491006 	srlv	v0,t1,v0
9d00d49c:	00a84004 	sllv	t0,t0,a1
9d00d4a0:	00441025 	or	v0,v0,a0
9d00d4a4:	00a94804 	sllv	t1,t1,a1
9d00d4a8:	00083402 	srl	a2,t0,0x10
9d00d4ac:	0046001b 	divu	zero,v0,a2
9d00d4b0:	00c001f4 	teq	a2,zero,0x7
9d00d4b4:	310bffff 	andi	t3,t0,0xffff
9d00d4b8:	00091402 	srl	v0,t1,0x10
9d00d4bc:	00003812 	mflo	a3
9d00d4c0:	00002010 	mfhi	a0
9d00d4c4:	00042400 	sll	a0,a0,0x10
9d00d4c8:	00821025 	or	v0,a0,v0
9d00d4cc:	71676002 	mul	t4,t3,a3
9d00d4d0:	004c202b 	sltu	a0,v0,t4
9d00d4d4:	1080000a 	beqz	a0,9d00d500 <__divdi3+0xd8>
9d00d4d8:	00e02825 	move	a1,a3
9d00d4dc:	00481021 	addu	v0,v0,t0
9d00d4e0:	0048202b 	sltu	a0,v0,t0
9d00d4e4:	14800006 	bnez	a0,9d00d500 <__divdi3+0xd8>
9d00d4e8:	24e5ffff 	addiu	a1,a3,-1
9d00d4ec:	004c202b 	sltu	a0,v0,t4
9d00d4f0:	50800004 	beqzl	a0,9d00d504 <__divdi3+0xdc>
9d00d4f4:	004c1023 	subu	v0,v0,t4
9d00d4f8:	24e5fffe 	addiu	a1,a3,-2
9d00d4fc:	00481021 	addu	v0,v0,t0
9d00d500:	004c1023 	subu	v0,v0,t4
9d00d504:	0046001b 	divu	zero,v0,a2
9d00d508:	00c001f4 	teq	a2,zero,0x7
9d00d50c:	3129ffff 	andi	t1,t1,0xffff
9d00d510:	00001012 	mflo	v0
9d00d514:	00003010 	mfhi	a2
9d00d518:	00063400 	sll	a2,a2,0x10
9d00d51c:	00c94825 	or	t1,a2,t1
9d00d520:	71625802 	mul	t3,t3,v0
9d00d524:	012b302b 	sltu	a2,t1,t3
9d00d528:	10c00008 	beqz	a2,9d00d54c <__divdi3+0x124>
9d00d52c:	00402025 	move	a0,v0
9d00d530:	01094821 	addu	t1,t0,t1
9d00d534:	0128402b 	sltu	t0,t1,t0
9d00d538:	15000004 	bnez	t0,9d00d54c <__divdi3+0x124>
9d00d53c:	2444ffff 	addiu	a0,v0,-1
9d00d540:	012b482b 	sltu	t1,t1,t3
9d00d544:	55200001 	bnezl	t1,9d00d54c <__divdi3+0x124>
9d00d548:	2444fffe 	addiu	a0,v0,-2
9d00d54c:	00051400 	sll	v0,a1,0x10
9d00d550:	00441025 	or	v0,v0,a0
9d00d554:	11400005 	beqz	t2,9d00d56c <__divdi3+0x144>
9d00d558:	00000000 	nop
9d00d55c:	00021023 	negu	v0,v0
9d00d560:	0002202b 	sltu	a0,zero,v0
9d00d564:	00031823 	negu	v1,v1
9d00d568:	00641823 	subu	v1,v1,a0
9d00d56c:	03e00008 	jr	ra
9d00d570:	00000000 	nop
9d00d574:	15000006 	bnez	t0,9d00d590 <__divdi3+0x168>
9d00d578:	710b5820 	clz	t3,t0
9d00d57c:	24080001 	li	t0,1
9d00d580:	0107001b 	divu	zero,t0,a3
9d00d584:	00e001f4 	teq	a3,zero,0x7
9d00d588:	00004012 	mflo	t0
9d00d58c:	710b5820 	clz	t3,t0
9d00d590:	1560002d 	bnez	t3,9d00d648 <__divdi3+0x220>
9d00d594:	24030001 	li	v1,1
9d00d598:	00a82823 	subu	a1,a1,t0
9d00d59c:	00083c02 	srl	a3,t0,0x10
9d00d5a0:	00a7001b 	divu	zero,a1,a3
9d00d5a4:	00e001f4 	teq	a3,zero,0x7
9d00d5a8:	310bffff 	andi	t3,t0,0xffff
9d00d5ac:	00091402 	srl	v0,t1,0x10
9d00d5b0:	00002812 	mflo	a1
9d00d5b4:	00002010 	mfhi	a0
9d00d5b8:	00042400 	sll	a0,a0,0x10
9d00d5bc:	00821025 	or	v0,a0,v0
9d00d5c0:	71656002 	mul	t4,t3,a1
9d00d5c4:	004c202b 	sltu	a0,v0,t4
9d00d5c8:	1080000a 	beqz	a0,9d00d5f4 <__divdi3+0x1cc>
9d00d5cc:	00a03025 	move	a2,a1
9d00d5d0:	00481021 	addu	v0,v0,t0
9d00d5d4:	0048202b 	sltu	a0,v0,t0
9d00d5d8:	14800006 	bnez	a0,9d00d5f4 <__divdi3+0x1cc>
9d00d5dc:	24a6ffff 	addiu	a2,a1,-1
9d00d5e0:	004c202b 	sltu	a0,v0,t4
9d00d5e4:	50800004 	beqzl	a0,9d00d5f8 <__divdi3+0x1d0>
9d00d5e8:	004c1023 	subu	v0,v0,t4
9d00d5ec:	24a6fffe 	addiu	a2,a1,-2
9d00d5f0:	00481021 	addu	v0,v0,t0
9d00d5f4:	004c1023 	subu	v0,v0,t4
9d00d5f8:	0047001b 	divu	zero,v0,a3
9d00d5fc:	00e001f4 	teq	a3,zero,0x7
9d00d600:	3129ffff 	andi	t1,t1,0xffff
9d00d604:	00001012 	mflo	v0
9d00d608:	00003810 	mfhi	a3
9d00d60c:	00073c00 	sll	a3,a3,0x10
9d00d610:	00e93825 	or	a3,a3,t1
9d00d614:	71622802 	mul	a1,t3,v0
9d00d618:	00e5482b 	sltu	t1,a3,a1
9d00d61c:	11200008 	beqz	t1,9d00d640 <__divdi3+0x218>
9d00d620:	00402025 	move	a0,v0
9d00d624:	01073821 	addu	a3,t0,a3
9d00d628:	00e8402b 	sltu	t0,a3,t0
9d00d62c:	15000004 	bnez	t0,9d00d640 <__divdi3+0x218>
9d00d630:	2444ffff 	addiu	a0,v0,-1
9d00d634:	00e5382b 	sltu	a3,a3,a1
9d00d638:	54e00001 	bnezl	a3,9d00d640 <__divdi3+0x218>
9d00d63c:	2444fffe 	addiu	a0,v0,-2
9d00d640:	1000ffc3 	b	9d00d550 <__divdi3+0x128>
9d00d644:	00061400 	sll	v0,a2,0x10
9d00d648:	24070020 	li	a3,32
9d00d64c:	00eb3823 	subu	a3,a3,t3
9d00d650:	01684004 	sllv	t0,t0,t3
9d00d654:	01651004 	sllv	v0,a1,t3
9d00d658:	00081c02 	srl	v1,t0,0x10
9d00d65c:	00e52806 	srlv	a1,a1,a3
9d00d660:	00a3001b 	divu	zero,a1,v1
9d00d664:	006001f4 	teq	v1,zero,0x7
9d00d668:	3106ffff 	andi	a2,t0,0xffff
9d00d66c:	00e44806 	srlv	t1,a0,a3
9d00d670:	01224825 	or	t1,t1,v0
9d00d674:	00091402 	srl	v0,t1,0x10
9d00d678:	00002812 	mflo	a1
9d00d67c:	00003810 	mfhi	a3
9d00d680:	00073c00 	sll	a3,a3,0x10
9d00d684:	00e23825 	or	a3,a3,v0
9d00d688:	70c56002 	mul	t4,a2,a1
9d00d68c:	00ec682b 	sltu	t5,a3,t4
9d00d690:	11a0000a 	beqz	t5,9d00d6bc <__divdi3+0x294>
9d00d694:	00a01025 	move	v0,a1
9d00d698:	00e83821 	addu	a3,a3,t0
9d00d69c:	00e8682b 	sltu	t5,a3,t0
9d00d6a0:	15a00006 	bnez	t5,9d00d6bc <__divdi3+0x294>
9d00d6a4:	24a2ffff 	addiu	v0,a1,-1
9d00d6a8:	00ec682b 	sltu	t5,a3,t4
9d00d6ac:	51a00004 	beqzl	t5,9d00d6c0 <__divdi3+0x298>
9d00d6b0:	00ec3823 	subu	a3,a3,t4
9d00d6b4:	24a2fffe 	addiu	v0,a1,-2
9d00d6b8:	00e83821 	addu	a3,a3,t0
9d00d6bc:	00ec3823 	subu	a3,a3,t4
9d00d6c0:	00e3001b 	divu	zero,a3,v1
9d00d6c4:	006001f4 	teq	v1,zero,0x7
9d00d6c8:	3125ffff 	andi	a1,t1,0xffff
9d00d6cc:	00001812 	mflo	v1
9d00d6d0:	00003810 	mfhi	a3
9d00d6d4:	00073c00 	sll	a3,a3,0x10
9d00d6d8:	00e52825 	or	a1,a3,a1
9d00d6dc:	70c33002 	mul	a2,a2,v1
9d00d6e0:	00a6482b 	sltu	t1,a1,a2
9d00d6e4:	1120000a 	beqz	t1,9d00d710 <__divdi3+0x2e8>
9d00d6e8:	00603825 	move	a3,v1
9d00d6ec:	00a82821 	addu	a1,a1,t0
9d00d6f0:	00a8482b 	sltu	t1,a1,t0
9d00d6f4:	15200006 	bnez	t1,9d00d710 <__divdi3+0x2e8>
9d00d6f8:	2467ffff 	addiu	a3,v1,-1
9d00d6fc:	00a6482b 	sltu	t1,a1,a2
9d00d700:	51200004 	beqzl	t1,9d00d714 <__divdi3+0x2ec>
9d00d704:	00021c00 	sll	v1,v0,0x10
9d00d708:	2467fffe 	addiu	a3,v1,-2
9d00d70c:	00a82821 	addu	a1,a1,t0
9d00d710:	00021c00 	sll	v1,v0,0x10
9d00d714:	01644804 	sllv	t1,a0,t3
9d00d718:	00a62823 	subu	a1,a1,a2
9d00d71c:	1000ff9f 	b	9d00d59c <__divdi3+0x174>
9d00d720:	00671825 	or	v1,v1,a3
9d00d724:	00a7402b 	sltu	t0,a1,a3
9d00d728:	00001825 	move	v1,zero
9d00d72c:	1500ff89 	bnez	t0,9d00d554 <__divdi3+0x12c>
9d00d730:	00001025 	move	v0,zero
9d00d734:	70eb5820 	clz	t3,a3
9d00d738:	15600007 	bnez	t3,9d00d758 <__divdi3+0x330>
9d00d73c:	24090020 	li	t1,32
9d00d740:	00e5282b 	sltu	a1,a3,a1
9d00d744:	14a0ff83 	bnez	a1,9d00d554 <__divdi3+0x12c>
9d00d748:	24020001 	li	v0,1
9d00d74c:	0086102b 	sltu	v0,a0,a2
9d00d750:	1000ff80 	b	9d00d554 <__divdi3+0x12c>
9d00d754:	38420001 	xori	v0,v0,0x1
9d00d758:	012b4823 	subu	t1,t1,t3
9d00d75c:	01261006 	srlv	v0,a2,t1
9d00d760:	01673804 	sllv	a3,a3,t3
9d00d764:	00473825 	or	a3,v0,a3
9d00d768:	00074402 	srl	t0,a3,0x10
9d00d76c:	01651004 	sllv	v0,a1,t3
9d00d770:	01252806 	srlv	a1,a1,t1
9d00d774:	00a8001b 	divu	zero,a1,t0
9d00d778:	010001f4 	teq	t0,zero,0x7
9d00d77c:	30ecffff 	andi	t4,a3,0xffff
9d00d780:	01241806 	srlv	v1,a0,t1
9d00d784:	00621025 	or	v0,v1,v0
9d00d788:	00021c02 	srl	v1,v0,0x10
9d00d78c:	00002812 	mflo	a1
9d00d790:	00004810 	mfhi	t1
9d00d794:	00094c00 	sll	t1,t1,0x10
9d00d798:	01234825 	or	t1,t1,v1
9d00d79c:	71856802 	mul	t5,t4,a1
9d00d7a0:	012d702b 	sltu	t6,t1,t5
9d00d7a4:	11c0000a 	beqz	t6,9d00d7d0 <__divdi3+0x3a8>
9d00d7a8:	00a01825 	move	v1,a1
9d00d7ac:	01274821 	addu	t1,t1,a3
9d00d7b0:	0127702b 	sltu	t6,t1,a3
9d00d7b4:	15c00006 	bnez	t6,9d00d7d0 <__divdi3+0x3a8>
9d00d7b8:	24a3ffff 	addiu	v1,a1,-1
9d00d7bc:	012d702b 	sltu	t6,t1,t5
9d00d7c0:	51c00004 	beqzl	t6,9d00d7d4 <__divdi3+0x3ac>
9d00d7c4:	012d4823 	subu	t1,t1,t5
9d00d7c8:	24a3fffe 	addiu	v1,a1,-2
9d00d7cc:	01274821 	addu	t1,t1,a3
9d00d7d0:	012d4823 	subu	t1,t1,t5
9d00d7d4:	0128001b 	divu	zero,t1,t0
9d00d7d8:	010001f4 	teq	t0,zero,0x7
9d00d7dc:	3045ffff 	andi	a1,v0,0xffff
9d00d7e0:	00004012 	mflo	t0
9d00d7e4:	00004810 	mfhi	t1
9d00d7e8:	00094c00 	sll	t1,t1,0x10
9d00d7ec:	01252825 	or	a1,t1,a1
9d00d7f0:	71886002 	mul	t4,t4,t0
9d00d7f4:	00ac102b 	sltu	v0,a1,t4
9d00d7f8:	1040000a 	beqz	v0,9d00d824 <__divdi3+0x3fc>
9d00d7fc:	01004825 	move	t1,t0
9d00d800:	00a72821 	addu	a1,a1,a3
9d00d804:	00a7102b 	sltu	v0,a1,a3
9d00d808:	14400006 	bnez	v0,9d00d824 <__divdi3+0x3fc>
9d00d80c:	2509ffff 	addiu	t1,t0,-1
9d00d810:	00ac102b 	sltu	v0,a1,t4
9d00d814:	10400004 	beqz	v0,9d00d828 <__divdi3+0x400>
9d00d818:	00031400 	sll	v0,v1,0x10
9d00d81c:	2509fffe 	addiu	t1,t0,-2
9d00d820:	00a72821 	addu	a1,a1,a3
9d00d824:	00031400 	sll	v0,v1,0x10
9d00d828:	01663004 	sllv	a2,a2,t3
9d00d82c:	00491025 	or	v0,v0,t1
9d00d830:	00c20019 	multu	a2,v0
9d00d834:	00ac2823 	subu	a1,a1,t4
9d00d838:	00003810 	mfhi	a3
9d00d83c:	00a7182b 	sltu	v1,a1,a3
9d00d840:	14600007 	bnez	v1,9d00d860 <__divdi3+0x438>
9d00d844:	00003012 	mflo	a2
9d00d848:	14a7ff42 	bne	a1,a3,9d00d554 <__divdi3+0x12c>
9d00d84c:	00001825 	move	v1,zero
9d00d850:	01642004 	sllv	a0,a0,t3
9d00d854:	0086202b 	sltu	a0,a0,a2
9d00d858:	1080ff3e 	beqz	a0,9d00d554 <__divdi3+0x12c>
9d00d85c:	00000000 	nop
9d00d860:	2442ffff 	addiu	v0,v0,-1
9d00d864:	1000ff3b 	b	9d00d554 <__divdi3+0x12c>
9d00d868:	00001825 	move	v1,zero

9d00d86c <__moddi3>:
9d00d86c:	04a10007 	bgez	a1,9d00d88c <__moddi3+0x20>
9d00d870:	00006025 	move	t4,zero
9d00d874:	00041023 	negu	v0,a0
9d00d878:	0002482b 	sltu	t1,zero,v0
9d00d87c:	00052823 	negu	a1,a1
9d00d880:	00402025 	move	a0,v0
9d00d884:	00a92823 	subu	a1,a1,t1
9d00d888:	240cffff 	li	t4,-1
9d00d88c:	04e10006 	bgez	a3,9d00d8a8 <__moddi3+0x3c>
9d00d890:	00c04825 	move	t1,a2
9d00d894:	00063023 	negu	a2,a2
9d00d898:	0006102b 	sltu	v0,zero,a2
9d00d89c:	00073823 	negu	a3,a3
9d00d8a0:	00e23823 	subu	a3,a3,v0
9d00d8a4:	00c04825 	move	t1,a2
9d00d8a8:	00801025 	move	v0,a0
9d00d8ac:	14e0009c 	bnez	a3,9d00db20 <__moddi3+0x2b4>
9d00d8b0:	00a01825 	move	v1,a1
9d00d8b4:	00a6302b 	sltu	a2,a1,a2
9d00d8b8:	10c00039 	beqz	a2,9d00d9a0 <__moddi3+0x134>
9d00d8bc:	712a5020 	clz	t2,t1
9d00d8c0:	51400008 	beqzl	t2,9d00d8e4 <__moddi3+0x78>
9d00d8c4:	00092402 	srl	a0,t1,0x10
9d00d8c8:	01451804 	sllv	v1,a1,t2
9d00d8cc:	000a2823 	negu	a1,t2
9d00d8d0:	00a42806 	srlv	a1,a0,a1
9d00d8d4:	01494804 	sllv	t1,t1,t2
9d00d8d8:	00a31825 	or	v1,a1,v1
9d00d8dc:	01441004 	sllv	v0,a0,t2
9d00d8e0:	00092402 	srl	a0,t1,0x10
9d00d8e4:	0064001b 	divu	zero,v1,a0
9d00d8e8:	008001f4 	teq	a0,zero,0x7
9d00d8ec:	3127ffff 	andi	a3,t1,0xffff
9d00d8f0:	00001812 	mflo	v1
9d00d8f4:	00002810 	mfhi	a1
9d00d8f8:	70673002 	mul	a2,v1,a3
9d00d8fc:	00051c00 	sll	v1,a1,0x10
9d00d900:	00022c02 	srl	a1,v0,0x10
9d00d904:	00651825 	or	v1,v1,a1
9d00d908:	0066282b 	sltu	a1,v1,a2
9d00d90c:	50a00008 	beqzl	a1,9d00d930 <__moddi3+0xc4>
9d00d910:	00661823 	subu	v1,v1,a2
9d00d914:	00691821 	addu	v1,v1,t1
9d00d918:	0069282b 	sltu	a1,v1,t1
9d00d91c:	14a00003 	bnez	a1,9d00d92c <__moddi3+0xc0>
9d00d920:	0066282b 	sltu	a1,v1,a2
9d00d924:	54a00001 	bnezl	a1,9d00d92c <__moddi3+0xc0>
9d00d928:	00691821 	addu	v1,v1,t1
9d00d92c:	00661823 	subu	v1,v1,a2
9d00d930:	0064001b 	divu	zero,v1,a0
9d00d934:	008001f4 	teq	a0,zero,0x7
9d00d938:	3042ffff 	andi	v0,v0,0xffff
9d00d93c:	00001812 	mflo	v1
9d00d940:	00003010 	mfhi	a2
9d00d944:	70672002 	mul	a0,v1,a3
9d00d948:	00061c00 	sll	v1,a2,0x10
9d00d94c:	00621025 	or	v0,v1,v0
9d00d950:	0044182b 	sltu	v1,v0,a0
9d00d954:	50600008 	beqzl	v1,9d00d978 <__moddi3+0x10c>
9d00d958:	00441023 	subu	v0,v0,a0
9d00d95c:	00491021 	addu	v0,v0,t1
9d00d960:	0049182b 	sltu	v1,v0,t1
9d00d964:	14600003 	bnez	v1,9d00d974 <__moddi3+0x108>
9d00d968:	0044182b 	sltu	v1,v0,a0
9d00d96c:	54600001 	bnezl	v1,9d00d974 <__moddi3+0x108>
9d00d970:	00491021 	addu	v0,v0,t1
9d00d974:	00441023 	subu	v0,v0,a0
9d00d978:	01421006 	srlv	v0,v0,t2
9d00d97c:	00001825 	move	v1,zero
9d00d980:	11800005 	beqz	t4,9d00d998 <__moddi3+0x12c>
9d00d984:	00000000 	nop
9d00d988:	00021023 	negu	v0,v0
9d00d98c:	0002202b 	sltu	a0,zero,v0
9d00d990:	00031823 	negu	v1,v1
9d00d994:	00641823 	subu	v1,v1,a0
9d00d998:	03e00008 	jr	ra
9d00d99c:	00000000 	nop
9d00d9a0:	15200006 	bnez	t1,9d00d9bc <__moddi3+0x150>
9d00d9a4:	00000000 	nop
9d00d9a8:	24090001 	li	t1,1
9d00d9ac:	0127001b 	divu	zero,t1,a3
9d00d9b0:	00e001f4 	teq	a3,zero,0x7
9d00d9b4:	00004812 	mflo	t1
9d00d9b8:	712a5020 	clz	t2,t1
9d00d9bc:	15400029 	bnez	t2,9d00da64 <__moddi3+0x1f8>
9d00d9c0:	24070020 	li	a3,32
9d00d9c4:	00a92823 	subu	a1,a1,t1
9d00d9c8:	00092402 	srl	a0,t1,0x10
9d00d9cc:	00a4001b 	divu	zero,a1,a0
9d00d9d0:	008001f4 	teq	a0,zero,0x7
9d00d9d4:	3127ffff 	andi	a3,t1,0xffff
9d00d9d8:	00002812 	mflo	a1
9d00d9dc:	00001810 	mfhi	v1
9d00d9e0:	70a73002 	mul	a2,a1,a3
9d00d9e4:	00032c00 	sll	a1,v1,0x10
9d00d9e8:	00021c02 	srl	v1,v0,0x10
9d00d9ec:	00a32825 	or	a1,a1,v1
9d00d9f0:	00a6182b 	sltu	v1,a1,a2
9d00d9f4:	50600008 	beqzl	v1,9d00da18 <__moddi3+0x1ac>
9d00d9f8:	00a63023 	subu	a2,a1,a2
9d00d9fc:	00a92821 	addu	a1,a1,t1
9d00da00:	00a9182b 	sltu	v1,a1,t1
9d00da04:	14600003 	bnez	v1,9d00da14 <__moddi3+0x1a8>
9d00da08:	00a6182b 	sltu	v1,a1,a2
9d00da0c:	54600001 	bnezl	v1,9d00da14 <__moddi3+0x1a8>
9d00da10:	00a92821 	addu	a1,a1,t1
9d00da14:	00a63023 	subu	a2,a1,a2
9d00da18:	00c4001b 	divu	zero,a2,a0
9d00da1c:	008001f4 	teq	a0,zero,0x7
9d00da20:	3042ffff 	andi	v0,v0,0xffff
9d00da24:	00003012 	mflo	a2
9d00da28:	00002810 	mfhi	a1
9d00da2c:	70c71802 	mul	v1,a2,a3
9d00da30:	00053400 	sll	a2,a1,0x10
9d00da34:	00c21025 	or	v0,a2,v0
9d00da38:	0043202b 	sltu	a0,v0,v1
9d00da3c:	5080ffce 	beqzl	a0,9d00d978 <__moddi3+0x10c>
9d00da40:	00431023 	subu	v0,v0,v1
9d00da44:	00491021 	addu	v0,v0,t1
9d00da48:	0049202b 	sltu	a0,v0,t1
9d00da4c:	14800003 	bnez	a0,9d00da5c <__moddi3+0x1f0>
9d00da50:	0043202b 	sltu	a0,v0,v1
9d00da54:	54800001 	bnezl	a0,9d00da5c <__moddi3+0x1f0>
9d00da58:	00491021 	addu	v0,v0,t1
9d00da5c:	1000ffc6 	b	9d00d978 <__moddi3+0x10c>
9d00da60:	00431023 	subu	v0,v0,v1
9d00da64:	00ea3823 	subu	a3,a3,t2
9d00da68:	01494804 	sllv	t1,t1,t2
9d00da6c:	00e41806 	srlv	v1,a0,a3
9d00da70:	00093402 	srl	a2,t1,0x10
9d00da74:	00e53806 	srlv	a3,a1,a3
9d00da78:	00e6001b 	divu	zero,a3,a2
9d00da7c:	00c001f4 	teq	a2,zero,0x7
9d00da80:	01451004 	sllv	v0,a1,t2
9d00da84:	3128ffff 	andi	t0,t1,0xffff
9d00da88:	00621825 	or	v1,v1,v0
9d00da8c:	00032c02 	srl	a1,v1,0x10
9d00da90:	00003812 	mflo	a3
9d00da94:	00005810 	mfhi	t3
9d00da98:	70e81002 	mul	v0,a3,t0
9d00da9c:	000b3c00 	sll	a3,t3,0x10
9d00daa0:	00e53825 	or	a3,a3,a1
9d00daa4:	00e2282b 	sltu	a1,a3,v0
9d00daa8:	50a00008 	beqzl	a1,9d00dacc <__moddi3+0x260>
9d00daac:	00e23823 	subu	a3,a3,v0
9d00dab0:	00e93821 	addu	a3,a3,t1
9d00dab4:	00e9282b 	sltu	a1,a3,t1
9d00dab8:	14a00003 	bnez	a1,9d00dac8 <__moddi3+0x25c>
9d00dabc:	00e2282b 	sltu	a1,a3,v0
9d00dac0:	54a00001 	bnezl	a1,9d00dac8 <__moddi3+0x25c>
9d00dac4:	00e93821 	addu	a3,a3,t1
9d00dac8:	00e23823 	subu	a3,a3,v0
9d00dacc:	00e6001b 	divu	zero,a3,a2
9d00dad0:	00c001f4 	teq	a2,zero,0x7
9d00dad4:	3065ffff 	andi	a1,v1,0xffff
9d00dad8:	00003012 	mflo	a2
9d00dadc:	00003810 	mfhi	a3
9d00dae0:	00073c00 	sll	a3,a3,0x10
9d00dae4:	00e52825 	or	a1,a3,a1
9d00dae8:	70c83002 	mul	a2,a2,t0
9d00daec:	00a6102b 	sltu	v0,a1,a2
9d00daf0:	10400009 	beqz	v0,9d00db18 <__moddi3+0x2ac>
9d00daf4:	01441004 	sllv	v0,a0,t2
9d00daf8:	00a92821 	addu	a1,a1,t1
9d00dafc:	00a9102b 	sltu	v0,a1,t1
9d00db00:	14400005 	bnez	v0,9d00db18 <__moddi3+0x2ac>
9d00db04:	01441004 	sllv	v0,a0,t2
9d00db08:	00a6102b 	sltu	v0,a1,a2
9d00db0c:	54400001 	bnezl	v0,9d00db14 <__moddi3+0x2a8>
9d00db10:	00a92821 	addu	a1,a1,t1
9d00db14:	01441004 	sllv	v0,a0,t2
9d00db18:	1000ffab 	b	9d00d9c8 <__moddi3+0x15c>
9d00db1c:	00a62823 	subu	a1,a1,a2
9d00db20:	00a7402b 	sltu	t0,a1,a3
9d00db24:	1500ff96 	bnez	t0,9d00d980 <__moddi3+0x114>
9d00db28:	70ed6820 	clz	t5,a3
9d00db2c:	15a0000a 	bnez	t5,9d00db58 <__moddi3+0x2ec>
9d00db30:	00e5402b 	sltu	t0,a3,a1
9d00db34:	15000003 	bnez	t0,9d00db44 <__moddi3+0x2d8>
9d00db38:	0086402b 	sltu	t0,a0,a2
9d00db3c:	1500ff90 	bnez	t0,9d00d980 <__moddi3+0x114>
9d00db40:	00000000 	nop
9d00db44:	00861023 	subu	v0,a0,a2
9d00db48:	00a72823 	subu	a1,a1,a3
9d00db4c:	0082182b 	sltu	v1,a0,v0
9d00db50:	1000ff8b 	b	9d00d980 <__moddi3+0x114>
9d00db54:	00a31823 	subu	v1,a1,v1
9d00db58:	240b0020 	li	t3,32
9d00db5c:	016d5823 	subu	t3,t3,t5
9d00db60:	01664006 	srlv	t0,a2,t3
9d00db64:	01a73804 	sllv	a3,a3,t5
9d00db68:	01073825 	or	a3,t0,a3
9d00db6c:	01a51004 	sllv	v0,a1,t5
9d00db70:	00074c02 	srl	t1,a3,0x10
9d00db74:	01652806 	srlv	a1,a1,t3
9d00db78:	00a9001b 	divu	zero,a1,t1
9d00db7c:	012001f4 	teq	t1,zero,0x7
9d00db80:	30e8ffff 	andi	t0,a3,0xffff
9d00db84:	01641806 	srlv	v1,a0,t3
9d00db88:	00621825 	or	v1,v1,v0
9d00db8c:	00031402 	srl	v0,v1,0x10
9d00db90:	00002812 	mflo	a1
9d00db94:	00005010 	mfhi	t2
9d00db98:	000a5400 	sll	t2,t2,0x10
9d00db9c:	01425025 	or	t2,t2,v0
9d00dba0:	71057002 	mul	t6,t0,a1
9d00dba4:	014e782b 	sltu	t7,t2,t6
9d00dba8:	11e0000a 	beqz	t7,9d00dbd4 <__moddi3+0x368>
9d00dbac:	00a01025 	move	v0,a1
9d00dbb0:	01475021 	addu	t2,t2,a3
9d00dbb4:	0147782b 	sltu	t7,t2,a3
9d00dbb8:	15e00006 	bnez	t7,9d00dbd4 <__moddi3+0x368>
9d00dbbc:	24a2ffff 	addiu	v0,a1,-1
9d00dbc0:	014e782b 	sltu	t7,t2,t6
9d00dbc4:	51e00004 	beqzl	t7,9d00dbd8 <__moddi3+0x36c>
9d00dbc8:	014e5023 	subu	t2,t2,t6
9d00dbcc:	24a2fffe 	addiu	v0,a1,-2
9d00dbd0:	01475021 	addu	t2,t2,a3
9d00dbd4:	014e5023 	subu	t2,t2,t6
9d00dbd8:	0149001b 	divu	zero,t2,t1
9d00dbdc:	012001f4 	teq	t1,zero,0x7
9d00dbe0:	00004812 	mflo	t1
9d00dbe4:	00005010 	mfhi	t2
9d00dbe8:	000a5400 	sll	t2,t2,0x10
9d00dbec:	71092802 	mul	a1,t0,t1
9d00dbf0:	3068ffff 	andi	t0,v1,0xffff
9d00dbf4:	01484025 	or	t0,t2,t0
9d00dbf8:	0105182b 	sltu	v1,t0,a1
9d00dbfc:	1060000a 	beqz	v1,9d00dc28 <__moddi3+0x3bc>
9d00dc00:	01205025 	move	t2,t1
9d00dc04:	01074021 	addu	t0,t0,a3
9d00dc08:	0107182b 	sltu	v1,t0,a3
9d00dc0c:	14600006 	bnez	v1,9d00dc28 <__moddi3+0x3bc>
9d00dc10:	252affff 	addiu	t2,t1,-1
9d00dc14:	0105182b 	sltu	v1,t0,a1
9d00dc18:	10600004 	beqz	v1,9d00dc2c <__moddi3+0x3c0>
9d00dc1c:	00027400 	sll	t6,v0,0x10
9d00dc20:	252afffe 	addiu	t2,t1,-2
9d00dc24:	01074021 	addu	t0,t0,a3
9d00dc28:	00027400 	sll	t6,v0,0x10
9d00dc2c:	01ca7025 	or	t6,t6,t2
9d00dc30:	01a63004 	sllv	a2,a2,t5
9d00dc34:	01c60019 	multu	t6,a2
9d00dc38:	01054023 	subu	t0,t0,a1
9d00dc3c:	01a41804 	sllv	v1,a0,t5
9d00dc40:	00007810 	mfhi	t7
9d00dc44:	010f102b 	sltu	v0,t0,t7
9d00dc48:	01e02825 	move	a1,t7
9d00dc4c:	00007012 	mflo	t6
9d00dc50:	14400006 	bnez	v0,9d00dc6c <__moddi3+0x400>
9d00dc54:	00002012 	mflo	a0
9d00dc58:	150f0009 	bne	t0,t7,9d00dc80 <__moddi3+0x414>
9d00dc5c:	00642023 	subu	a0,v1,a0
9d00dc60:	006e102b 	sltu	v0,v1,t6
9d00dc64:	50400007 	beqzl	v0,9d00dc84 <__moddi3+0x418>
9d00dc68:	0064182b 	sltu	v1,v1,a0
9d00dc6c:	01c62023 	subu	a0,t6,a2
9d00dc70:	01e73823 	subu	a3,t7,a3
9d00dc74:	01c4702b 	sltu	t6,t6,a0
9d00dc78:	00ee2823 	subu	a1,a3,t6
9d00dc7c:	00642023 	subu	a0,v1,a0
9d00dc80:	0064182b 	sltu	v1,v1,a0
9d00dc84:	01054023 	subu	t0,t0,a1
9d00dc88:	01031823 	subu	v1,t0,v1
9d00dc8c:	01631004 	sllv	v0,v1,t3
9d00dc90:	01a42006 	srlv	a0,a0,t5
9d00dc94:	00441025 	or	v0,v0,a0
9d00dc98:	1000ff39 	b	9d00d980 <__moddi3+0x114>
9d00dc9c:	01a31806 	srlv	v1,v1,t5

Disassembly of section .text.dp32subadd:

9d00dca0 <__subdf3>:
9d00dca0:	3c018000 00e13826                       ...<&8..

9d00dca8 <__adddf3>:
9d00dca8:	00055840 000b5d42 000552c0 00047d42     @X..B]...R..B}..
9d00dcb8:	014f5025 00044ac0 3c088000 01485025     %PO..J.....<%PH.
9d00dcc8:	00077040 000e7542 00076ac0 00067d42     @p..Bu...j..B}..
9d00dcd8:	01af6825 000662c0 01a86825 256fffff     %h...b..%h....o%
9d00dce8:	2de107fe 1020008d 00000000              ...-.. .....

9d00dcf4 <Blab1>:
9d00dcf4:	25cfffff 	addiu	t7,t6,-1
9d00dcf8:	2de107fe 	sltiu	at,t7,2046
9d00dcfc:	102000bb 	beqz	at,9d00dfec <BspecB>
9d00dd00:	00000000 	nop

9d00dd04 <Blab2>:
9d00dd04:	3c018000 	lui	at,0x8000
9d00dd08:	00a12824 	and	a1,a1,at
9d00dd0c:	016e4023 	subu	t0,t3,t6
9d00dd10:	1100002c 	beqz	t0,9d00ddc4 <Badd3>
9d00dd14:	00000000 	nop
9d00dd18:	19000015 	blez	t0,9d00dd70 <i1>
9d00dd1c:	00000000 	nop

9d00dd20 <L1>:
9d00dd20:	2d010020 	sltiu	at,t0,32
9d00dd24:	14200007 	bnez	at,9d00dd44 <L2>
9d00dd28:	00000000 	nop
9d00dd2c:	2108ffe0 	addi	t0,t0,-32
9d00dd30:	000c302b 	sltu	a2,zero,t4
9d00dd34:	100d0023 	beq	zero,t5,9d00ddc4 <Badd3>
9d00dd38:	01a66025 	or	t4,t5,a2
9d00dd3c:	1000fff8 	b	9d00dd20 <L1>
9d00dd40:	340d0000 	li	t5,0x0

9d00dd44 <L2>:
9d00dd44:	1100001f 	beqz	t0,9d00ddc4 <Badd3>
9d00dd48:	00000000 	nop
9d00dd4c:	00082022 	neg	a0,t0
9d00dd50:	008c3004 	sllv	a2,t4,a0
9d00dd54:	008d2004 	sllv	a0,t5,a0
9d00dd58:	010c6006 	srlv	t4,t4,t0
9d00dd5c:	010d6806 	srlv	t5,t5,t0
9d00dd60:	10c00018 	beqz	a2,9d00ddc4 <Badd3>
9d00dd64:	008c6025 	or	t4,a0,t4
9d00dd68:	10000016 	b	9d00ddc4 <Badd3>
9d00dd6c:	358c0002 	ori	t4,t4,0x2

9d00dd70 <i1>:
9d00dd70:	000e5825 	or	t3,zero,t6
9d00dd74:	00084023 	negu	t0,t0

9d00dd78 <L4>:
9d00dd78:	2d010020 	sltiu	at,t0,32
9d00dd7c:	14200007 	bnez	at,9d00dd9c <L5>
9d00dd80:	00000000 	nop
9d00dd84:	2108ffe0 	addi	t0,t0,-32
9d00dd88:	0009302b 	sltu	a2,zero,t1
9d00dd8c:	100a000d 	beq	zero,t2,9d00ddc4 <Badd3>
9d00dd90:	01464825 	or	t1,t2,a2
9d00dd94:	1000fff8 	b	9d00dd78 <L4>
9d00dd98:	340a0000 	li	t2,0x0

9d00dd9c <L5>:
9d00dd9c:	11000009 	beqz	t0,9d00ddc4 <Badd3>
9d00dda0:	00000000 	nop
9d00dda4:	00082022 	neg	a0,t0
9d00dda8:	00893004 	sllv	a2,t1,a0
9d00ddac:	008a2004 	sllv	a0,t2,a0
9d00ddb0:	01094806 	srlv	t1,t1,t0
9d00ddb4:	010a5006 	srlv	t2,t2,t0
9d00ddb8:	10c00002 	beqz	a2,9d00ddc4 <Badd3>
9d00ddbc:	00894825 	or	t1,a0,t1
9d00ddc0:	35290002 	ori	t1,t1,0x2

9d00ddc4 <Badd3>:
9d00ddc4:	00a77826 	xor	t7,a1,a3
9d00ddc8:	05e0001c 	bltz	t7,9d00de3c <Bsub1>
9d00ddcc:	00000000 	nop
9d00ddd0:	012c4821 	addu	t1,t1,t4
9d00ddd4:	012c782b 	sltu	t7,t1,t4
9d00ddd8:	014d5021 	addu	t2,t2,t5
9d00dddc:	014f5021 	addu	t2,t2,t7
9d00dde0:	114d0002 	beq	t2,t5,9d00ddec <L7>
9d00dde4:	00000000 	nop
9d00dde8:	014d782b 	sltu	t7,t2,t5

9d00ddec <L7>:
9d00ddec:	11e00037 	beqz	t7,9d00decc <Bres>
9d00ddf0:	00000000 	nop
9d00ddf4:	312f0001 	andi	t7,t1,0x1
9d00ddf8:	11e00002 	beqz	t7,9d00de04 <i3>
9d00ddfc:	00000000 	nop
9d00de00:	35290002 	ori	t1,t1,0x2

9d00de04 <i3>:
9d00de04:	00094842 	srl	t1,t1,0x1
9d00de08:	000a7fc0 	sll	t7,t2,0x1f
9d00de0c:	012f4825 	or	t1,t1,t7
9d00de10:	000a5042 	srl	t2,t2,0x1
9d00de14:	3c018000 	lui	at,0x8000
9d00de18:	01415025 	or	t2,t2,at
9d00de1c:	256b0001 	addiu	t3,t3,1
9d00de20:	240107ff 	li	at,2047
9d00de24:	15610029 	bne	t3,at,9d00decc <Bres>
9d00de28:	00000000 	nop
9d00de2c:	3c017ff0 	lui	at,0x7ff0
9d00de30:	00a12825 	or	a1,a1,at
9d00de34:	10000037 	b	9d00df14 <BretA>
9d00de38:	24040000 	li	a0,0

9d00de3c <Bsub1>:
9d00de3c:	012c782b 	sltu	t7,t1,t4
9d00de40:	012c4823 	subu	t1,t1,t4
9d00de44:	014f102b 	sltu	v0,t2,t7
9d00de48:	014f5023 	subu	t2,t2,t7
9d00de4c:	014d782b 	sltu	t7,t2,t5
9d00de50:	01e27825 	or	t7,t7,v0
9d00de54:	11e00007 	beqz	t7,9d00de74 <i5>
9d00de58:	014d5023 	subu	t2,t2,t5
9d00de5c:	3c018000 	lui	at,0x8000
9d00de60:	00a12826 	xor	a1,a1,at
9d00de64:	0009782b 	sltu	t7,zero,t1
9d00de68:	00094823 	negu	t1,t1
9d00de6c:	000a5023 	negu	t2,t2
9d00de70:	014f5023 	subu	t2,t2,t7

9d00de74 <i5>:
9d00de74:	15400008 	bnez	t2,9d00de98 <L8>
9d00de78:	00000000 	nop
9d00de7c:	15200003 	bnez	t1,9d00de8c <L9>
9d00de80:	00000000 	nop
9d00de84:	1000000d 	b	9d00debc <L10>
9d00de88:	240b0000 	li	t3,0

9d00de8c <L9>:
9d00de8c:	01205025 	move	t2,t1
9d00de90:	24090000 	li	t1,0
9d00de94:	256bffe0 	addiu	t3,t3,-32

9d00de98 <L8>:
9d00de98:	71484020 	clz	t0,t2
9d00de9c:	11000007 	beqz	t0,9d00debc <L10>
9d00dea0:	00000000 	nop
9d00dea4:	01685823 	subu	t3,t3,t0
9d00dea8:	00082022 	neg	a0,t0
9d00deac:	00892006 	srlv	a0,t1,a0
9d00deb0:	01094804 	sllv	t1,t1,t0
9d00deb4:	010a5004 	sllv	t2,t2,t0
9d00deb8:	01445025 	or	t2,t2,a0

9d00debc <L10>:
9d00debc:	01497825 	or	t7,t2,t1
9d00dec0:	15e00002 	bnez	t7,9d00decc <Bres>
9d00dec4:	00000000 	nop
9d00dec8:	24050000 	li	a1,0

9d00decc <Bres>:
9d00decc:	19600068 	blez	t3,9d00e070 <Bund>
9d00ded0:	00000000 	nop

9d00ded4 <Blab8>:
9d00ded4:	25290400 	addiu	t1,t1,1024
9d00ded8:	2d2f0400 	sltiu	t7,t1,1024
9d00dedc:	014f5021 	addu	t2,t2,t7
9d00dee0:	014f782b 	sltu	t7,t2,t7
9d00dee4:	016f5821 	addu	t3,t3,t7
9d00dee8:	00097ac2 	srl	t7,t1,0xb
9d00deec:	31ef0001 	andi	t7,t7,0x1
9d00def0:	012f4823 	subu	t1,t1,t7
9d00def4:	000922c2 	srl	a0,t1,0xb
9d00def8:	000a7d40 	sll	t7,t2,0x15
9d00defc:	008f2025 	or	a0,a0,t7
9d00df00:	000a7840 	sll	t7,t2,0x1
9d00df04:	000f7b02 	srl	t7,t7,0xc
9d00df08:	00af2825 	or	a1,a1,t7
9d00df0c:	000b7d00 	sll	t7,t3,0x14
9d00df10:	00af2825 	or	a1,a1,t7

9d00df14 <BretA>:
9d00df14:	00041025 	or	v0,zero,a0
9d00df18:	00051825 	or	v1,zero,a1

9d00df1c <B999>:
9d00df1c:	03e00008 	jr	ra
9d00df20:	00000000 	nop

9d00df24 <BspecA>:
9d00df24:	0120782a 	slt	t7,t1,zero
9d00df28:	01294821 	addu	t1,t1,t1
9d00df2c:	014a5021 	addu	t2,t2,t2
9d00df30:	15600023 	bnez	t3,9d00dfc0 <i7>
9d00df34:	014f5021 	addu	t2,t2,t7
9d00df38:	01497825 	or	t7,t2,t1
9d00df3c:	11e00014 	beqz	t7,9d00df90 <i8>
9d00df40:	00000000 	nop
9d00df44:	15400008 	bnez	t2,9d00df68 <L11>
9d00df48:	00000000 	nop
9d00df4c:	15200003 	bnez	t1,9d00df5c <L12>
9d00df50:	00000000 	nop
9d00df54:	1000ff67 	b	9d00dcf4 <Blab1>
9d00df58:	240b0000 	li	t3,0

9d00df5c <L12>:
9d00df5c:	01205025 	move	t2,t1
9d00df60:	24090000 	li	t1,0
9d00df64:	256bffe0 	addiu	t3,t3,-32

9d00df68 <L11>:
9d00df68:	71484020 	clz	t0,t2
9d00df6c:	1100ff61 	beqz	t0,9d00dcf4 <Blab1>
9d00df70:	00000000 	nop
9d00df74:	01685823 	subu	t3,t3,t0
9d00df78:	00082022 	neg	a0,t0
9d00df7c:	00892006 	srlv	a0,t1,a0
9d00df80:	01094804 	sllv	t1,t1,t0
9d00df84:	010a5004 	sllv	t2,t2,t0
9d00df88:	1000ff5a 	b	9d00dcf4 <Blab1>
9d00df8c:	01445025 	or	t2,t2,a0

9d00df90 <i8>:
9d00df90:	240107ff 	li	at,2047
9d00df94:	11c10015 	beq	t6,at,9d00dfec <BspecB>
9d00df98:	00000000 	nop
9d00df9c:	00e74021 	addu	t0,a3,a3
9d00dfa0:	01067825 	or	t7,t0,a2
9d00dfa4:	15e00003 	bnez	t7,9d00dfb4 <BretB>
9d00dfa8:	00000000 	nop
9d00dfac:	04e0ffd9 	bltz	a3,9d00df14 <BretA>
9d00dfb0:	00000000 	nop

9d00dfb4 <BretB>:
9d00dfb4:	00061025 	or	v0,zero,a2
9d00dfb8:	1000ffd8 	b	9d00df1c <B999>
9d00dfbc:	00071825 	or	v1,zero,a3

9d00dfc0 <i7>:
9d00dfc0:	01497825 	or	t7,t2,t1
9d00dfc4:	15e00027 	bnez	t7,9d00e064 <Bnan>
9d00dfc8:	00000000 	nop
9d00dfcc:	240107ff 	li	at,2047
9d00dfd0:	15c1ffd0 	bne	t6,at,9d00df14 <BretA>
9d00dfd4:	00000000 	nop
9d00dfd8:	00a77826 	xor	t7,a1,a3
9d00dfdc:	05e00021 	bltz	t7,9d00e064 <Bnan>
9d00dfe0:	00000000 	nop
9d00dfe4:	1000fff3 	b	9d00dfb4 <BretB>
9d00dfe8:	00000000 	nop

9d00dfec <BspecB>:
9d00dfec:	0180782a 	slt	t7,t4,zero
9d00dff0:	018c6021 	addu	t4,t4,t4
9d00dff4:	01ad6821 	addu	t5,t5,t5
9d00dff8:	15c00017 	bnez	t6,9d00e058 <i11>
9d00dffc:	01af6821 	addu	t5,t5,t7
9d00e000:	01ac7825 	or	t7,t5,t4
9d00e004:	11e0ffc3 	beqz	t7,9d00df14 <BretA>
9d00e008:	00000000 	nop
9d00e00c:	15a00008 	bnez	t5,9d00e030 <L14>
9d00e010:	00000000 	nop
9d00e014:	15800003 	bnez	t4,9d00e024 <L15>
9d00e018:	00000000 	nop
9d00e01c:	1000ff39 	b	9d00dd04 <Blab2>
9d00e020:	240e0000 	li	t6,0

9d00e024 <L15>:
9d00e024:	01806825 	move	t5,t4
9d00e028:	240c0000 	li	t4,0
9d00e02c:	25ceffe0 	addiu	t6,t6,-32

9d00e030 <L14>:
9d00e030:	71a84020 	clz	t0,t5
9d00e034:	1100ff33 	beqz	t0,9d00dd04 <Blab2>
9d00e038:	00000000 	nop
9d00e03c:	01c87023 	subu	t6,t6,t0
9d00e040:	00082022 	neg	a0,t0
9d00e044:	008c2006 	srlv	a0,t4,a0
9d00e048:	010c6004 	sllv	t4,t4,t0
9d00e04c:	010d6804 	sllv	t5,t5,t0
9d00e050:	1000ff2c 	b	9d00dd04 <Blab2>
9d00e054:	01a46825 	or	t5,t5,a0

9d00e058 <i11>:
9d00e058:	01ac7825 	or	t7,t5,t4
9d00e05c:	11e0ffd5 	beqz	t7,9d00dfb4 <BretB>
9d00e060:	00000000 	nop

9d00e064 <Bnan>:
9d00e064:	3c05fff8 	lui	a1,0xfff8
9d00e068:	1000ffaa 	b	9d00df14 <BretA>
9d00e06c:	24040000 	li	a0,0

9d00e070 <Bund>:
9d00e070:	24080001 	li	t0,1
9d00e074:	010b4023 	subu	t0,t0,t3

9d00e078 <L17>:
9d00e078:	2d010020 	sltiu	at,t0,32
9d00e07c:	14200007 	bnez	at,9d00e09c <L18>
9d00e080:	00000000 	nop
9d00e084:	2108ffe0 	addi	t0,t0,-32
9d00e088:	0009302b 	sltu	a2,zero,t1
9d00e08c:	100a000d 	beq	zero,t2,9d00e0c4 <L19>
9d00e090:	01464825 	or	t1,t2,a2
9d00e094:	1000fff8 	b	9d00e078 <L17>
9d00e098:	340a0000 	li	t2,0x0

9d00e09c <L18>:
9d00e09c:	11000009 	beqz	t0,9d00e0c4 <L19>
9d00e0a0:	00000000 	nop
9d00e0a4:	00082022 	neg	a0,t0
9d00e0a8:	00893004 	sllv	a2,t1,a0
9d00e0ac:	008a2004 	sllv	a0,t2,a0
9d00e0b0:	01094806 	srlv	t1,t1,t0
9d00e0b4:	010a5006 	srlv	t2,t2,t0
9d00e0b8:	10c00002 	beqz	a2,9d00e0c4 <L19>
9d00e0bc:	00894825 	or	t1,a0,t1
9d00e0c0:	35290002 	ori	t1,t1,0x2

9d00e0c4 <L19>:
9d00e0c4:	1000ff83 	b	9d00ded4 <Blab8>
9d00e0c8:	240b0000 	li	t3,0
9d00e0cc:	00000000 	nop

Disassembly of section .text.__scan_fp:

9d00e0d0 <__scan_fp>:
9d00e0d0:	8cc2000c 	lw	v0,12(a2)
9d00e0d4:	27bdffb0 	addiu	sp,sp,-80
9d00e0d8:	afb40038 	sw	s4,56(sp)
9d00e0dc:	afb00028 	sw	s0,40(sp)
9d00e0e0:	00e0a025 	move	s4,a3
9d00e0e4:	8cd00010 	lw	s0,16(a2)
9d00e0e8:	afb70044 	sw	s7,68(sp)
9d00e0ec:	afb60040 	sw	s6,64(sp)
9d00e0f0:	afb5003c 	sw	s5,60(sp)
9d00e0f4:	afb30034 	sw	s3,52(sp)
9d00e0f8:	afb20030 	sw	s2,48(sp)
9d00e0fc:	afb1002c 	sw	s1,44(sp)
9d00e100:	00809825 	move	s3,a0
9d00e104:	8cd10008 	lw	s1,8(a2)
9d00e108:	afbf004c 	sw	ra,76(sp)
9d00e10c:	afbe0048 	sw	s8,72(sp)
9d00e110:	afa50054 	sw	a1,84(sp)
9d00e114:	0f404ad7 	jal	9d012b5c <__skipws>
9d00e118:	afa20018 	sw	v0,24(sp)
9d00e11c:	8e840000 	lw	a0,0(s4)
9d00e120:	2603ffff 	addiu	v1,s0,-1
9d00e124:	0071880a 	movz	s1,v1,s1
9d00e128:	00821021 	addu	v0,a0,v0
9d00e12c:	ae820000 	sw	v0,0(s4)
9d00e130:	0071102a 	slt	v0,v1,s1
9d00e134:	0222180a 	movz	v1,s1,v0
9d00e138:	8fb10018 	lw	s1,24(sp)
9d00e13c:	afa30024 	sw	v1,36(sp)
9d00e140:	24170001 	li	s7,1
9d00e144:	00008025 	move	s0,zero
9d00e148:	0000b025 	move	s6,zero
9d00e14c:	00009025 	move	s2,zero
9d00e150:	0000a825 	move	s5,zero
9d00e154:	afa00020 	sw	zero,32(sp)
9d00e158:	8fa20024 	lw	v0,36(sp)
9d00e15c:	0202102a 	slt	v0,s0,v0
9d00e160:	10400017 	beqz	v0,9d00e1c0 <__scan_fp+0xf0>
9d00e164:	afb0001c 	sw	s0,28(sp)
9d00e168:	8e62003c 	lw	v0,60(s3)
9d00e16c:	8e63004c 	lw	v1,76(s3)
9d00e170:	0043182b 	sltu	v1,v0,v1
9d00e174:	10600024 	beqz	v1,9d00e208 <__scan_fp+0x138>
9d00e178:	24430001 	addiu	v1,v0,1
9d00e17c:	ae63003c 	sw	v1,60(s3)
9d00e180:	905e0000 	lbu	s8,0(v0)
9d00e184:	27c2ffd5 	addiu	v0,s8,-43
9d00e188:	7c020844 	ins	v0,zero,0x1,0x1
9d00e18c:	00521025 	or	v0,v0,s2
9d00e190:	5440003a 	bnezl	v0,9d00e27c <__scan_fp+0x1ac>
9d00e194:	8fa20020 	lw	v0,32(sp)
9d00e198:	52000030 	beqzl	s0,9d00e25c <__scan_fp+0x18c>
9d00e19c:	a23e0000 	sb	s8,0(s1)
9d00e1a0:	52b0002e 	beql	s5,s0,9d00e25c <__scan_fp+0x18c>
9d00e1a4:	a23e0000 	sb	s8,0(s1)
9d00e1a8:	8e62004c 	lw	v0,76(s3)
9d00e1ac:	10400005 	beqz	v0,9d00e1c4 <__scan_fp+0xf4>
9d00e1b0:	8fa20018 	lw	v0,24(sp)
9d00e1b4:	8e62003c 	lw	v0,60(s3)
9d00e1b8:	2442ffff 	addiu	v0,v0,-1
9d00e1bc:	ae62003c 	sw	v0,60(s3)
9d00e1c0:	8fa20018 	lw	v0,24(sp)
9d00e1c4:	8fa3001c 	lw	v1,28(sp)
9d00e1c8:	27a50010 	addiu	a1,sp,16
9d00e1cc:	00402025 	move	a0,v0
9d00e1d0:	00439821 	addu	s3,v0,v1
9d00e1d4:	0f405235 	jal	9d0148d4 <strtold>
9d00e1d8:	a2600000 	sb	zero,0(s3)
9d00e1dc:	8fa40054 	lw	a0,84(sp)
9d00e1e0:	ac820000 	sw	v0,0(a0)
9d00e1e4:	ac830004 	sw	v1,4(a0)
9d00e1e8:	8fa20018 	lw	v0,24(sp)
9d00e1ec:	8fa30010 	lw	v1,16(sp)
9d00e1f0:	0062a026 	xor	s4,v1,v0
9d00e1f4:	2402fffe 	li	v0,-2
9d00e1f8:	24030001 	li	v1,1
9d00e1fc:	0054180a 	movz	v1,v0,s4
9d00e200:	10000009 	b	9d00e228 <__scan_fp+0x158>
9d00e204:	0060f025 	move	s8,v1
9d00e208:	0f4049ab 	jal	9d0126ac <__shgetc>
9d00e20c:	02602025 	move	a0,s3
9d00e210:	0040f025 	move	s8,v0
9d00e214:	2402ffff 	li	v0,-1
9d00e218:	17c2ffda 	bne	s8,v0,9d00e184 <__scan_fp+0xb4>
9d00e21c:	8fa2001c 	lw	v0,28(sp)
9d00e220:	1440ffe8 	bnez	v0,9d00e1c4 <__scan_fp+0xf4>
9d00e224:	8fa20018 	lw	v0,24(sp)
9d00e228:	8fbf004c 	lw	ra,76(sp)
9d00e22c:	03c01025 	move	v0,s8
9d00e230:	8fb70044 	lw	s7,68(sp)
9d00e234:	8fbe0048 	lw	s8,72(sp)
9d00e238:	8fb60040 	lw	s6,64(sp)
9d00e23c:	8fb5003c 	lw	s5,60(sp)
9d00e240:	8fb40038 	lw	s4,56(sp)
9d00e244:	8fb30034 	lw	s3,52(sp)
9d00e248:	8fb20030 	lw	s2,48(sp)
9d00e24c:	8fb1002c 	lw	s1,44(sp)
9d00e250:	8fb00028 	lw	s0,40(sp)
9d00e254:	03e00008 	jr	ra
9d00e258:	27bd0050 	addiu	sp,sp,80
9d00e25c:	8e820000 	lw	v0,0(s4)
9d00e260:	24120001 	li	s2,1
9d00e264:	24420001 	addiu	v0,v0,1
9d00e268:	ae820000 	sw	v0,0(s4)
9d00e26c:	26100001 	addiu	s0,s0,1
9d00e270:	26f70001 	addiu	s7,s7,1
9d00e274:	1000ffb8 	b	9d00e158 <__scan_fp+0x88>
9d00e278:	26310001 	addiu	s1,s1,1
9d00e27c:	1440000c 	bnez	v0,9d00e2b0 <__scan_fp+0x1e0>
9d00e280:	2402002e 	li	v0,46
9d00e284:	17c2000a 	bne	s8,v0,9d00e2b0 <__scan_fp+0x1e0>
9d00e288:	00000000 	nop
9d00e28c:	56a0ffc7 	bnezl	s5,9d00e1ac <__scan_fp+0xdc>
9d00e290:	8e62004c 	lw	v0,76(s3)
9d00e294:	a23e0000 	sb	s8,0(s1)
9d00e298:	8e820000 	lw	v0,0(s4)
9d00e29c:	24420001 	addiu	v0,v0,1
9d00e2a0:	ae820000 	sw	v0,0(s4)
9d00e2a4:	24020001 	li	v0,1
9d00e2a8:	1000fff0 	b	9d00e26c <__scan_fp+0x19c>
9d00e2ac:	afa20020 	sw	v0,32(sp)
9d00e2b0:	16a0004c 	bnez	s5,9d00e3e4 <__scan_fp+0x314>
9d00e2b4:	00000000 	nop
9d00e2b8:	12c0000e 	beqz	s6,9d00e2f4 <__scan_fp+0x224>
9d00e2bc:	03c02025 	move	a0,s8
9d00e2c0:	0f405251 	jal	9d014944 <tolower>
9d00e2c4:	00000000 	nop
9d00e2c8:	38420070 	xori	v0,v0,0x70
9d00e2cc:	2c420001 	sltiu	v0,v0,1
9d00e2d0:	10400042 	beqz	v0,9d00e3dc <__scan_fp+0x30c>
9d00e2d4:	26420001 	addiu	v0,s2,1
9d00e2d8:	a23e0000 	sb	s8,0(s1)
9d00e2dc:	8e820000 	lw	v0,0(s4)
9d00e2e0:	00009025 	move	s2,zero
9d00e2e4:	02e0a825 	move	s5,s7
9d00e2e8:	24420001 	addiu	v0,v0,1
9d00e2ec:	1000ffdf 	b	9d00e26c <__scan_fp+0x19c>
9d00e2f0:	ae820000 	sw	v0,0(s4)
9d00e2f4:	0f405251 	jal	9d014944 <tolower>
9d00e2f8:	00000000 	nop
9d00e2fc:	1000fff3 	b	9d00e2cc <__scan_fp+0x1fc>
9d00e300:	38420065 	xori	v0,v0,0x65
9d00e304:	0f405251 	jal	9d014944 <tolower>
9d00e308:	03c02025 	move	a0,s8
9d00e30c:	24040078 	li	a0,120
9d00e310:	14440034 	bne	v0,a0,9d00e3e4 <__scan_fp+0x314>
9d00e314:	24020030 	li	v0,48
9d00e318:	8224ffff 	lb	a0,-1(s1)
9d00e31c:	14820031 	bne	a0,v0,9d00e3e4 <__scan_fp+0x314>
9d00e320:	00000000 	nop
9d00e324:	a23e0000 	sb	s8,0(s1)
9d00e328:	8e820000 	lw	v0,0(s4)
9d00e32c:	24160001 	li	s6,1
9d00e330:	24420001 	addiu	v0,v0,1
9d00e334:	1000ffcd 	b	9d00e26c <__scan_fp+0x19c>
9d00e338:	ae820000 	sw	v0,0(s4)
9d00e33c:	2c42000a 	sltiu	v0,v0,10
9d00e340:	1000002d 	b	9d00e3f8 <__scan_fp+0x328>
9d00e344:	38420001 	xori	v0,v0,0x1
9d00e348:	0f4049ab 	jal	9d0126ac <__shgetc>
9d00e34c:	02602025 	move	a0,s3
9d00e350:	00408825 	move	s1,v0
9d00e354:	2402ffff 	li	v0,-1
9d00e358:	5222ff9a 	beql	s1,v0,9d00e1c4 <__scan_fp+0xf4>
9d00e35c:	8fa20018 	lw	v0,24(sp)
9d00e360:	10000044 	b	9d00e474 <__scan_fp+0x3a4>
9d00e364:	02202025 	move	a0,s1
9d00e368:	0f405251 	jal	9d014944 <tolower>
9d00e36c:	00000000 	nop
9d00e370:	00171880 	sll	v1,s7,0x2
9d00e374:	03a31821 	addu	v1,sp,v1
9d00e378:	8c630010 	lw	v1,16(v1)
9d00e37c:	00761821 	addu	v1,v1,s6
9d00e380:	80630000 	lb	v1,0(v1)
9d00e384:	14430045 	bne	v0,v1,9d00e49c <__scan_fp+0x3cc>
9d00e388:	0255102a 	slt	v0,s2,s5
9d00e38c:	8fa20018 	lw	v0,24(sp)
9d00e390:	26d60001 	addiu	s6,s6,1
9d00e394:	0055a821 	addu	s5,v0,s5
9d00e398:	24020003 	li	v0,3
9d00e39c:	16c2002b 	bne	s6,v0,9d00e44c <__scan_fp+0x37c>
9d00e3a0:	a2b10000 	sb	s1,0(s5)
9d00e3a4:	26020003 	addiu	v0,s0,3
9d00e3a8:	afa2001c 	sw	v0,28(sp)
9d00e3ac:	8e820000 	lw	v0,0(s4)
9d00e3b0:	24420003 	addiu	v0,v0,3
9d00e3b4:	1000ff82 	b	9d00e1c0 <__scan_fp+0xf0>
9d00e3b8:	ae820000 	sw	v0,0(s4)
9d00e3bc:	1000fff3 	b	9d00e38c <__scan_fp+0x2bc>
9d00e3c0:	0000b825 	move	s7,zero
9d00e3c4:	1000fff1 	b	9d00e38c <__scan_fp+0x2bc>
9d00e3c8:	24170001 	li	s7,1
9d00e3cc:	8e820000 	lw	v0,0(s4)
9d00e3d0:	24420001 	addiu	v0,v0,1
9d00e3d4:	1000ffa5 	b	9d00e26c <__scan_fp+0x19c>
9d00e3d8:	ae820000 	sw	v0,0(s4)
9d00e3dc:	1050ffc9 	beq	v0,s0,9d00e304 <__scan_fp+0x234>
9d00e3e0:	00000000 	nop
9d00e3e4:	12c0ffd5 	beqz	s6,9d00e33c <__scan_fp+0x26c>
9d00e3e8:	27c2ffd0 	addiu	v0,s8,-48
9d00e3ec:	0f405206 	jal	9d014818 <isxdigit>
9d00e3f0:	03c02025 	move	a0,s8
9d00e3f4:	2c420001 	sltiu	v0,v0,1
9d00e3f8:	5040fff4 	beqzl	v0,9d00e3cc <__scan_fp+0x2fc>
9d00e3fc:	a23e0000 	sb	s8,0(s1)
9d00e400:	8e62004c 	lw	v0,76(s3)
9d00e404:	10400004 	beqz	v0,9d00e418 <__scan_fp+0x348>
9d00e408:	00000000 	nop
9d00e40c:	8e62003c 	lw	v0,60(s3)
9d00e410:	2442ffff 	addiu	v0,v0,-1
9d00e414:	ae62003c 	sw	v0,60(s3)
9d00e418:	1612ff69 	bne	s0,s2,9d00e1c0 <__scan_fp+0xf0>
9d00e41c:	3c029d00 	lui	v0,0x9d00
9d00e420:	2442759c 	addiu	v0,v0,30108
9d00e424:	afa20010 	sw	v0,16(sp)
9d00e428:	8fa20024 	lw	v0,36(sp)
9d00e42c:	26120002 	addiu	s2,s0,2
9d00e430:	0242102a 	slt	v0,s2,v0
9d00e434:	1040ff62 	beqz	v0,9d00e1c0 <__scan_fp+0xf0>
9d00e438:	3c029d00 	lui	v0,0x9d00
9d00e43c:	244275a0 	addiu	v0,v0,30112
9d00e440:	afa20014 	sw	v0,20(sp)
9d00e444:	0000b025 	move	s6,zero
9d00e448:	2417ffff 	li	s7,-1
9d00e44c:	8e62003c 	lw	v0,60(s3)
9d00e450:	8e63004c 	lw	v1,76(s3)
9d00e454:	0043182b 	sltu	v1,v0,v1
9d00e458:	1060ffbb 	beqz	v1,9d00e348 <__scan_fp+0x278>
9d00e45c:	02d0a821 	addu	s5,s6,s0
9d00e460:	24430001 	addiu	v1,v0,1
9d00e464:	ae63003c 	sw	v1,60(s3)
9d00e468:	90510000 	lbu	s1,0(v0)
9d00e46c:	2402ffff 	li	v0,-1
9d00e470:	02202025 	move	a0,s1
9d00e474:	16e2ffbc 	bne	s7,v0,9d00e368 <__scan_fp+0x298>
9d00e478:	00000000 	nop
9d00e47c:	0f405251 	jal	9d014944 <tolower>
9d00e480:	00000000 	nop
9d00e484:	00408825 	move	s1,v0
9d00e488:	24020069 	li	v0,105
9d00e48c:	1222ffcb 	beq	s1,v0,9d00e3bc <__scan_fp+0x2ec>
9d00e490:	2402006e 	li	v0,110
9d00e494:	1222ffcb 	beq	s1,v0,9d00e3c4 <__scan_fp+0x2f4>
9d00e498:	0255102a 	slt	v0,s2,s5
9d00e49c:	1440ffc2 	bnez	v0,9d00e3a8 <__scan_fp+0x2d8>
9d00e4a0:	26020003 	addiu	v0,s0,3
9d00e4a4:	26b5ffff 	addiu	s5,s5,-1
9d00e4a8:	02b0102a 	slt	v0,s5,s0
9d00e4ac:	1440ff45 	bnez	v0,9d00e1c4 <__scan_fp+0xf4>
9d00e4b0:	8fa20018 	lw	v0,24(sp)
9d00e4b4:	8e62004c 	lw	v0,76(s3)
9d00e4b8:	5040fffb 	beqzl	v0,9d00e4a8 <__scan_fp+0x3d8>
9d00e4bc:	26b5ffff 	addiu	s5,s5,-1
9d00e4c0:	8e62003c 	lw	v0,60(s3)
9d00e4c4:	2442ffff 	addiu	v0,v0,-1
9d00e4c8:	1000fff6 	b	9d00e4a4 <__scan_fp+0x3d4>
9d00e4cc:	ae62003c 	sw	v0,60(s3)

Disassembly of section .text:

9d00e4d0 <__udivdi3>:
9d00e4d0:	00c04025 	move	t0,a2
9d00e4d4:	00e01825 	move	v1,a3
9d00e4d8:	00805025 	move	t2,a0
9d00e4dc:	14e00098 	bnez	a3,9d00e740 <__udivdi3+0x270>
9d00e4e0:	00a01025 	move	v0,a1
9d00e4e4:	00a6302b 	sltu	a2,a1,a2
9d00e4e8:	10c00035 	beqz	a2,9d00e5c0 <__udivdi3+0xf0>
9d00e4ec:	00000000 	nop
9d00e4f0:	71052820 	clz	a1,t0
9d00e4f4:	10a00006 	beqz	a1,9d00e510 <__udivdi3+0x40>
9d00e4f8:	00052023 	negu	a0,a1
9d00e4fc:	008a2006 	srlv	a0,t2,a0
9d00e500:	00a21004 	sllv	v0,v0,a1
9d00e504:	00a84004 	sllv	t0,t0,a1
9d00e508:	00821025 	or	v0,a0,v0
9d00e50c:	00aa5004 	sllv	t2,t2,a1
9d00e510:	00083402 	srl	a2,t0,0x10
9d00e514:	0046001b 	divu	zero,v0,a2
9d00e518:	00c001f4 	teq	a2,zero,0x7
9d00e51c:	3105ffff 	andi	a1,t0,0xffff
9d00e520:	000a2402 	srl	a0,t2,0x10
9d00e524:	00003812 	mflo	a3
9d00e528:	00001010 	mfhi	v0
9d00e52c:	00021400 	sll	v0,v0,0x10
9d00e530:	00442025 	or	a0,v0,a0
9d00e534:	70a74802 	mul	t1,a1,a3
9d00e538:	0089582b 	sltu	t3,a0,t1
9d00e53c:	1160000a 	beqz	t3,9d00e568 <__udivdi3+0x98>
9d00e540:	00e01025 	move	v0,a3
9d00e544:	00882021 	addu	a0,a0,t0
9d00e548:	0088582b 	sltu	t3,a0,t0
9d00e54c:	15600006 	bnez	t3,9d00e568 <__udivdi3+0x98>
9d00e550:	24e2ffff 	addiu	v0,a3,-1
9d00e554:	0089582b 	sltu	t3,a0,t1
9d00e558:	51600004 	beqzl	t3,9d00e56c <__udivdi3+0x9c>
9d00e55c:	00892023 	subu	a0,a0,t1
9d00e560:	24e2fffe 	addiu	v0,a3,-2
9d00e564:	00882021 	addu	a0,a0,t0
9d00e568:	00892023 	subu	a0,a0,t1
9d00e56c:	0086001b 	divu	zero,a0,a2
9d00e570:	00c001f4 	teq	a2,zero,0x7
9d00e574:	00003010 	mfhi	a2
9d00e578:	00063400 	sll	a2,a2,0x10
9d00e57c:	00002012 	mflo	a0
9d00e580:	70a43802 	mul	a3,a1,a0
9d00e584:	3145ffff 	andi	a1,t2,0xffff
9d00e588:	00c52825 	or	a1,a2,a1
9d00e58c:	00a7482b 	sltu	t1,a1,a3
9d00e590:	11200008 	beqz	t1,9d00e5b4 <__udivdi3+0xe4>
9d00e594:	00803025 	move	a2,a0
9d00e598:	01052821 	addu	a1,t0,a1
9d00e59c:	00a8402b 	sltu	t0,a1,t0
9d00e5a0:	15000004 	bnez	t0,9d00e5b4 <__udivdi3+0xe4>
9d00e5a4:	2486ffff 	addiu	a2,a0,-1
9d00e5a8:	00a7282b 	sltu	a1,a1,a3
9d00e5ac:	54a00001 	bnezl	a1,9d00e5b4 <__udivdi3+0xe4>
9d00e5b0:	2486fffe 	addiu	a2,a0,-2
9d00e5b4:	00021400 	sll	v0,v0,0x10
9d00e5b8:	03e00008 	jr	ra
9d00e5bc:	00461025 	or	v0,v0,a2
9d00e5c0:	15000004 	bnez	t0,9d00e5d4 <__udivdi3+0x104>
9d00e5c4:	24020001 	li	v0,1
9d00e5c8:	0048001b 	divu	zero,v0,t0
9d00e5cc:	010001f4 	teq	t0,zero,0x7
9d00e5d0:	00004012 	mflo	t0
9d00e5d4:	710b5820 	clz	t3,t0
9d00e5d8:	15600023 	bnez	t3,9d00e668 <__udivdi3+0x198>
9d00e5dc:	24070020 	li	a3,32
9d00e5e0:	00a82823 	subu	a1,a1,t0
9d00e5e4:	24030001 	li	v1,1
9d00e5e8:	00083402 	srl	a2,t0,0x10
9d00e5ec:	00a6001b 	divu	zero,a1,a2
9d00e5f0:	00c001f4 	teq	a2,zero,0x7
9d00e5f4:	3107ffff 	andi	a3,t0,0xffff
9d00e5f8:	000a2402 	srl	a0,t2,0x10
9d00e5fc:	00002812 	mflo	a1
9d00e600:	00001010 	mfhi	v0
9d00e604:	00021400 	sll	v0,v0,0x10
9d00e608:	00442025 	or	a0,v0,a0
9d00e60c:	70e54802 	mul	t1,a3,a1
9d00e610:	0089582b 	sltu	t3,a0,t1
9d00e614:	1160000a 	beqz	t3,9d00e640 <__udivdi3+0x170>
9d00e618:	00a01025 	move	v0,a1
9d00e61c:	00882021 	addu	a0,a0,t0
9d00e620:	0088582b 	sltu	t3,a0,t0
9d00e624:	15600006 	bnez	t3,9d00e640 <__udivdi3+0x170>
9d00e628:	24a2ffff 	addiu	v0,a1,-1
9d00e62c:	0089582b 	sltu	t3,a0,t1
9d00e630:	51600004 	beqzl	t3,9d00e644 <__udivdi3+0x174>
9d00e634:	00892023 	subu	a0,a0,t1
9d00e638:	24a2fffe 	addiu	v0,a1,-2
9d00e63c:	00882021 	addu	a0,a0,t0
9d00e640:	00892023 	subu	a0,a0,t1
9d00e644:	0086001b 	divu	zero,a0,a2
9d00e648:	00c001f4 	teq	a2,zero,0x7
9d00e64c:	314affff 	andi	t2,t2,0xffff
9d00e650:	00002810 	mfhi	a1
9d00e654:	00052c00 	sll	a1,a1,0x10
9d00e658:	00aa2825 	or	a1,a1,t2
9d00e65c:	00002012 	mflo	a0
9d00e660:	1000ffca 	b	9d00e58c <__udivdi3+0xbc>
9d00e664:	70e43802 	mul	a3,a3,a0
9d00e668:	00eb3823 	subu	a3,a3,t3
9d00e66c:	01684004 	sllv	t0,t0,t3
9d00e670:	00e44806 	srlv	t1,a0,a3
9d00e674:	00083402 	srl	a2,t0,0x10
9d00e678:	00e53806 	srlv	a3,a1,a3
9d00e67c:	00e6001b 	divu	zero,a3,a2
9d00e680:	00c001f4 	teq	a2,zero,0x7
9d00e684:	01651004 	sllv	v0,a1,t3
9d00e688:	01224825 	or	t1,t1,v0
9d00e68c:	3102ffff 	andi	v0,t0,0xffff
9d00e690:	00091c02 	srl	v1,t1,0x10
9d00e694:	00002812 	mflo	a1
9d00e698:	00003810 	mfhi	a3
9d00e69c:	00073c00 	sll	a3,a3,0x10
9d00e6a0:	00e33825 	or	a3,a3,v1
9d00e6a4:	70455002 	mul	t2,v0,a1
9d00e6a8:	00ea602b 	sltu	t4,a3,t2
9d00e6ac:	1180000a 	beqz	t4,9d00e6d8 <__udivdi3+0x208>
9d00e6b0:	00a01825 	move	v1,a1
9d00e6b4:	00e83821 	addu	a3,a3,t0
9d00e6b8:	00e8602b 	sltu	t4,a3,t0
9d00e6bc:	15800006 	bnez	t4,9d00e6d8 <__udivdi3+0x208>
9d00e6c0:	24a3ffff 	addiu	v1,a1,-1
9d00e6c4:	00ea602b 	sltu	t4,a3,t2
9d00e6c8:	51800004 	beqzl	t4,9d00e6dc <__udivdi3+0x20c>
9d00e6cc:	00ea3823 	subu	a3,a3,t2
9d00e6d0:	24a3fffe 	addiu	v1,a1,-2
9d00e6d4:	00e83821 	addu	a3,a3,t0
9d00e6d8:	00ea3823 	subu	a3,a3,t2
9d00e6dc:	00e6001b 	divu	zero,a3,a2
9d00e6e0:	00c001f4 	teq	a2,zero,0x7
9d00e6e4:	3125ffff 	andi	a1,t1,0xffff
9d00e6e8:	00003012 	mflo	a2
9d00e6ec:	00003810 	mfhi	a3
9d00e6f0:	00073c00 	sll	a3,a3,0x10
9d00e6f4:	00e52825 	or	a1,a3,a1
9d00e6f8:	70461002 	mul	v0,v0,a2
9d00e6fc:	00a2482b 	sltu	t1,a1,v0
9d00e700:	1120000a 	beqz	t1,9d00e72c <__udivdi3+0x25c>
9d00e704:	00c03825 	move	a3,a2
9d00e708:	00a82821 	addu	a1,a1,t0
9d00e70c:	00a8482b 	sltu	t1,a1,t0
9d00e710:	15200006 	bnez	t1,9d00e72c <__udivdi3+0x25c>
9d00e714:	24c7ffff 	addiu	a3,a2,-1
9d00e718:	00a2482b 	sltu	t1,a1,v0
9d00e71c:	51200004 	beqzl	t1,9d00e730 <__udivdi3+0x260>
9d00e720:	00031c00 	sll	v1,v1,0x10
9d00e724:	24c7fffe 	addiu	a3,a2,-2
9d00e728:	00a82821 	addu	a1,a1,t0
9d00e72c:	00031c00 	sll	v1,v1,0x10
9d00e730:	01645004 	sllv	t2,a0,t3
9d00e734:	00a22823 	subu	a1,a1,v0
9d00e738:	1000ffab 	b	9d00e5e8 <__udivdi3+0x118>
9d00e73c:	00671825 	or	v1,v1,a3
9d00e740:	00a7402b 	sltu	t0,a1,a3
9d00e744:	00001825 	move	v1,zero
9d00e748:	1500004e 	bnez	t0,9d00e884 <__udivdi3+0x3b4>
9d00e74c:	00001025 	move	v0,zero
9d00e750:	70ea5020 	clz	t2,a3
9d00e754:	15400007 	bnez	t2,9d00e774 <__udivdi3+0x2a4>
9d00e758:	24090020 	li	t1,32
9d00e75c:	00e5282b 	sltu	a1,a3,a1
9d00e760:	14a00048 	bnez	a1,9d00e884 <__udivdi3+0x3b4>
9d00e764:	24020001 	li	v0,1
9d00e768:	0086102b 	sltu	v0,a0,a2
9d00e76c:	03e00008 	jr	ra
9d00e770:	38420001 	xori	v0,v0,0x1
9d00e774:	012a4823 	subu	t1,t1,t2
9d00e778:	01261006 	srlv	v0,a2,t1
9d00e77c:	01473804 	sllv	a3,a3,t2
9d00e780:	00473825 	or	a3,v0,a3
9d00e784:	01451804 	sllv	v1,a1,t2
9d00e788:	00074402 	srl	t0,a3,0x10
9d00e78c:	01252806 	srlv	a1,a1,t1
9d00e790:	00a8001b 	divu	zero,a1,t0
9d00e794:	010001f4 	teq	t0,zero,0x7
9d00e798:	30ebffff 	andi	t3,a3,0xffff
9d00e79c:	01241006 	srlv	v0,a0,t1
9d00e7a0:	00431025 	or	v0,v0,v1
9d00e7a4:	00021c02 	srl	v1,v0,0x10
9d00e7a8:	00002812 	mflo	a1
9d00e7ac:	00004810 	mfhi	t1
9d00e7b0:	00094c00 	sll	t1,t1,0x10
9d00e7b4:	01234825 	or	t1,t1,v1
9d00e7b8:	71656002 	mul	t4,t3,a1
9d00e7bc:	012c682b 	sltu	t5,t1,t4
9d00e7c0:	11a0000a 	beqz	t5,9d00e7ec <__udivdi3+0x31c>
9d00e7c4:	00a01825 	move	v1,a1
9d00e7c8:	01274821 	addu	t1,t1,a3
9d00e7cc:	0127682b 	sltu	t5,t1,a3
9d00e7d0:	15a00006 	bnez	t5,9d00e7ec <__udivdi3+0x31c>
9d00e7d4:	24a3ffff 	addiu	v1,a1,-1
9d00e7d8:	012c682b 	sltu	t5,t1,t4
9d00e7dc:	51a00004 	beqzl	t5,9d00e7f0 <__udivdi3+0x320>
9d00e7e0:	012c4823 	subu	t1,t1,t4
9d00e7e4:	24a3fffe 	addiu	v1,a1,-2
9d00e7e8:	01274821 	addu	t1,t1,a3
9d00e7ec:	012c4823 	subu	t1,t1,t4
9d00e7f0:	0128001b 	divu	zero,t1,t0
9d00e7f4:	010001f4 	teq	t0,zero,0x7
9d00e7f8:	3045ffff 	andi	a1,v0,0xffff
9d00e7fc:	00004012 	mflo	t0
9d00e800:	00004810 	mfhi	t1
9d00e804:	00094c00 	sll	t1,t1,0x10
9d00e808:	01252825 	or	a1,t1,a1
9d00e80c:	71685802 	mul	t3,t3,t0
9d00e810:	00ab102b 	sltu	v0,a1,t3
9d00e814:	1040000a 	beqz	v0,9d00e840 <__udivdi3+0x370>
9d00e818:	01004825 	move	t1,t0
9d00e81c:	00a72821 	addu	a1,a1,a3
9d00e820:	00a7102b 	sltu	v0,a1,a3
9d00e824:	14400006 	bnez	v0,9d00e840 <__udivdi3+0x370>
9d00e828:	2509ffff 	addiu	t1,t0,-1
9d00e82c:	00ab102b 	sltu	v0,a1,t3
9d00e830:	10400004 	beqz	v0,9d00e844 <__udivdi3+0x374>
9d00e834:	00031400 	sll	v0,v1,0x10
9d00e838:	2509fffe 	addiu	t1,t0,-2
9d00e83c:	00a72821 	addu	a1,a1,a3
9d00e840:	00031400 	sll	v0,v1,0x10
9d00e844:	01463004 	sllv	a2,a2,t2
9d00e848:	00491025 	or	v0,v0,t1
9d00e84c:	00c20019 	multu	a2,v0
9d00e850:	00ab2823 	subu	a1,a1,t3
9d00e854:	00003810 	mfhi	a3
9d00e858:	00a7182b 	sltu	v1,a1,a3
9d00e85c:	14600007 	bnez	v1,9d00e87c <__udivdi3+0x3ac>
9d00e860:	00003012 	mflo	a2
9d00e864:	14a70007 	bne	a1,a3,9d00e884 <__udivdi3+0x3b4>
9d00e868:	00001825 	move	v1,zero
9d00e86c:	01442004 	sllv	a0,a0,t2
9d00e870:	0086202b 	sltu	a0,a0,a2
9d00e874:	10800003 	beqz	a0,9d00e884 <__udivdi3+0x3b4>
9d00e878:	00000000 	nop
9d00e87c:	2442ffff 	addiu	v0,v0,-1
9d00e880:	00001825 	move	v1,zero
9d00e884:	03e00008 	jr	ra
9d00e888:	00000000 	nop

9d00e88c <__umoddi3>:
9d00e88c:	00c04825 	move	t1,a2
9d00e890:	00801025 	move	v0,a0
9d00e894:	14e0008b 	bnez	a3,9d00eac4 <__umoddi3+0x238>
9d00e898:	00a01825 	move	v1,a1
9d00e89c:	00a6302b 	sltu	a2,a1,a2
9d00e8a0:	10c00033 	beqz	a2,9d00e970 <__umoddi3+0xe4>
9d00e8a4:	712a5020 	clz	t2,t1
9d00e8a8:	11400008 	beqz	t2,9d00e8cc <__umoddi3+0x40>
9d00e8ac:	00095c02 	srl	t3,t1,0x10
9d00e8b0:	01451804 	sllv	v1,a1,t2
9d00e8b4:	000a2823 	negu	a1,t2
9d00e8b8:	00a42806 	srlv	a1,a0,a1
9d00e8bc:	01494804 	sllv	t1,t1,t2
9d00e8c0:	00a31825 	or	v1,a1,v1
9d00e8c4:	01441004 	sllv	v0,a0,t2
9d00e8c8:	00095c02 	srl	t3,t1,0x10
9d00e8cc:	006b001b 	divu	zero,v1,t3
9d00e8d0:	016001f4 	teq	t3,zero,0x7
9d00e8d4:	3124ffff 	andi	a0,t1,0xffff
9d00e8d8:	00001812 	mflo	v1
9d00e8dc:	00002810 	mfhi	a1
9d00e8e0:	70643002 	mul	a2,v1,a0
9d00e8e4:	00051c00 	sll	v1,a1,0x10
9d00e8e8:	00022c02 	srl	a1,v0,0x10
9d00e8ec:	00651825 	or	v1,v1,a1
9d00e8f0:	0066282b 	sltu	a1,v1,a2
9d00e8f4:	50a00008 	beqzl	a1,9d00e918 <__umoddi3+0x8c>
9d00e8f8:	00661823 	subu	v1,v1,a2
9d00e8fc:	00691821 	addu	v1,v1,t1
9d00e900:	0069282b 	sltu	a1,v1,t1
9d00e904:	14a00003 	bnez	a1,9d00e914 <__umoddi3+0x88>
9d00e908:	0066282b 	sltu	a1,v1,a2
9d00e90c:	54a00001 	bnezl	a1,9d00e914 <__umoddi3+0x88>
9d00e910:	00691821 	addu	v1,v1,t1
9d00e914:	00661823 	subu	v1,v1,a2
9d00e918:	006b001b 	divu	zero,v1,t3
9d00e91c:	016001f4 	teq	t3,zero,0x7
9d00e920:	3042ffff 	andi	v0,v0,0xffff
9d00e924:	00003010 	mfhi	a2
9d00e928:	00001812 	mflo	v1
9d00e92c:	70645802 	mul	t3,v1,a0
9d00e930:	00061c00 	sll	v1,a2,0x10
9d00e934:	00621025 	or	v0,v1,v0
9d00e938:	004b182b 	sltu	v1,v0,t3
9d00e93c:	50600009 	beqzl	v1,9d00e964 <__umoddi3+0xd8>
9d00e940:	004b1023 	subu	v0,v0,t3
9d00e944:	00491021 	addu	v0,v0,t1
9d00e948:	0049182b 	sltu	v1,v0,t1
9d00e94c:	54600005 	bnezl	v1,9d00e964 <__umoddi3+0xd8>
9d00e950:	004b1023 	subu	v0,v0,t3
9d00e954:	004b182b 	sltu	v1,v0,t3
9d00e958:	54600001 	bnezl	v1,9d00e960 <__umoddi3+0xd4>
9d00e95c:	00491021 	addu	v0,v0,t1
9d00e960:	004b1023 	subu	v0,v0,t3
9d00e964:	01421006 	srlv	v0,v0,t2
9d00e968:	03e00008 	jr	ra
9d00e96c:	00001825 	move	v1,zero
9d00e970:	15200004 	bnez	t1,9d00e984 <__umoddi3+0xf8>
9d00e974:	24030001 	li	v1,1
9d00e978:	0069001b 	divu	zero,v1,t1
9d00e97c:	012001f4 	teq	t1,zero,0x7
9d00e980:	00004812 	mflo	t1
9d00e984:	712a5020 	clz	t2,t1
9d00e988:	1540001f 	bnez	t2,9d00ea08 <__umoddi3+0x17c>
9d00e98c:	24070020 	li	a3,32
9d00e990:	00a92823 	subu	a1,a1,t1
9d00e994:	00095c02 	srl	t3,t1,0x10
9d00e998:	00ab001b 	divu	zero,a1,t3
9d00e99c:	016001f4 	teq	t3,zero,0x7
9d00e9a0:	3124ffff 	andi	a0,t1,0xffff
9d00e9a4:	00002812 	mflo	a1
9d00e9a8:	00001810 	mfhi	v1
9d00e9ac:	70a43002 	mul	a2,a1,a0
9d00e9b0:	00032c00 	sll	a1,v1,0x10
9d00e9b4:	00021c02 	srl	v1,v0,0x10
9d00e9b8:	00a32825 	or	a1,a1,v1
9d00e9bc:	00a6182b 	sltu	v1,a1,a2
9d00e9c0:	50600008 	beqzl	v1,9d00e9e4 <__umoddi3+0x158>
9d00e9c4:	00a63023 	subu	a2,a1,a2
9d00e9c8:	00a92821 	addu	a1,a1,t1
9d00e9cc:	00a9182b 	sltu	v1,a1,t1
9d00e9d0:	14600003 	bnez	v1,9d00e9e0 <__umoddi3+0x154>
9d00e9d4:	00a6182b 	sltu	v1,a1,a2
9d00e9d8:	54600001 	bnezl	v1,9d00e9e0 <__umoddi3+0x154>
9d00e9dc:	00a92821 	addu	a1,a1,t1
9d00e9e0:	00a63023 	subu	a2,a1,a2
9d00e9e4:	00cb001b 	divu	zero,a2,t3
9d00e9e8:	016001f4 	teq	t3,zero,0x7
9d00e9ec:	3042ffff 	andi	v0,v0,0xffff
9d00e9f0:	00002810 	mfhi	a1
9d00e9f4:	00003012 	mflo	a2
9d00e9f8:	70c45802 	mul	t3,a2,a0
9d00e9fc:	00053400 	sll	a2,a1,0x10
9d00ea00:	1000ffcd 	b	9d00e938 <__umoddi3+0xac>
9d00ea04:	00c21025 	or	v0,a2,v0
9d00ea08:	00ea3823 	subu	a3,a3,t2
9d00ea0c:	01494804 	sllv	t1,t1,t2
9d00ea10:	00e41806 	srlv	v1,a0,a3
9d00ea14:	00093402 	srl	a2,t1,0x10
9d00ea18:	00e53806 	srlv	a3,a1,a3
9d00ea1c:	00e6001b 	divu	zero,a3,a2
9d00ea20:	00c001f4 	teq	a2,zero,0x7
9d00ea24:	01451004 	sllv	v0,a1,t2
9d00ea28:	3128ffff 	andi	t0,t1,0xffff
9d00ea2c:	00621825 	or	v1,v1,v0
9d00ea30:	00032c02 	srl	a1,v1,0x10
9d00ea34:	00003812 	mflo	a3
9d00ea38:	00006010 	mfhi	t4
9d00ea3c:	70e81002 	mul	v0,a3,t0
9d00ea40:	000c3c00 	sll	a3,t4,0x10
9d00ea44:	00e53825 	or	a3,a3,a1
9d00ea48:	00e2282b 	sltu	a1,a3,v0
9d00ea4c:	50a00008 	beqzl	a1,9d00ea70 <__umoddi3+0x1e4>
9d00ea50:	00e23823 	subu	a3,a3,v0
9d00ea54:	00e93821 	addu	a3,a3,t1
9d00ea58:	00e9282b 	sltu	a1,a3,t1
9d00ea5c:	14a00003 	bnez	a1,9d00ea6c <__umoddi3+0x1e0>
9d00ea60:	00e2282b 	sltu	a1,a3,v0
9d00ea64:	54a00001 	bnezl	a1,9d00ea6c <__umoddi3+0x1e0>
9d00ea68:	00e93821 	addu	a3,a3,t1
9d00ea6c:	00e23823 	subu	a3,a3,v0
9d00ea70:	00e6001b 	divu	zero,a3,a2
9d00ea74:	00c001f4 	teq	a2,zero,0x7
9d00ea78:	3065ffff 	andi	a1,v1,0xffff
9d00ea7c:	00003012 	mflo	a2
9d00ea80:	00003810 	mfhi	a3
9d00ea84:	00073c00 	sll	a3,a3,0x10
9d00ea88:	00e52825 	or	a1,a3,a1
9d00ea8c:	70c83002 	mul	a2,a2,t0
9d00ea90:	00a6102b 	sltu	v0,a1,a2
9d00ea94:	10400009 	beqz	v0,9d00eabc <__umoddi3+0x230>
9d00ea98:	01441004 	sllv	v0,a0,t2
9d00ea9c:	00a92821 	addu	a1,a1,t1
9d00eaa0:	00a9102b 	sltu	v0,a1,t1
9d00eaa4:	14400005 	bnez	v0,9d00eabc <__umoddi3+0x230>
9d00eaa8:	01441004 	sllv	v0,a0,t2
9d00eaac:	00a6102b 	sltu	v0,a1,a2
9d00eab0:	54400001 	bnezl	v0,9d00eab8 <__umoddi3+0x22c>
9d00eab4:	00a92821 	addu	a1,a1,t1
9d00eab8:	01441004 	sllv	v0,a0,t2
9d00eabc:	1000ffb5 	b	9d00e994 <__umoddi3+0x108>
9d00eac0:	00a62823 	subu	a1,a1,a2
9d00eac4:	00a7402b 	sltu	t0,a1,a3
9d00eac8:	1500005c 	bnez	t0,9d00ec3c <__umoddi3+0x3b0>
9d00eacc:	70ee7020 	clz	t6,a3
9d00ead0:	15c0000a 	bnez	t6,9d00eafc <__umoddi3+0x270>
9d00ead4:	00e5402b 	sltu	t0,a3,a1
9d00ead8:	15000003 	bnez	t0,9d00eae8 <__umoddi3+0x25c>
9d00eadc:	0086402b 	sltu	t0,a0,a2
9d00eae0:	15000056 	bnez	t0,9d00ec3c <__umoddi3+0x3b0>
9d00eae4:	00000000 	nop
9d00eae8:	00861023 	subu	v0,a0,a2
9d00eaec:	00a72823 	subu	a1,a1,a3
9d00eaf0:	0082182b 	sltu	v1,a0,v0
9d00eaf4:	03e00008 	jr	ra
9d00eaf8:	00a31823 	subu	v1,a1,v1
9d00eafc:	240b0020 	li	t3,32
9d00eb00:	016e5823 	subu	t3,t3,t6
9d00eb04:	01666006 	srlv	t4,a2,t3
9d00eb08:	01c73804 	sllv	a3,a3,t6
9d00eb0c:	01873825 	or	a3,t4,a3
9d00eb10:	01c54004 	sllv	t0,a1,t6
9d00eb14:	00074c02 	srl	t1,a3,0x10
9d00eb18:	01652806 	srlv	a1,a1,t3
9d00eb1c:	00a9001b 	divu	zero,a1,t1
9d00eb20:	012001f4 	teq	t1,zero,0x7
9d00eb24:	01641006 	srlv	v0,a0,t3
9d00eb28:	00481025 	or	v0,v0,t0
9d00eb2c:	30e8ffff 	andi	t0,a3,0xffff
9d00eb30:	00026402 	srl	t4,v0,0x10
9d00eb34:	00002812 	mflo	a1
9d00eb38:	00005010 	mfhi	t2
9d00eb3c:	000a5400 	sll	t2,t2,0x10
9d00eb40:	014c5025 	or	t2,t2,t4
9d00eb44:	71051802 	mul	v1,t0,a1
9d00eb48:	0143602b 	sltu	t4,t2,v1
9d00eb4c:	1180000a 	beqz	t4,9d00eb78 <__umoddi3+0x2ec>
9d00eb50:	00a06825 	move	t5,a1
9d00eb54:	01475021 	addu	t2,t2,a3
9d00eb58:	0147602b 	sltu	t4,t2,a3
9d00eb5c:	15800006 	bnez	t4,9d00eb78 <__umoddi3+0x2ec>
9d00eb60:	24adffff 	addiu	t5,a1,-1
9d00eb64:	0143602b 	sltu	t4,t2,v1
9d00eb68:	51800004 	beqzl	t4,9d00eb7c <__umoddi3+0x2f0>
9d00eb6c:	01435023 	subu	t2,t2,v1
9d00eb70:	24adfffe 	addiu	t5,a1,-2
9d00eb74:	01475021 	addu	t2,t2,a3
9d00eb78:	01435023 	subu	t2,t2,v1
9d00eb7c:	0149001b 	divu	zero,t2,t1
9d00eb80:	012001f4 	teq	t1,zero,0x7
9d00eb84:	00004812 	mflo	t1
9d00eb88:	00005010 	mfhi	t2
9d00eb8c:	000a5400 	sll	t2,t2,0x10
9d00eb90:	71092802 	mul	a1,t0,t1
9d00eb94:	3048ffff 	andi	t0,v0,0xffff
9d00eb98:	01484025 	or	t0,t2,t0
9d00eb9c:	0105102b 	sltu	v0,t0,a1
9d00eba0:	1040000a 	beqz	v0,9d00ebcc <__umoddi3+0x340>
9d00eba4:	01205025 	move	t2,t1
9d00eba8:	01074021 	addu	t0,t0,a3
9d00ebac:	0107102b 	sltu	v0,t0,a3
9d00ebb0:	14400006 	bnez	v0,9d00ebcc <__umoddi3+0x340>
9d00ebb4:	252affff 	addiu	t2,t1,-1
9d00ebb8:	0105102b 	sltu	v0,t0,a1
9d00ebbc:	10400004 	beqz	v0,9d00ebd0 <__umoddi3+0x344>
9d00ebc0:	000d6400 	sll	t4,t5,0x10
9d00ebc4:	252afffe 	addiu	t2,t1,-2
9d00ebc8:	01074021 	addu	t0,t0,a3
9d00ebcc:	000d6400 	sll	t4,t5,0x10
9d00ebd0:	01c61004 	sllv	v0,a2,t6
9d00ebd4:	018a6025 	or	t4,t4,t2
9d00ebd8:	01820019 	multu	t4,v0
9d00ebdc:	01054023 	subu	t0,t0,a1
9d00ebe0:	01c41804 	sllv	v1,a0,t6
9d00ebe4:	00006810 	mfhi	t5
9d00ebe8:	010d202b 	sltu	a0,t0,t5
9d00ebec:	01a02825 	move	a1,t5
9d00ebf0:	00006012 	mflo	t4
9d00ebf4:	14800005 	bnez	a0,9d00ec0c <__umoddi3+0x380>
9d00ebf8:	00003012 	mflo	a2
9d00ebfc:	150d0007 	bne	t0,t5,9d00ec1c <__umoddi3+0x390>
9d00ec00:	006c202b 	sltu	a0,v1,t4
9d00ec04:	10800006 	beqz	a0,9d00ec20 <__umoddi3+0x394>
9d00ec08:	00663023 	subu	a2,v1,a2
9d00ec0c:	01823023 	subu	a2,t4,v0
9d00ec10:	01a73823 	subu	a3,t5,a3
9d00ec14:	0186602b 	sltu	t4,t4,a2
9d00ec18:	00ec2823 	subu	a1,a3,t4
9d00ec1c:	00663023 	subu	a2,v1,a2
9d00ec20:	0066182b 	sltu	v1,v1,a2
9d00ec24:	01054023 	subu	t0,t0,a1
9d00ec28:	01031823 	subu	v1,t0,v1
9d00ec2c:	01631004 	sllv	v0,v1,t3
9d00ec30:	01c63006 	srlv	a2,a2,t6
9d00ec34:	00461025 	or	v0,v0,a2
9d00ec38:	01c31806 	srlv	v1,v1,t6
9d00ec3c:	03e00008 	jr	ra
9d00ec40:	00000000 	nop

Disassembly of section .text:

9d00ec44 <get_encoder_flag>:
char rx_message[MAX_RX_MESSAGE];
volatile int pos = 0;
volatile int newPosFlag = 0;

int get_encoder_flag(){
    return newPosFlag;
9d00ec44:	8f82801c 	lw	v0,-32740(gp)
}
9d00ec48:	03e00008 	jr	ra
9d00ec4c:	00000000 	nop

9d00ec50 <set_encoder_flag>:

void set_encoder_flag(int f){
    newPosFlag = f;
9d00ec50:	af84801c 	sw	a0,-32740(gp)
}
9d00ec54:	03e00008 	jr	ra
9d00ec58:	00000000 	nop

9d00ec5c <get_encoder_count>:

int get_encoder_count(){
    return pos;
9d00ec5c:	8f828020 	lw	v0,-32736(gp)
}
9d00ec60:	03e00008 	jr	ra
9d00ec64:	00000000 	nop

9d00ec68 <U2ISR>:

void __ISR(_UART_2_VECTOR, IPL7SOFT) U2ISR(void) { 
9d00ec68:	415de800 	rdpgpr	sp,sp
9d00ec6c:	401a7000 	mfc0	k0,c0_epc
9d00ec70:	401b6000 	mfc0	k1,c0_status
9d00ec74:	27bdff80 	addiu	sp,sp,-128
9d00ec78:	afbb007c 	sw	k1,124(sp)
9d00ec7c:	7c1b7844 	ins	k1,zero,0x1,0xf
9d00ec80:	377b1c00 	ori	k1,k1,0x1c00
9d00ec84:	409b6000 	mtc0	k1,c0_status
9d00ec88:	afbf0064 	sw	ra,100(sp)
9d00ec8c:	afbe0060 	sw	s8,96(sp)
9d00ec90:	afb9005c 	sw	t9,92(sp)
9d00ec94:	afb80058 	sw	t8,88(sp)
9d00ec98:	afb20054 	sw	s2,84(sp)
9d00ec9c:	afb10050 	sw	s1,80(sp)
9d00eca0:	afb0004c 	sw	s0,76(sp)
9d00eca4:	afaf0048 	sw	t7,72(sp)
9d00eca8:	afae0044 	sw	t6,68(sp)
9d00ecac:	afad0040 	sw	t5,64(sp)
9d00ecb0:	afac003c 	sw	t4,60(sp)
9d00ecb4:	afab0038 	sw	t3,56(sp)
9d00ecb8:	afaa0034 	sw	t2,52(sp)
9d00ecbc:	afa90030 	sw	t1,48(sp)
9d00ecc0:	afa8002c 	sw	t0,44(sp)
9d00ecc4:	afa70028 	sw	a3,40(sp)
9d00ecc8:	afa60024 	sw	a2,36(sp)
9d00eccc:	afa50020 	sw	a1,32(sp)
9d00ecd0:	afa4001c 	sw	a0,28(sp)
9d00ecd4:	afa30018 	sw	v1,24(sp)
9d00ecd8:	afa20014 	sw	v0,20(sp)
9d00ecdc:	afa10010 	sw	at,16(sp)
9d00ece0:	00001012 	mflo	v0
9d00ece4:	afa2006c 	sw	v0,108(sp)
9d00ece8:	00001810 	mfhi	v1
9d00ecec:	afa30068 	sw	v1,104(sp)
9d00ecf0:	03a0f025 	move	s8,sp
  char data = U2RXREG; // read the data
9d00ecf4:	3c10bf80 	lui	s0,0xbf80
9d00ecf8:	8e106230 	lw	s0,25136(s0)
9d00ecfc:	7c108420 	seb	s0,s0
  if (data == '\n') {
9d00ed00:	2411000a 	li	s1,10
9d00ed04:	16110031 	bne	s0,s1,9d00edcc <U2ISR+0x164>
9d00ed08:	00000000 	nop
    rx_message[rx_num_bytes] = '\0';
9d00ed0c:	8f828024 	lw	v0,-32732(gp)
9d00ed10:	3c04a000 	lui	a0,0xa000
9d00ed14:	24840058 	addiu	a0,a0,88
9d00ed18:	00441021 	addu	v0,v0,a0
9d00ed1c:	a0400000 	sb	zero,0(v0)
    sscanf(rx_message,"%d",&pos);
9d00ed20:	27868020 	addiu	a2,gp,-32736
9d00ed24:	3c059d00 	lui	a1,0x9d00
9d00ed28:	0f4051ca 	jal	9d014728 <_dsscanf_deEfFgGn>
9d00ed2c:	24a57490 	addiu	a1,a1,29840
    newPosFlag = 1;
9d00ed30:	24100001 	li	s0,1
9d00ed34:	af90801c 	sw	s0,-32740(gp)
    rx_num_bytes = 0;
9d00ed38:	af808024 	sw	zero,-32732(gp)
    // roll over if got more bytes than the size of the array
    if (rx_num_bytes >= MAX_RX_MESSAGE) {
      rx_num_bytes = 0;
    }
  }
  IFS1bits.U2RXIF = 0;
9d00ed3c:	3c10bf88 	lui	s0,0xbf88
9d00ed40:	8e111040 	lw	s1,4160(s0)
9d00ed44:	7c11b584 	ins	s1,zero,0x16,0x1
9d00ed48:	ae111040 	sw	s1,4160(s0)
}
9d00ed4c:	03c0e825 	move	sp,s8
9d00ed50:	8fa2006c 	lw	v0,108(sp)
9d00ed54:	00400013 	mtlo	v0
9d00ed58:	8fa30068 	lw	v1,104(sp)
9d00ed5c:	00600011 	mthi	v1
9d00ed60:	8fbf0064 	lw	ra,100(sp)
9d00ed64:	8fbe0060 	lw	s8,96(sp)
9d00ed68:	8fb9005c 	lw	t9,92(sp)
9d00ed6c:	8fb80058 	lw	t8,88(sp)
9d00ed70:	8fb20054 	lw	s2,84(sp)
9d00ed74:	8fb10050 	lw	s1,80(sp)
9d00ed78:	8fb0004c 	lw	s0,76(sp)
9d00ed7c:	8faf0048 	lw	t7,72(sp)
9d00ed80:	8fae0044 	lw	t6,68(sp)
9d00ed84:	8fad0040 	lw	t5,64(sp)
9d00ed88:	8fac003c 	lw	t4,60(sp)
9d00ed8c:	8fab0038 	lw	t3,56(sp)
9d00ed90:	8faa0034 	lw	t2,52(sp)
9d00ed94:	8fa90030 	lw	t1,48(sp)
9d00ed98:	8fa8002c 	lw	t0,44(sp)
9d00ed9c:	8fa70028 	lw	a3,40(sp)
9d00eda0:	8fa60024 	lw	a2,36(sp)
9d00eda4:	8fa50020 	lw	a1,32(sp)
9d00eda8:	8fa4001c 	lw	a0,28(sp)
9d00edac:	8fa30018 	lw	v1,24(sp)
9d00edb0:	8fa20014 	lw	v0,20(sp)
9d00edb4:	8fa10010 	lw	at,16(sp)
9d00edb8:	8fbb007c 	lw	k1,124(sp)
9d00edbc:	27bd0080 	addiu	sp,sp,128
9d00edc0:	41dde800 	wrpgpr	sp,sp
9d00edc4:	409b6000 	mtc0	k1,c0_status
9d00edc8:	42000018 	eret
    rx_message[rx_num_bytes] = data;
9d00edcc:	8f918024 	lw	s1,-32732(gp)
9d00edd0:	3c12a000 	lui	s2,0xa000
9d00edd4:	26520058 	addiu	s2,s2,88
9d00edd8:	02328821 	addu	s1,s1,s2
9d00eddc:	a2300000 	sb	s0,0(s1)
    ++rx_num_bytes;
9d00ede0:	8f908024 	lw	s0,-32732(gp)
9d00ede4:	26100001 	addiu	s0,s0,1
9d00ede8:	af908024 	sw	s0,-32732(gp)
    if (rx_num_bytes >= MAX_RX_MESSAGE) {
9d00edec:	8f908024 	lw	s0,-32732(gp)
9d00edf0:	2a100064 	slti	s0,s0,100
9d00edf4:	5200ffd1 	beqzl	s0,9d00ed3c <U2ISR+0xd4>
9d00edf8:	af808024 	sw	zero,-32732(gp)
  IFS1bits.U2RXIF = 0;
9d00edfc:	1000ffd0 	b	9d00ed40 <U2ISR+0xd8>
9d00ee00:	3c10bf88 	lui	s0,0xbf88

9d00ee04 <WriteUART2>:

// Write a character array using UART2
void WriteUART2(const char * string) {
9d00ee04:	27bdffe8 	addiu	sp,sp,-24
9d00ee08:	afbf0014 	sw	ra,20(sp)
9d00ee0c:	afb00010 	sw	s0,16(sp)
9d00ee10:	00808025 	move	s0,a0
  if (strcmp(string, "reset") == 0) { // if told reset encoder, we know to reset 
9d00ee14:	3c059d00 	lui	a1,0x9d00
9d00ee18:	0f404661 	jal	9d011984 <strcmp>
9d00ee1c:	24a57494 	addiu	a1,a1,29844
9d00ee20:	1440000d 	bnez	v0,9d00ee58 <WriteUART2+0x54>
9d00ee24:	3c03bf80 	lui	v1,0xbf80
    while (U2STAbits.UTXBF) {
9d00ee28:	8c626210 	lw	v0,25104(v1)
9d00ee2c:	7c420240 	ext	v0,v0,0x9,0x1
9d00ee30:	1440fffd 	bnez	v0,9d00ee28 <WriteUART2+0x24>
9d00ee34:	00000000 	nop
        ; // wait until tx buffer isn't full
    }
    pos = 0;
9d00ee38:	af808020 	sw	zero,-32736(gp)
    U2TXREG = *string;
9d00ee3c:	82030000 	lb	v1,0(s0)
9d00ee40:	3c02bf80 	lui	v0,0xbf80
9d00ee44:	ac436220 	sw	v1,25120(v0)
      }
      U2TXREG = *string;
      ++string;
    }
  }
}
9d00ee48:	8fbf0014 	lw	ra,20(sp)
9d00ee4c:	8fb00010 	lw	s0,16(sp)
9d00ee50:	03e00008 	jr	ra
9d00ee54:	27bd0018 	addiu	sp,sp,24
    while (*string != '\0') {
9d00ee58:	82020000 	lb	v0,0(s0)
9d00ee5c:	1040fffa 	beqz	v0,9d00ee48 <WriteUART2+0x44>
9d00ee60:	3c04bf80 	lui	a0,0xbf80
      while (U2STAbits.UTXBF) {
9d00ee64:	3c05bf80 	lui	a1,0xbf80
9d00ee68:	8ca36210 	lw	v1,25104(a1)
9d00ee6c:	7c630240 	ext	v1,v1,0x9,0x1
9d00ee70:	1460fffd 	bnez	v1,9d00ee68 <WriteUART2+0x64>
9d00ee74:	00000000 	nop
      U2TXREG = *string;
9d00ee78:	ac826220 	sw	v0,25120(a0)
      ++string;
9d00ee7c:	26100001 	addiu	s0,s0,1
    while (*string != '\0') {
9d00ee80:	82020000 	lb	v0,0(s0)
9d00ee84:	1440fff8 	bnez	v0,9d00ee68 <WriteUART2+0x64>
9d00ee88:	8fbf0014 	lw	ra,20(sp)
9d00ee8c:	1000fff0 	b	9d00ee50 <WriteUART2+0x4c>
9d00ee90:	8fb00010 	lw	s0,16(sp)

9d00ee94 <UART2_Startup>:

//  Initialize the serial port - UART2 
void UART2_Startup() {
9d00ee94:	27bdfff8 	addiu	sp,sp,-8
9d00ee98:	afbf0004 	sw	ra,4(sp)
  // disable interrupts
  __builtin_disable_interrupts();
9d00ee9c:	41626000 	di	v0
9d00eea0:	000000c0 	ehb

  // set UART2 TX and RX pins
  ANSELBCLR = 0b11;
9d00eea4:	3c02bf88 	lui	v0,0xbf88
9d00eea8:	24030003 	li	v1,3
9d00eeac:	ac436104 	sw	v1,24836(v0)
  U2RXRbits.U2RXR = 0b0010; // U2RX on B1, pin 5
9d00eeb0:	3c02bf81 	lui	v0,0xbf81
9d00eeb4:	9043fa58 	lbu	v1,-1448(v0)
9d00eeb8:	24040002 	li	a0,2
9d00eebc:	7c831804 	ins	v1,a0,0x0,0x4
9d00eec0:	a043fa58 	sb	v1,-1448(v0)
  RPB0Rbits.RPB0R = 0b0010; // U2TX on B0, pin 4
9d00eec4:	3c02bf81 	lui	v0,0xbf81
9d00eec8:	9043fb2c 	lbu	v1,-1236(v0)
9d00eecc:	7c831804 	ins	v1,a0,0x0,0x4
9d00eed0:	a043fb2c 	sb	v1,-1236(v0)

  // turn on UART2 with interrupt on RX
  U2MODEbits.BRGH = 0; // set baud to NU32_DESIRED_BAUD
9d00eed4:	3c02bf80 	lui	v0,0xbf80
9d00eed8:	94436200 	lhu	v1,25088(v0)
9d00eedc:	7c0318c4 	ins	v1,zero,0x3,0x1
9d00eee0:	a4436200 	sh	v1,25088(v0)
  U2BRG = ((NU32DIP_SYS_FREQ / UART2_DESIRED_BAUD) / 16) - 1;
9d00eee4:	3c03bf80 	lui	v1,0xbf80
9d00eee8:	2404000c 	li	a0,12
9d00eeec:	ac646240 	sw	a0,25152(v1)

  // 8 bit, no parity bit, and 1 stop bit (8N1 setup)
  U2MODEbits.PDSEL = 0;
9d00eef0:	94436200 	lhu	v1,25088(v0)
9d00eef4:	7c031044 	ins	v1,zero,0x1,0x2
9d00eef8:	a4436200 	sh	v1,25088(v0)
  U2MODEbits.STSEL = 0;
9d00eefc:	94436200 	lhu	v1,25088(v0)
9d00ef00:	7c030004 	ins	v1,zero,0x0,0x1
9d00ef04:	a4436200 	sh	v1,25088(v0)

  // configure TX & RX pins as output & input pins
  U2STAbits.UTXEN = 1;
9d00ef08:	3c03bf80 	lui	v1,0xbf80
9d00ef0c:	8c656210 	lw	a1,25104(v1)
9d00ef10:	24040001 	li	a0,1
9d00ef14:	7c855284 	ins	a1,a0,0xa,0x1
9d00ef18:	ac656210 	sw	a1,25104(v1)
  U2STAbits.URXEN = 1;
9d00ef1c:	8c656210 	lw	a1,25104(v1)
9d00ef20:	7c856304 	ins	a1,a0,0xc,0x1
9d00ef24:	ac656210 	sw	a1,25104(v1)

  U2STAbits.URXISEL = 0; // interrupt when a char is rcvd
9d00ef28:	8c656210 	lw	a1,25104(v1)
9d00ef2c:	7c053984 	ins	a1,zero,0x6,0x2
9d00ef30:	ac656210 	sw	a1,25104(v1)
  IPC9bits.U2IP = 7;
9d00ef34:	3c03bf88 	lui	v1,0xbf88
9d00ef38:	8c651120 	lw	a1,4384(v1)
9d00ef3c:	24060007 	li	a2,7
9d00ef40:	7cc56284 	ins	a1,a2,0xa,0x3
9d00ef44:	ac651120 	sw	a1,4384(v1)
  IPC9bits.U2IS = 0;
9d00ef48:	8c651120 	lw	a1,4384(v1)
9d00ef4c:	7c054a04 	ins	a1,zero,0x8,0x2
9d00ef50:	ac651120 	sw	a1,4384(v1)
  IFS1bits.U2RXIF = 0;
9d00ef54:	3c03bf88 	lui	v1,0xbf88
9d00ef58:	8c651040 	lw	a1,4160(v1)
9d00ef5c:	7c05b584 	ins	a1,zero,0x16,0x1
9d00ef60:	ac651040 	sw	a1,4160(v1)
  IEC1bits.U2RXIE = 1;
9d00ef64:	3c03bf88 	lui	v1,0xbf88
9d00ef68:	8c651070 	lw	a1,4208(v1)
9d00ef6c:	7c85b584 	ins	a1,a0,0x16,0x1
9d00ef70:	ac651070 	sw	a1,4208(v1)

  // enable the uart
  U2MODEbits.ON = 1;
9d00ef74:	94436200 	lhu	v1,25088(v0)
9d00ef78:	7c837bc4 	ins	v1,a0,0xf,0x1
9d00ef7c:	a4436200 	sh	v1,25088(v0)

  __builtin_enable_interrupts();
9d00ef80:	41626020 	ei	v0
}
9d00ef84:	8fbf0004 	lw	ra,4(sp)
9d00ef88:	03e00008 	jr	ra
9d00ef8c:	27bd0008 	addiu	sp,sp,8

Disassembly of section .text.dp32mul:

9d00ef90 <__muldf3>:
9d00ef90:	00055040 000a5542 00054ac0 00047d42     @P..BU...J..B}..
9d00efa0:	012f4825 000442c0 3c0e8000 012e4825     %H/..B.....<%H..
9d00efb0:	00076840 000d6d42 000762c0 00067d42     @h..Bm...b..B}..
9d00efc0:	018f6025 00065ac0 018e6025 00a72826     %`...Z..%`..&(..
9d00efd0:	00ae2824 254fffff 2de107fe 10200047     $(....O%...-G. .
9d00efe0:	00000000                                ....

9d00efe4 <Clab1>:
9d00efe4:	25afffff 	addiu	t7,t5,-1
9d00efe8:	2de107fe 	sltiu	at,t7,2046
9d00efec:	1020006f 	beqz	at,9d00f1ac <CspecB>
9d00eff0:	00000000 	nop

9d00eff4 <Clab2>:
9d00eff4:	25affc02 	addiu	t7,t5,-1022
9d00eff8:	014f5021 	addu	t2,t2,t7
9d00effc:	012c0019 	multu	t1,t4
9d00f000:	00003812 	mflo	a3
9d00f004:	00007010 	mfhi	t6
9d00f008:	010b0019 	multu	t0,t3
9d00f00c:	00002012 	mflo	a0
9d00f010:	00003010 	mfhi	a2
9d00f014:	012b0019 	multu	t1,t3
9d00f018:	00005812 	mflo	t3
9d00f01c:	00006810 	mfhi	t5
9d00f020:	00cb3021 	addu	a2,a2,t3
9d00f024:	00cb782b 	sltu	t7,a2,t3
9d00f028:	00ed3821 	addu	a3,a3,t5
9d00f02c:	00ef3821 	addu	a3,a3,t7
9d00f030:	10ed0002 	beq	a3,t5,9d00f03c <L20>
9d00f034:	00000000 	nop
9d00f038:	00ed782b 	sltu	t7,a3,t5

9d00f03c <L20>:
9d00f03c:	01cf7021 	addu	t6,t6,t7
9d00f040:	010c0019 	multu	t0,t4
9d00f044:	00004012 	mflo	t0
9d00f048:	00004810 	mfhi	t1
9d00f04c:	00c83021 	addu	a2,a2,t0
9d00f050:	00c8782b 	sltu	t7,a2,t0
9d00f054:	00e93821 	addu	a3,a3,t1
9d00f058:	00ef3821 	addu	a3,a3,t7
9d00f05c:	10e90002 	beq	a3,t1,9d00f068 <L21>
9d00f060:	00000000 	nop
9d00f064:	00e9782b 	sltu	t7,a3,t1

9d00f068 <L21>:
9d00f068:	01cf7021 	addu	t6,t6,t7
9d00f06c:	00867825 	or	t7,a0,a2
9d00f070:	11e00002 	beqz	t7,9d00f07c <i13>
9d00f074:	00000000 	nop
9d00f078:	34e70001 	ori	a3,a3,0x1

9d00f07c <i13>:
9d00f07c:	000e4825 	or	t1,zero,t6
9d00f080:	05200006 	bltz	t1,9d00f09c <i14>
9d00f084:	00074025 	or	t0,zero,a3
9d00f088:	0100782a 	slt	t7,t0,zero
9d00f08c:	01084021 	addu	t0,t0,t0
9d00f090:	01294821 	addu	t1,t1,t1
9d00f094:	012f4821 	addu	t1,t1,t7
9d00f098:	254affff 	addiu	t2,t2,-1

9d00f09c <i14>:
9d00f09c:	254fffff 	addiu	t7,t2,-1
9d00f0a0:	2de107fe 	sltiu	at,t7,2046
9d00f0a4:	10200068 	beqz	at,9d00f248 <Coveund>
9d00f0a8:	00000000 	nop
9d00f0ac:	25080400 	addiu	t0,t0,1024
9d00f0b0:	2d0f0400 	sltiu	t7,t0,1024
9d00f0b4:	012f4821 	addu	t1,t1,t7
9d00f0b8:	012f782b 	sltu	t7,t1,t7
9d00f0bc:	014f5021 	addu	t2,t2,t7

9d00f0c0 <Clab8>:
9d00f0c0:	00087ac2 	srl	t7,t0,0xb
9d00f0c4:	31ef0001 	andi	t7,t7,0x1
9d00f0c8:	010f4023 	subu	t0,t0,t7
9d00f0cc:	000822c2 	srl	a0,t0,0xb
9d00f0d0:	00097d40 	sll	t7,t1,0x15
9d00f0d4:	008f2025 	or	a0,a0,t7
9d00f0d8:	00097840 	sll	t7,t1,0x1
9d00f0dc:	000f7b02 	srl	t7,t7,0xc
9d00f0e0:	00af2825 	or	a1,a1,t7
9d00f0e4:	000a7d00 	sll	t7,t2,0x14
9d00f0e8:	00af2825 	or	a1,a1,t7

9d00f0ec <Cret>:
9d00f0ec:	00041025 	or	v0,zero,a0
9d00f0f0:	00051825 	or	v1,zero,a1

9d00f0f4 <C999>:
9d00f0f4:	03e00008 	jr	ra
9d00f0f8:	00000000 	nop

9d00f0fc <CspecA>:
9d00f0fc:	0100782a 	slt	t7,t0,zero
9d00f100:	01084021 	addu	t0,t0,t0
9d00f104:	01294821 	addu	t1,t1,t1
9d00f108:	1540001c 	bnez	t2,9d00f17c <i15>
9d00f10c:	012f4821 	addu	t1,t1,t7
9d00f110:	01287825 	or	t7,t1,t0
9d00f114:	11e00014 	beqz	t7,9d00f168 <i16>
9d00f118:	00000000 	nop
9d00f11c:	15200008 	bnez	t1,9d00f140 <L22>
9d00f120:	00000000 	nop
9d00f124:	15000003 	bnez	t0,9d00f134 <L23>
9d00f128:	00000000 	nop
9d00f12c:	1000ffad 	b	9d00efe4 <Clab1>
9d00f130:	240a0000 	li	t2,0

9d00f134 <L23>:
9d00f134:	01004825 	move	t1,t0
9d00f138:	24080000 	li	t0,0
9d00f13c:	254affe0 	addiu	t2,t2,-32

9d00f140 <L22>:
9d00f140:	712e7020 	clz	t6,t1
9d00f144:	11c0ffa7 	beqz	t6,9d00efe4 <Clab1>
9d00f148:	00000000 	nop
9d00f14c:	014e5023 	subu	t2,t2,t6
9d00f150:	000e3822 	neg	a3,t6
9d00f154:	00e83806 	srlv	a3,t0,a3
9d00f158:	01c84004 	sllv	t0,t0,t6
9d00f15c:	01c94804 	sllv	t1,t1,t6
9d00f160:	1000ffa0 	b	9d00efe4 <Clab1>
9d00f164:	01274825 	or	t1,t1,a3

9d00f168 <i16>:
9d00f168:	240107ff 	li	at,2047
9d00f16c:	11a10033 	beq	t5,at,9d00f23c <Cnan>
9d00f170:	00000000 	nop
9d00f174:	1000ffdd 	b	9d00f0ec <Cret>
9d00f178:	00000000 	nop

9d00f17c <i15>:
9d00f17c:	01287825 	or	t7,t1,t0
9d00f180:	15e0002e 	bnez	t7,9d00f23c <Cnan>
9d00f184:	00000000 	nop
9d00f188:	15a00005 	bnez	t5,9d00f1a0 <i17>
9d00f18c:	00000000 	nop
9d00f190:	000c7840 	sll	t7,t4,0x1
9d00f194:	01eb7825 	or	t7,t7,t3
9d00f198:	11e00028 	beqz	t7,9d00f23c <Cnan>
9d00f19c:	00000000 	nop

9d00f1a0 <i17>:
9d00f1a0:	240107ff 	li	at,2047
9d00f1a4:	15a10021 	bne	t5,at,9d00f22c <Cinf>
9d00f1a8:	00000000 	nop

9d00f1ac <CspecB>:
9d00f1ac:	0160782a 	slt	t7,t3,zero
9d00f1b0:	016b5821 	addu	t3,t3,t3
9d00f1b4:	018c6021 	addu	t4,t4,t4
9d00f1b8:	15a00019 	bnez	t5,9d00f220 <i18>
9d00f1bc:	018f6021 	addu	t4,t4,t7
9d00f1c0:	018b7825 	or	t7,t4,t3
9d00f1c4:	11e00014 	beqz	t7,9d00f218 <i19>
9d00f1c8:	00000000 	nop
9d00f1cc:	15800008 	bnez	t4,9d00f1f0 <L25>
9d00f1d0:	00000000 	nop
9d00f1d4:	15600003 	bnez	t3,9d00f1e4 <L26>
9d00f1d8:	00000000 	nop
9d00f1dc:	1000ff85 	b	9d00eff4 <Clab2>
9d00f1e0:	240d0000 	li	t5,0

9d00f1e4 <L26>:
9d00f1e4:	01606025 	move	t4,t3
9d00f1e8:	240b0000 	li	t3,0
9d00f1ec:	25adffe0 	addiu	t5,t5,-32

9d00f1f0 <L25>:
9d00f1f0:	71863020 	clz	a2,t4
9d00f1f4:	10c0ff7f 	beqz	a2,9d00eff4 <Clab2>
9d00f1f8:	00000000 	nop
9d00f1fc:	01a66823 	subu	t5,t5,a2
9d00f200:	00067022 	neg	t6,a2
9d00f204:	01cb7006 	srlv	t6,t3,t6
9d00f208:	00cb5804 	sllv	t3,t3,a2
9d00f20c:	00cc6004 	sllv	t4,t4,a2
9d00f210:	1000ff78 	b	9d00eff4 <Clab2>
9d00f214:	018e6025 	or	t4,t4,t6

9d00f218 <i19>:
9d00f218:	1000ffb4 	b	9d00f0ec <Cret>
9d00f21c:	24040000 	li	a0,0

9d00f220 <i18>:
9d00f220:	018b7825 	or	t7,t4,t3
9d00f224:	15e00005 	bnez	t7,9d00f23c <Cnan>
9d00f228:	00000000 	nop

9d00f22c <Cinf>:
9d00f22c:	3c017ff0 	lui	at,0x7ff0
9d00f230:	00a12825 	or	a1,a1,at
9d00f234:	1000ffad 	b	9d00f0ec <Cret>
9d00f238:	24040000 	li	a0,0

9d00f23c <Cnan>:
9d00f23c:	3c05fff8 	lui	a1,0xfff8
9d00f240:	1000ffaa 	b	9d00f0ec <Cret>
9d00f244:	24040000 	li	a0,0

9d00f248 <Coveund>:
9d00f248:	1d40fff8 	bgtz	t2,9d00f22c <Cinf>
9d00f24c:	00000000 	nop
9d00f250:	240e0001 	li	t6,1
9d00f254:	01ca7023 	subu	t6,t6,t2

9d00f258 <L28>:
9d00f258:	2dc10020 	sltiu	at,t6,32
9d00f25c:	14200007 	bnez	at,9d00f27c <L29>
9d00f260:	00000000 	nop
9d00f264:	21ceffe0 	addi	t6,t6,-32
9d00f268:	0008302b 	sltu	a2,zero,t0
9d00f26c:	1009000d 	beq	zero,t1,9d00f2a4 <L30>
9d00f270:	01264025 	or	t0,t1,a2
9d00f274:	1000fff8 	b	9d00f258 <L28>
9d00f278:	34090000 	li	t1,0x0

9d00f27c <L29>:
9d00f27c:	11c00009 	beqz	t6,9d00f2a4 <L30>
9d00f280:	00000000 	nop
9d00f284:	000e3822 	neg	a3,t6
9d00f288:	00e83004 	sllv	a2,t0,a3
9d00f28c:	00e93804 	sllv	a3,t1,a3
9d00f290:	01c84006 	srlv	t0,t0,t6
9d00f294:	01c94806 	srlv	t1,t1,t6
9d00f298:	10c00002 	beqz	a2,9d00f2a4 <L30>
9d00f29c:	00e84025 	or	t0,a3,t0
9d00f2a0:	35080002 	ori	t0,t0,0x2

9d00f2a4 <L30>:
9d00f2a4:	25080400 	addiu	t0,t0,1024
9d00f2a8:	2d0f0400 	sltiu	t7,t0,1024
9d00f2ac:	012f4821 	addu	t1,t1,t7
9d00f2b0:	1000ff83 	b	9d00f0c0 <Clab8>
9d00f2b4:	000957c2 	srl	t2,t1,0x1f
9d00f2b8:	00000000 	nop

Disassembly of section .text.__scan_i:

9d00f2bc <__scan_i>:
9d00f2bc:	27bdffb8 	addiu	sp,sp,-72
9d00f2c0:	afb20028 	sw	s2,40(sp)
9d00f2c4:	8cc20010 	lw	v0,16(a2)
9d00f2c8:	8cd20008 	lw	s2,8(a2)
9d00f2cc:	afb50034 	sw	s5,52(sp)
9d00f2d0:	afb40030 	sw	s4,48(sp)
9d00f2d4:	afb10024 	sw	s1,36(sp)
9d00f2d8:	afbf0044 	sw	ra,68(sp)
9d00f2dc:	afbe0040 	sw	s8,64(sp)
9d00f2e0:	afb7003c 	sw	s7,60(sp)
9d00f2e4:	afb60038 	sw	s6,56(sp)
9d00f2e8:	afb3002c 	sw	s3,44(sp)
9d00f2ec:	afb00020 	sw	s0,32(sp)
9d00f2f0:	0080a825 	move	s5,a0
9d00f2f4:	afa5004c 	sw	a1,76(sp)
9d00f2f8:	00e0a025 	move	s4,a3
9d00f2fc:	afa20018 	sw	v0,24(sp)
9d00f300:	0f404ad7 	jal	9d012b5c <__skipws>
9d00f304:	8cd1000c 	lw	s1,12(a2)
9d00f308:	16400002 	bnez	s2,9d00f314 <__scan_i+0x58>
9d00f30c:	8fa30018 	lw	v1,24(sp)
9d00f310:	2472ffff 	addiu	s2,v1,-1
9d00f314:	8e830000 	lw	v1,0(s4)
9d00f318:	241e000a 	li	s8,10
9d00f31c:	00009825 	move	s3,zero
9d00f320:	00621821 	addu	v1,v1,v0
9d00f324:	ae830000 	sw	v1,0(s4)
9d00f328:	0000b825 	move	s7,zero
9d00f32c:	02f2102a 	slt	v0,s7,s2
9d00f330:	10400046 	beqz	v0,9d00f44c <__scan_i+0x190>
9d00f334:	8fa20018 	lw	v0,24(sp)
9d00f338:	2442ffff 	addiu	v0,v0,-1
9d00f33c:	02e2102a 	slt	v0,s7,v0
9d00f340:	10400043 	beqz	v0,9d00f450 <__scan_i+0x194>
9d00f344:	02371021 	addu	v0,s1,s7
9d00f348:	8ea2003c 	lw	v0,60(s5)
9d00f34c:	8ea4004c 	lw	a0,76(s5)
9d00f350:	0044202b 	sltu	a0,v0,a0
9d00f354:	1080000f 	beqz	a0,9d00f394 <__scan_i+0xd8>
9d00f358:	24440001 	addiu	a0,v0,1
9d00f35c:	aea4003c 	sw	a0,60(s5)
9d00f360:	90500000 	lbu	s0,0(v0)
9d00f364:	2602ffd5 	addiu	v0,s0,-43
9d00f368:	7c020844 	ins	v0,zero,0x1,0x1
9d00f36c:	00571025 	or	v0,v0,s7
9d00f370:	1440001d 	bnez	v0,9d00f3e8 <__scan_i+0x12c>
9d00f374:	00000000 	nop
9d00f378:	a2300000 	sb	s0,0(s1)
9d00f37c:	8e820000 	lw	v0,0(s4)
9d00f380:	24130001 	li	s3,1
9d00f384:	24170001 	li	s7,1
9d00f388:	24420001 	addiu	v0,v0,1
9d00f38c:	1000ffe7 	b	9d00f32c <__scan_i+0x70>
9d00f390:	ae820000 	sw	v0,0(s4)
9d00f394:	0f4049ab 	jal	9d0126ac <__shgetc>
9d00f398:	02a02025 	move	a0,s5
9d00f39c:	00408025 	move	s0,v0
9d00f3a0:	2402ffff 	li	v0,-1
9d00f3a4:	1602fff0 	bne	s0,v0,9d00f368 <__scan_i+0xac>
9d00f3a8:	2602ffd5 	addiu	v0,s0,-43
9d00f3ac:	16e00028 	bnez	s7,9d00f450 <__scan_i+0x194>
9d00f3b0:	02371021 	addu	v0,s1,s7
9d00f3b4:	8fbf0044 	lw	ra,68(sp)
9d00f3b8:	02001025 	move	v0,s0
9d00f3bc:	8fbe0040 	lw	s8,64(sp)
9d00f3c0:	8fb7003c 	lw	s7,60(sp)
9d00f3c4:	8fb60038 	lw	s6,56(sp)
9d00f3c8:	8fb50034 	lw	s5,52(sp)
9d00f3cc:	8fb40030 	lw	s4,48(sp)
9d00f3d0:	8fb3002c 	lw	s3,44(sp)
9d00f3d4:	8fb20028 	lw	s2,40(sp)
9d00f3d8:	8fb10024 	lw	s1,36(sp)
9d00f3dc:	8fb00020 	lw	s0,32(sp)
9d00f3e0:	03e00008 	jr	ra
9d00f3e4:	27bd0048 	addiu	sp,sp,72
9d00f3e8:	16f30008 	bne	s7,s3,9d00f40c <__scan_i+0x150>
9d00f3ec:	0237b021 	addu	s6,s1,s7
9d00f3f0:	2402000a 	li	v0,10
9d00f3f4:	17c20026 	bne	s8,v0,9d00f490 <__scan_i+0x1d4>
9d00f3f8:	26f30001 	addiu	s3,s7,1
9d00f3fc:	3a020030 	xori	v0,s0,0x30
9d00f400:	24040008 	li	a0,8
9d00f404:	0082f00a 	movz	s8,a0,v0
9d00f408:	0002980b 	movn	s3,zero,v0
9d00f40c:	2602ffd0 	addiu	v0,s0,-48
9d00f410:	2c42000a 	sltiu	v0,v0,10
9d00f414:	14400043 	bnez	v0,9d00f524 <__scan_i+0x268>
9d00f418:	24020010 	li	v0,16
9d00f41c:	57c20006 	bnel	s8,v0,9d00f438 <__scan_i+0x17c>
9d00f420:	8ea2004c 	lw	v0,76(s5)
9d00f424:	0f405206 	jal	9d014818 <isxdigit>
9d00f428:	02002025 	move	a0,s0
9d00f42c:	54400043 	bnezl	v0,9d00f53c <__scan_i+0x280>
9d00f430:	a2d00000 	sb	s0,0(s6)
9d00f434:	8ea2004c 	lw	v0,76(s5)
9d00f438:	10400005 	beqz	v0,9d00f450 <__scan_i+0x194>
9d00f43c:	02371021 	addu	v0,s1,s7
9d00f440:	8ea2003c 	lw	v0,60(s5)
9d00f444:	2442ffff 	addiu	v0,v0,-1
9d00f448:	aea2003c 	sw	v0,60(s5)
9d00f44c:	02371021 	addu	v0,s1,s7
9d00f450:	a0400000 	sb	zero,0(v0)
9d00f454:	2402000a 	li	v0,10
9d00f458:	17c2003d 	bne	s8,v0,9d00f550 <__scan_i+0x294>
9d00f45c:	2406000a 	li	a2,10
9d00f460:	27a50010 	addiu	a1,sp,16
9d00f464:	0f405152 	jal	9d014548 <strtoll>
9d00f468:	02202025 	move	a0,s1
9d00f46c:	8fa4004c 	lw	a0,76(sp)
9d00f470:	8fb00010 	lw	s0,16(sp)
9d00f474:	ac820000 	sw	v0,0(a0)
9d00f478:	02118826 	xor	s1,s0,s1
9d00f47c:	2402fffe 	li	v0,-2
9d00f480:	24100001 	li	s0,1
9d00f484:	ac830004 	sw	v1,4(a0)
9d00f488:	1000ffca 	b	9d00f3b4 <__scan_i+0xf8>
9d00f48c:	0051800a 	movz	s0,v0,s1
9d00f490:	24020008 	li	v0,8
9d00f494:	17c20021 	bne	s8,v0,9d00f51c <__scan_i+0x260>
9d00f498:	36020020 	ori	v0,s0,0x20
9d00f49c:	24040078 	li	a0,120
9d00f4a0:	5444ffda 	bnel	v0,a0,9d00f40c <__scan_i+0x150>
9d00f4a4:	00009825 	move	s3,zero
9d00f4a8:	8ea2003c 	lw	v0,60(s5)
9d00f4ac:	8ea4004c 	lw	a0,76(s5)
9d00f4b0:	0044202b 	sltu	a0,v0,a0
9d00f4b4:	10800015 	beqz	a0,9d00f50c <__scan_i+0x250>
9d00f4b8:	00000000 	nop
9d00f4bc:	24440001 	addiu	a0,v0,1
9d00f4c0:	aea4003c 	sw	a0,60(s5)
9d00f4c4:	90420000 	lbu	v0,0(v0)
9d00f4c8:	8ea4004c 	lw	a0,76(s5)
9d00f4cc:	10800004 	beqz	a0,9d00f4e0 <__scan_i+0x224>
9d00f4d0:	00000000 	nop
9d00f4d4:	8ea5003c 	lw	a1,60(s5)
9d00f4d8:	24a5ffff 	addiu	a1,a1,-1
9d00f4dc:	aea5003c 	sw	a1,60(s5)
9d00f4e0:	0f405206 	jal	9d014818 <isxdigit>
9d00f4e4:	00402025 	move	a0,v0
9d00f4e8:	5040ffd3 	beqzl	v0,9d00f438 <__scan_i+0x17c>
9d00f4ec:	8ea2004c 	lw	v0,76(s5)
9d00f4f0:	a2d00000 	sb	s0,0(s6)
9d00f4f4:	8e820000 	lw	v0,0(s4)
9d00f4f8:	0260b825 	move	s7,s3
9d00f4fc:	241e0010 	li	s8,16
9d00f500:	24420001 	addiu	v0,v0,1
9d00f504:	1000ff89 	b	9d00f32c <__scan_i+0x70>
9d00f508:	ae820000 	sw	v0,0(s4)
9d00f50c:	0f4049ab 	jal	9d0126ac <__shgetc>
9d00f510:	02a02025 	move	a0,s5
9d00f514:	1000ffed 	b	9d00f4cc <__scan_i+0x210>
9d00f518:	8ea4004c 	lw	a0,76(s5)
9d00f51c:	1000ffbb 	b	9d00f40c <__scan_i+0x150>
9d00f520:	00009825 	move	s3,zero
9d00f524:	24020008 	li	v0,8
9d00f528:	17c20003 	bne	s8,v0,9d00f538 <__scan_i+0x27c>
9d00f52c:	2a020038 	slti	v0,s0,56
9d00f530:	2404000a 	li	a0,10
9d00f534:	0082f00a 	movz	s8,a0,v0
9d00f538:	a2d00000 	sb	s0,0(s6)
9d00f53c:	8e820000 	lw	v0,0(s4)
9d00f540:	26f70001 	addiu	s7,s7,1
9d00f544:	24420001 	addiu	v0,v0,1
9d00f548:	1000ff78 	b	9d00f32c <__scan_i+0x70>
9d00f54c:	ae820000 	sw	v0,0(s4)
9d00f550:	03c03025 	move	a2,s8
9d00f554:	27a50010 	addiu	a1,sp,16
9d00f558:	0f405147 	jal	9d01451c <strtoull>
9d00f55c:	02202025 	move	a0,s1
9d00f560:	1000ffc3 	b	9d00f470 <__scan_i+0x1b4>
9d00f564:	8fa4004c 	lw	a0,76(sp)

Disassembly of section .text.libm:

9d00f568 <dpfmod>:
9d00f568:	00055040 000a5542 00054ac0 00047d42     @P..BU...J..B}..
9d00f578:	012f4825 000442c0 3c0e8000 012e4825     %H/..B.....<%H..
9d00f588:	00076840 000d6d42 000762c0 00067d42     @h..Bm...b..B}..
9d00f598:	018f6025 00065ac0 018e6025 01c57024     %`...Z..%`..$p..
9d00f5a8:	254fffff 2de107fe 10200056 00000000     ..O%...-V. .....

9d00f5b8 <Alab1>:
9d00f5b8:	25afffff 	addiu	t7,t5,-1
9d00f5bc:	2de107fe 	sltiu	at,t7,2046
9d00f5c0:	1020006e 	beqz	at,9d00f77c <AspecB>
9d00f5c4:	00000000 	nop

9d00f5c8 <Alab2>:
9d00f5c8:	014d3823 	subu	a3,t2,t5
9d00f5cc:	04e0004b 	bltz	a3,9d00f6fc <Aret2>
9d00f5d0:	00000000 	nop
9d00f5d4:	00084042 	srl	t0,t0,0x1
9d00f5d8:	00097fc0 	sll	t7,t1,0x1f
9d00f5dc:	010f4025 	or	t0,t0,t7
9d00f5e0:	00094842 	srl	t1,t1,0x1
9d00f5e4:	000b5842 	srl	t3,t3,0x1
9d00f5e8:	000c7fc0 	sll	t7,t4,0x1f
9d00f5ec:	016f5825 	or	t3,t3,t7
9d00f5f0:	000c6042 	srl	t4,t4,0x1

9d00f5f4 <b1>:
9d00f5f4:	010b782b 	sltu	t7,t0,t3
9d00f5f8:	010b4023 	subu	t0,t0,t3
9d00f5fc:	012f102b 	sltu	v0,t1,t7
9d00f600:	012f4823 	subu	t1,t1,t7
9d00f604:	012c782b 	sltu	t7,t1,t4
9d00f608:	01e27825 	or	t7,t7,v0
9d00f60c:	11e00005 	beqz	t7,9d00f624 <i2>
9d00f610:	012c4823 	subu	t1,t1,t4
9d00f614:	010b4021 	addu	t0,t0,t3
9d00f618:	010b782b 	sltu	t7,t0,t3
9d00f61c:	012c4821 	addu	t1,t1,t4
9d00f620:	012f4821 	addu	t1,t1,t7

9d00f624 <i2>:
9d00f624:	0100782a 	slt	t7,t0,zero
9d00f628:	01084021 	addu	t0,t0,t0
9d00f62c:	01294821 	addu	t1,t1,t1
9d00f630:	012f4821 	addu	t1,t1,t7
9d00f634:	24e7ffff 	addiu	a3,a3,-1
9d00f638:	04e1ffee 	bgez	a3,9d00f5f4 <b1>
9d00f63c:	00000000 	nop
9d00f640:	15200008 	bnez	t1,9d00f664 <L1>
9d00f644:	000d5025 	or	t2,zero,t5
9d00f648:	15000003 	bnez	t0,9d00f658 <L2>
9d00f64c:	00000000 	nop
9d00f650:	1000000d 	b	9d00f688 <L3>
9d00f654:	240a0000 	li	t2,0

9d00f658 <L2>:
9d00f658:	01004825 	move	t1,t0
9d00f65c:	24080000 	li	t0,0
9d00f660:	254affe0 	addiu	t2,t2,-32

9d00f664 <L1>:
9d00f664:	71273820 	clz	a3,t1
9d00f668:	10e00007 	beqz	a3,9d00f688 <L3>
9d00f66c:	00000000 	nop
9d00f670:	01475023 	subu	t2,t2,a3
9d00f674:	00073022 	neg	a2,a3
9d00f678:	00c83006 	srlv	a2,t0,a2
9d00f67c:	00e84004 	sllv	t0,t0,a3
9d00f680:	00e94804 	sllv	t1,t1,a3
9d00f684:	01264825 	or	t1,t1,a2

9d00f688 <L3>:
9d00f688:	1d400014 	bgtz	t2,9d00f6dc <i3>
9d00f68c:	00000000 	nop
9d00f690:	24070001 	li	a3,1
9d00f694:	00ea3823 	subu	a3,a3,t2

9d00f698 <L4>:
9d00f698:	2ce10020 	sltiu	at,a3,32
9d00f69c:	14200005 	bnez	at,9d00f6b4 <L5>
9d00f6a0:	00000000 	nop
9d00f6a4:	00094025 	or	t0,zero,t1
9d00f6a8:	24090000 	li	t1,0
9d00f6ac:	1500fffa 	bnez	t0,9d00f698 <L4>
9d00f6b0:	24e7ffe0 	addiu	a3,a3,-32

9d00f6b4 <L5>:
9d00f6b4:	10e00008 	beqz	a3,9d00f6d8 <L6>
9d00f6b8:	00000000 	nop
9d00f6bc:	00093025 	or	a2,zero,t1
9d00f6c0:	00e84006 	srlv	t0,t0,a3
9d00f6c4:	00e94806 	srlv	t1,t1,a3
9d00f6c8:	240f0020 	li	t7,32
9d00f6cc:	01e73823 	subu	a3,t7,a3
9d00f6d0:	00e63004 	sllv	a2,a2,a3
9d00f6d4:	01064025 	or	t0,t0,a2

9d00f6d8 <L6>:
9d00f6d8:	240a0000 	li	t2,0

9d00f6dc <i3>:
9d00f6dc:	000822c2 	srl	a0,t0,0xb
9d00f6e0:	00097d40 	sll	t7,t1,0x15
9d00f6e4:	008f2025 	or	a0,a0,t7
9d00f6e8:	00092840 	sll	a1,t1,0x1
9d00f6ec:	00052b02 	srl	a1,a1,0xc
9d00f6f0:	000a7d00 	sll	t7,t2,0x14
9d00f6f4:	00af2825 	or	a1,a1,t7
9d00f6f8:	00ae2825 	or	a1,a1,t6

9d00f6fc <Aret2>:
9d00f6fc:	00041025 	or	v0,zero,a0
9d00f700:	00051825 	or	v1,zero,a1

9d00f704 <A999>:
9d00f704:	03e00008 	jr	ra
9d00f708:	00000000 	nop

9d00f70c <AspecA>:
9d00f70c:	1540003b 	bnez	t2,9d00f7fc <Anan>
9d00f710:	00000000 	nop
9d00f714:	0100782a 	slt	t7,t0,zero
9d00f718:	01084021 	addu	t0,t0,t0
9d00f71c:	01294821 	addu	t1,t1,t1
9d00f720:	012f4821 	addu	t1,t1,t7
9d00f724:	01287825 	or	t7,t1,t0
9d00f728:	11e0ffa3 	beqz	t7,9d00f5b8 <Alab1>
9d00f72c:	00000000 	nop
9d00f730:	15200008 	bnez	t1,9d00f754 <L7>
9d00f734:	00000000 	nop
9d00f738:	15000003 	bnez	t0,9d00f748 <L8>
9d00f73c:	00000000 	nop
9d00f740:	1000ff9d 	b	9d00f5b8 <Alab1>
9d00f744:	240a0000 	li	t2,0

9d00f748 <L8>:
9d00f748:	01004825 	move	t1,t0
9d00f74c:	24080000 	li	t0,0
9d00f750:	254affe0 	addiu	t2,t2,-32

9d00f754 <L7>:
9d00f754:	71273820 	clz	a3,t1
9d00f758:	10e0ff97 	beqz	a3,9d00f5b8 <Alab1>
9d00f75c:	00000000 	nop
9d00f760:	01475023 	subu	t2,t2,a3
9d00f764:	00073022 	neg	a2,a3
9d00f768:	00c83006 	srlv	a2,t0,a2
9d00f76c:	00e84004 	sllv	t0,t0,a3
9d00f770:	00e94804 	sllv	t1,t1,a3
9d00f774:	1000ff90 	b	9d00f5b8 <Alab1>
9d00f778:	01264825 	or	t1,t1,a2

9d00f77c <AspecB>:
9d00f77c:	15a0001b 	bnez	t5,9d00f7ec <i5>
9d00f780:	00000000 	nop
9d00f784:	0160782a 	slt	t7,t3,zero
9d00f788:	016b5821 	addu	t3,t3,t3
9d00f78c:	018c6021 	addu	t4,t4,t4
9d00f790:	018f6021 	addu	t4,t4,t7
9d00f794:	018b7825 	or	t7,t4,t3
9d00f798:	11e00018 	beqz	t7,9d00f7fc <Anan>
9d00f79c:	00000000 	nop
9d00f7a0:	15800008 	bnez	t4,9d00f7c4 <L10>
9d00f7a4:	00000000 	nop
9d00f7a8:	15600003 	bnez	t3,9d00f7b8 <L11>
9d00f7ac:	00000000 	nop
9d00f7b0:	1000ff85 	b	9d00f5c8 <Alab2>
9d00f7b4:	240d0000 	li	t5,0

9d00f7b8 <L11>:
9d00f7b8:	01606025 	move	t4,t3
9d00f7bc:	240b0000 	li	t3,0
9d00f7c0:	25adffe0 	addiu	t5,t5,-32

9d00f7c4 <L10>:
9d00f7c4:	71873820 	clz	a3,t4
9d00f7c8:	10e0ff7f 	beqz	a3,9d00f5c8 <Alab2>
9d00f7cc:	00000000 	nop
9d00f7d0:	01a76823 	subu	t5,t5,a3
9d00f7d4:	00073022 	neg	a2,a3
9d00f7d8:	00cb3006 	srlv	a2,t3,a2
9d00f7dc:	00eb5804 	sllv	t3,t3,a3
9d00f7e0:	00ec6004 	sllv	t4,t4,a3
9d00f7e4:	1000ff78 	b	9d00f5c8 <Alab2>
9d00f7e8:	01866025 	or	t4,t4,a2

9d00f7ec <i5>:
9d00f7ec:	000c7840 	sll	t7,t4,0x1
9d00f7f0:	01eb7825 	or	t7,t7,t3
9d00f7f4:	11e0ffc1 	beqz	t7,9d00f6fc <Aret2>
9d00f7f8:	00000000 	nop

9d00f7fc <Anan>:
9d00f7fc:	3c05fff8 	lui	a1,0xfff8
9d00f800:	1000ffbe 	b	9d00f6fc <Aret2>
9d00f804:	24040000 	li	a0,0
9d00f808:	00000000 	nop

Disassembly of section .text.scanexp:

9d00f80c <scanexp>:
9d00f80c:	8c82003c 	lw	v0,60(a0)
9d00f810:	8c83004c 	lw	v1,76(a0)
9d00f814:	27bdffd0 	addiu	sp,sp,-48
9d00f818:	afb10014 	sw	s1,20(sp)
9d00f81c:	0043182b 	sltu	v1,v0,v1
9d00f820:	afb00010 	sw	s0,16(sp)
9d00f824:	afbf002c 	sw	ra,44(sp)
9d00f828:	afb60028 	sw	s6,40(sp)
9d00f82c:	afb50024 	sw	s5,36(sp)
9d00f830:	afb40020 	sw	s4,32(sp)
9d00f834:	afb3001c 	sw	s3,28(sp)
9d00f838:	afb20018 	sw	s2,24(sp)
9d00f83c:	00808025 	move	s0,a0
9d00f840:	10600033 	beqz	v1,9d00f910 <scanexp+0x104>
9d00f844:	00a08825 	move	s1,a1
9d00f848:	24430001 	addiu	v1,v0,1
9d00f84c:	ac83003c 	sw	v1,60(a0)
9d00f850:	90520000 	lbu	s2,0(v0)
9d00f854:	2642ffd5 	addiu	v0,s2,-43
9d00f858:	7c020844 	ins	v0,zero,0x1,0x1
9d00f85c:	14400016 	bnez	v0,9d00f8b8 <scanexp+0xac>
9d00f860:	0000a025 	move	s4,zero
9d00f864:	8e02003c 	lw	v0,60(s0)
9d00f868:	8e03004c 	lw	v1,76(s0)
9d00f86c:	3a52002d 	xori	s2,s2,0x2d
9d00f870:	0043182b 	sltu	v1,v0,v1
9d00f874:	1060002a 	beqz	v1,9d00f920 <scanexp+0x114>
9d00f878:	2e540001 	sltiu	s4,s2,1
9d00f87c:	24430001 	addiu	v1,v0,1
9d00f880:	ae03003c 	sw	v1,60(s0)
9d00f884:	90520000 	lbu	s2,0(v0)
9d00f888:	2642ffd0 	addiu	v0,s2,-48
9d00f88c:	2c42000a 	sltiu	v0,v0,10
9d00f890:	1440000a 	bnez	v0,9d00f8bc <scanexp+0xb0>
9d00f894:	2642ffd0 	addiu	v0,s2,-48
9d00f898:	12200009 	beqz	s1,9d00f8c0 <scanexp+0xb4>
9d00f89c:	2c42000a 	sltiu	v0,v0,10
9d00f8a0:	8e02004c 	lw	v0,76(s0)
9d00f8a4:	10400005 	beqz	v0,9d00f8bc <scanexp+0xb0>
9d00f8a8:	2642ffd0 	addiu	v0,s2,-48
9d00f8ac:	8e02003c 	lw	v0,60(s0)
9d00f8b0:	2442ffff 	addiu	v0,v0,-1
9d00f8b4:	ae02003c 	sw	v0,60(s0)
9d00f8b8:	2642ffd0 	addiu	v0,s2,-48
9d00f8bc:	2c42000a 	sltiu	v0,v0,10
9d00f8c0:	1440001b 	bnez	v0,9d00f930 <scanexp+0x124>
9d00f8c4:	00009825 	move	s3,zero
9d00f8c8:	8e02004c 	lw	v0,76(s0)
9d00f8cc:	10400004 	beqz	v0,9d00f8e0 <scanexp+0xd4>
9d00f8d0:	3c158000 	lui	s5,0x8000
9d00f8d4:	8e02003c 	lw	v0,60(s0)
9d00f8d8:	2442ffff 	addiu	v0,v0,-1
9d00f8dc:	ae02003c 	sw	v0,60(s0)
9d00f8e0:	8fbf002c 	lw	ra,44(sp)
9d00f8e4:	02601025 	move	v0,s3
9d00f8e8:	02a01825 	move	v1,s5
9d00f8ec:	8fb60028 	lw	s6,40(sp)
9d00f8f0:	8fb50024 	lw	s5,36(sp)
9d00f8f4:	8fb40020 	lw	s4,32(sp)
9d00f8f8:	8fb3001c 	lw	s3,28(sp)
9d00f8fc:	8fb20018 	lw	s2,24(sp)
9d00f900:	8fb10014 	lw	s1,20(sp)
9d00f904:	8fb00010 	lw	s0,16(sp)
9d00f908:	03e00008 	jr	ra
9d00f90c:	27bd0030 	addiu	sp,sp,48
9d00f910:	0f4049ab 	jal	9d0126ac <__shgetc>
9d00f914:	00000000 	nop
9d00f918:	1000ffce 	b	9d00f854 <scanexp+0x48>
9d00f91c:	00409025 	move	s2,v0
9d00f920:	0f4049ab 	jal	9d0126ac <__shgetc>
9d00f924:	02002025 	move	a0,s0
9d00f928:	1000ffd7 	b	9d00f888 <scanexp+0x7c>
9d00f92c:	00409025 	move	s2,v0
9d00f930:	3c150ccc 	lui	s5,0xccc
9d00f934:	36b5cccc 	ori	s5,s5,0xcccc
9d00f938:	8e02003c 	lw	v0,60(s0)
9d00f93c:	8e03004c 	lw	v1,76(s0)
9d00f940:	0043182b 	sltu	v1,v0,v1
9d00f944:	1060001d 	beqz	v1,9d00f9bc <scanexp+0x1b0>
9d00f948:	24430001 	addiu	v1,v0,1
9d00f94c:	ae03003c 	sw	v1,60(s0)
9d00f950:	90510000 	lbu	s1,0(v0)
9d00f954:	2402000a 	li	v0,10
9d00f958:	72621802 	mul	v1,s3,v0
9d00f95c:	2622ffd0 	addiu	v0,s1,-48
9d00f960:	2c42000a 	sltiu	v0,v0,10
9d00f964:	00729821 	addu	s3,v1,s2
9d00f968:	10400004 	beqz	v0,9d00f97c <scanexp+0x170>
9d00f96c:	2673ffd0 	addiu	s3,s3,-48
9d00f970:	0275102a 	slt	v0,s3,s5
9d00f974:	1440fff0 	bnez	v0,9d00f938 <scanexp+0x12c>
9d00f978:	02209025 	move	s2,s1
9d00f97c:	3c160147 	lui	s6,0x147
9d00f980:	0013afc3 	sra	s5,s3,0x1f
9d00f984:	36d6ae15 	ori	s6,s6,0xae15
9d00f988:	2622ffd0 	addiu	v0,s1,-48
9d00f98c:	2c42000a 	sltiu	v0,v0,10
9d00f990:	14400012 	bnez	v0,9d00f9dc <scanexp+0x1d0>
9d00f994:	02b6102a 	slt	v0,s5,s6
9d00f998:	8e02004c 	lw	v0,76(s0)
9d00f99c:	54400040 	bnezl	v0,9d00faa0 <scanexp+0x294>
9d00f9a0:	8e02003c 	lw	v0,60(s0)
9d00f9a4:	1280ffce 	beqz	s4,9d00f8e0 <scanexp+0xd4>
9d00f9a8:	00158823 	negu	s1,s5
9d00f9ac:	00139823 	negu	s3,s3
9d00f9b0:	0013102b 	sltu	v0,zero,s3
9d00f9b4:	1000ffca 	b	9d00f8e0 <scanexp+0xd4>
9d00f9b8:	0222a823 	subu	s5,s1,v0
9d00f9bc:	0f4049ab 	jal	9d0126ac <__shgetc>
9d00f9c0:	02002025 	move	a0,s0
9d00f9c4:	1000ffe3 	b	9d00f954 <scanexp+0x148>
9d00f9c8:	00408825 	move	s1,v0
9d00f9cc:	0f4049ab 	jal	9d0126ac <__shgetc>
9d00f9d0:	02002025 	move	a0,s0
9d00f9d4:	10000012 	b	9d00fa20 <scanexp+0x214>
9d00f9d8:	2403000a 	li	v1,10
9d00f9dc:	10400026 	beqz	v0,9d00fa78 <scanexp+0x26c>
9d00f9e0:	26c2ffff 	addiu	v0,s6,-1
9d00f9e4:	16a20005 	bne	s5,v0,9d00f9fc <scanexp+0x1f0>
9d00f9e8:	3c027ae1 	lui	v0,0x7ae1
9d00f9ec:	244247ae 	addiu	v0,v0,18350
9d00f9f0:	0262102b 	sltu	v0,s3,v0
9d00f9f4:	50400021 	beqzl	v0,9d00fa7c <scanexp+0x270>
9d00f9f8:	2631ffd0 	addiu	s1,s1,-48
9d00f9fc:	8e02003c 	lw	v0,60(s0)
9d00fa00:	8e03004c 	lw	v1,76(s0)
9d00fa04:	0043182b 	sltu	v1,v0,v1
9d00fa08:	1060fff0 	beqz	v1,9d00f9cc <scanexp+0x1c0>
9d00fa0c:	00000000 	nop
9d00fa10:	24430001 	addiu	v1,v0,1
9d00fa14:	ae03003c 	sw	v1,60(s0)
9d00fa18:	90420000 	lbu	v0,0(v0)
9d00fa1c:	2403000a 	li	v1,10
9d00fa20:	00730019 	multu	v1,s3
9d00fa24:	00009012 	mflo	s2
9d00fa28:	00009810 	mfhi	s3
9d00fa2c:	70752002 	mul	a0,v1,s5
9d00fa30:	00939821 	addu	s3,a0,s3
9d00fa34:	001127c3 	sra	a0,s1,0x1f
9d00fa38:	02518821 	addu	s1,s2,s1
9d00fa3c:	0232182b 	sltu	v1,s1,s2
9d00fa40:	02642021 	addu	a0,s3,a0
9d00fa44:	00641821 	addu	v1,v1,a0
9d00fa48:	2633ffd0 	addiu	s3,s1,-48
9d00fa4c:	0271882b 	sltu	s1,s3,s1
9d00fa50:	2463ffff 	addiu	v1,v1,-1
9d00fa54:	0223a821 	addu	s5,s1,v1
9d00fa58:	1000ffcb 	b	9d00f988 <scanexp+0x17c>
9d00fa5c:	00408825 	move	s1,v0
9d00fa60:	8e03004c 	lw	v1,76(s0)
9d00fa64:	0043182b 	sltu	v1,v0,v1
9d00fa68:	10600009 	beqz	v1,9d00fa90 <scanexp+0x284>
9d00fa6c:	24430001 	addiu	v1,v0,1
9d00fa70:	ae03003c 	sw	v1,60(s0)
9d00fa74:	90510000 	lbu	s1,0(v0)
9d00fa78:	2631ffd0 	addiu	s1,s1,-48
9d00fa7c:	2e31000a 	sltiu	s1,s1,10
9d00fa80:	5620fff7 	bnezl	s1,9d00fa60 <scanexp+0x254>
9d00fa84:	8e02003c 	lw	v0,60(s0)
9d00fa88:	1000ffc4 	b	9d00f99c <scanexp+0x190>
9d00fa8c:	8e02004c 	lw	v0,76(s0)
9d00fa90:	0f4049ab 	jal	9d0126ac <__shgetc>
9d00fa94:	02002025 	move	a0,s0
9d00fa98:	1000fff7 	b	9d00fa78 <scanexp+0x26c>
9d00fa9c:	00408825 	move	s1,v0
9d00faa0:	2442ffff 	addiu	v0,v0,-1
9d00faa4:	1000ffbf 	b	9d00f9a4 <scanexp+0x198>
9d00faa8:	ae02003c 	sw	v0,60(s0)

Disassembly of section .text.malloc:

9d00faac <malloc>:
9d00faac:	27bdffd8 	addiu	sp,sp,-40
9d00fab0:	afa40028 	sw	a0,40(sp)
9d00fab4:	27a40028 	addiu	a0,sp,40
9d00fab8:	afbf0024 	sw	ra,36(sp)
9d00fabc:	afb10020 	sw	s1,32(sp)
9d00fac0:	0f404f19 	jal	9d013c64 <adjust_size>
9d00fac4:	afb0001c 	sw	s0,28(sp)
9d00fac8:	04410007 	bgez	v0,9d00fae8 <malloc+0x3c>
9d00facc:	8fa20028 	lw	v0,40(sp)
9d00fad0:	00001025 	move	v0,zero
9d00fad4:	8fbf0024 	lw	ra,36(sp)
9d00fad8:	8fb10020 	lw	s1,32(sp)
9d00fadc:	8fb0001c 	lw	s0,28(sp)
9d00fae0:	03e00008 	jr	ra
9d00fae4:	27bd0028 	addiu	sp,sp,40
9d00fae8:	00021102 	srl	v0,v0,0x4
9d00faec:	2451ffff 	addiu	s1,v0,-1
9d00faf0:	2e230021 	sltiu	v1,s1,33
9d00faf4:	14600009 	bnez	v1,9d00fb1c <malloc+0x70>
9d00faf8:	2442fffe 	addiu	v0,v0,-2
9d00fafc:	3c039d01 	lui	v1,0x9d01
9d00fb00:	2c440200 	sltiu	a0,v0,512
9d00fb04:	1080001f 	beqz	a0,9d00fb84 <malloc+0xd8>
9d00fb08:	24633bd0 	addiu	v1,v1,15312
9d00fb0c:	000210c2 	srl	v0,v0,0x3
9d00fb10:	00621021 	addu	v0,v1,v0
9d00fb14:	9051fffc 	lbu	s1,-4(v0)
9d00fb18:	26310001 	addiu	s1,s1,1
9d00fb1c:	02203025 	move	a2,s1
9d00fb20:	24040001 	li	a0,1
9d00fb24:	0f4050d4 	jal	9d014350 <__ashldi3>
9d00fb28:	00002825 	move	a1,zero
9d00fb2c:	00025023 	negu	t2,v0
9d00fb30:	000a382b 	sltu	a3,zero,t2
9d00fb34:	00031823 	negu	v1,v1
9d00fb38:	3c09a000 	lui	t1,0xa000
9d00fb3c:	00673823 	subu	a3,v1,a3
9d00fb40:	25285138 	addiu	t0,t1,20792
9d00fb44:	8d225138 	lw	v0,20792(t1)
9d00fb48:	8d23513c 	lw	v1,20796(t1)
9d00fb4c:	01423024 	and	a2,t2,v0
9d00fb50:	00e31824 	and	v1,a3,v1
9d00fb54:	00c32025 	or	a0,a2,v1
9d00fb58:	14800039 	bnez	a0,9d00fc40 <malloc+0x194>
9d00fb5c:	8fa20028 	lw	v0,40(sp)
9d00fb60:	27a40010 	addiu	a0,sp,16
9d00fb64:	24420010 	addiu	v0,v0,16
9d00fb68:	0f405098 	jal	9d014260 <__expand_heap>
9d00fb6c:	afa20010 	sw	v0,16(sp)
9d00fb70:	14400009 	bnez	v0,9d00fb98 <malloc+0xec>
9d00fb74:	3c03a000 	lui	v1,0xa000
9d00fb78:	2404000c 	li	a0,12
9d00fb7c:	1000ffd5 	b	9d00fad4 <malloc+0x28>
9d00fb80:	ac6453b4 	sw	a0,21428(v1)
9d00fb84:	000211c2 	srl	v0,v0,0x7
9d00fb88:	00621021 	addu	v0,v1,v0
9d00fb8c:	9051fffc 	lbu	s1,-4(v0)
9d00fb90:	1000ffe2 	b	9d00fb1c <malloc+0x70>
9d00fb94:	26310011 	addiu	s1,s1,17
9d00fb98:	3c03a000 	lui	v1,0xa000
9d00fb9c:	8c715130 	lw	s1,20784(v1)
9d00fba0:	10510006 	beq	v0,s1,9d00fbbc <malloc+0x110>
9d00fba4:	8fa40010 	lw	a0,16(sp)
9d00fba8:	24510010 	addiu	s1,v0,16
9d00fbac:	2484fff0 	addiu	a0,a0,-16
9d00fbb0:	afa40010 	sw	a0,16(sp)
9d00fbb4:	24040001 	li	a0,1
9d00fbb8:	ac440008 	sw	a0,8(v0)
9d00fbbc:	8fa20010 	lw	v0,16(sp)
9d00fbc0:	2630fff8 	addiu	s0,s1,-8
9d00fbc4:	02222021 	addu	a0,s1,v0
9d00fbc8:	ac645130 	sw	a0,20784(v1)
9d00fbcc:	34420001 	ori	v0,v0,0x1
9d00fbd0:	24030001 	li	v1,1
9d00fbd4:	ac82fff8 	sw	v0,-8(a0)
9d00fbd8:	ac83fffc 	sw	v1,-4(a0)
9d00fbdc:	1200ffbc 	beqz	s0,9d00fad0 <malloc+0x24>
9d00fbe0:	ae22fffc 	sw	v0,-4(s1)
9d00fbe4:	0f404d95 	jal	9d013654 <alloc_rev>
9d00fbe8:	02002025 	move	a0,s0
9d00fbec:	10400010 	beqz	v0,9d00fc30 <malloc+0x184>
9d00fbf0:	8fa50028 	lw	a1,40(sp)
9d00fbf4:	8e23fff8 	lw	v1,-8(s1)
9d00fbf8:	2402fffe 	li	v0,-2
9d00fbfc:	8e25fffc 	lw	a1,-4(s1)
9d00fc00:	00431824 	and	v1,v0,v1
9d00fc04:	02031823 	subu	v1,s0,v1
9d00fc08:	8c640004 	lw	a0,4(v1)
9d00fc0c:	00442024 	and	a0,v0,a0
9d00fc10:	00852021 	addu	a0,a0,a1
9d00fc14:	ac640004 	sw	a0,4(v1)
9d00fc18:	8e25fffc 	lw	a1,-4(s1)
9d00fc1c:	00451024 	and	v0,v0,a1
9d00fc20:	02028021 	addu	s0,s0,v0
9d00fc24:	ae040000 	sw	a0,0(s0)
9d00fc28:	00608025 	move	s0,v1
9d00fc2c:	8fa50028 	lw	a1,40(sp)
9d00fc30:	0f404f2f 	jal	9d013cbc <trim>
9d00fc34:	02002025 	move	a0,s0
9d00fc38:	1000ffa6 	b	9d00fad4 <malloc+0x28>
9d00fc3c:	26020008 	addiu	v0,s0,8
9d00fc40:	3c049d01 	lui	a0,0x9d01
9d00fc44:	14c00031 	bnez	a2,9d00fd0c <malloc+0x260>
9d00fc48:	24843bb0 	addiu	a0,a0,15280
9d00fc4c:	00032823 	negu	a1,v1
9d00fc50:	3c02076b 	lui	v0,0x76b
9d00fc54:	00a32824 	and	a1,a1,v1
9d00fc58:	3442e629 	ori	v0,v0,0xe629
9d00fc5c:	70a22802 	mul	a1,a1,v0
9d00fc60:	00052ec2 	srl	a1,a1,0x1b
9d00fc64:	00852021 	addu	a0,a0,a1
9d00fc68:	80860000 	lb	a2,0(a0)
9d00fc6c:	24c60020 	addiu	a2,a2,32
9d00fc70:	0f4050f1 	jal	9d0143c4 <lock_bin>
9d00fc74:	00c02025 	move	a0,a2
9d00fc78:	24c40001 	addiu	a0,a2,1
9d00fc7c:	000420c0 	sll	a0,a0,0x3
9d00fc80:	00881021 	addu	v0,a0,t0
9d00fc84:	8c500000 	lw	s0,0(v0)
9d00fc88:	2484fff8 	addiu	a0,a0,-8
9d00fc8c:	01042021 	addu	a0,t0,a0
9d00fc90:	1204ffac 	beq	s0,a0,9d00fb44 <malloc+0x98>
9d00fc94:	28c20028 	slti	v0,a2,40
9d00fc98:	14400025 	bnez	v0,9d00fd30 <malloc+0x284>
9d00fc9c:	26310002 	addiu	s1,s1,2
9d00fca0:	0226882a 	slt	s1,s1,a2
9d00fca4:	16200003 	bnez	s1,9d00fcb4 <malloc+0x208>
9d00fca8:	2402003f 	li	v0,63
9d00fcac:	14c20021 	bne	a2,v0,9d00fd34 <malloc+0x288>
9d00fcb0:	00c02825 	move	a1,a2
9d00fcb4:	8e070004 	lw	a3,4(s0)
9d00fcb8:	8fa50028 	lw	a1,40(sp)
9d00fcbc:	7c070004 	ins	a3,zero,0x0,0x1
9d00fcc0:	00e54023 	subu	t0,a3,a1
9d00fcc4:	0f404e8d 	jal	9d013a34 <bin_index>
9d00fcc8:	01002025 	move	a0,t0
9d00fccc:	14c20018 	bne	a2,v0,9d00fd30 <malloc+0x284>
9d00fcd0:	02073821 	addu	a3,s0,a3
9d00fcd4:	8e03000c 	lw	v1,12(s0)
9d00fcd8:	8e040008 	lw	a0,8(s0)
9d00fcdc:	02051021 	addu	v0,s0,a1
9d00fce0:	ac43000c 	sw	v1,12(v0)
9d00fce4:	ac440008 	sw	a0,8(v0)
9d00fce8:	ac620008 	sw	v0,8(v1)
9d00fcec:	8c430008 	lw	v1,8(v0)
9d00fcf0:	34a50001 	ori	a1,a1,0x1
9d00fcf4:	ac62000c 	sw	v0,12(v1)
9d00fcf8:	ac450000 	sw	a1,0(v0)
9d00fcfc:	ac480004 	sw	t0,4(v0)
9d00fd00:	ace80000 	sw	t0,0(a3)
9d00fd04:	1000ffc9 	b	9d00fc2c <malloc+0x180>
9d00fd08:	ae050004 	sw	a1,4(s0)
9d00fd0c:	00062823 	negu	a1,a2
9d00fd10:	3c02076b 	lui	v0,0x76b
9d00fd14:	00a62824 	and	a1,a1,a2
9d00fd18:	3442e629 	ori	v0,v0,0xe629
9d00fd1c:	70a22802 	mul	a1,a1,v0
9d00fd20:	00052ec2 	srl	a1,a1,0x1b
9d00fd24:	00852021 	addu	a0,a0,a1
9d00fd28:	1000ffd1 	b	9d00fc70 <malloc+0x1c4>
9d00fd2c:	80860000 	lb	a2,0(a0)
9d00fd30:	00c02825 	move	a1,a2
9d00fd34:	0f404a04 	jal	9d012810 <unbin>
9d00fd38:	02002025 	move	a0,s0
9d00fd3c:	1000ffbc 	b	9d00fc30 <malloc+0x184>
9d00fd40:	8fa50028 	lw	a1,40(sp)

Disassembly of section .text.fpsubadd:

9d00fd44 <__subsf3>:
9d00fd44:	3c018000 00a12826                       ...<&(..

9d00fd4c <__addsf3>:
9d00fd4c:	00044dc2 312900ff 00055dc2 316b00ff     .M....)1.]....k1
9d00fd5c:	3c078000 00044200 01074025 00055200     ...<.B..%@...R..
9d00fd6c:	01475025 252dffff 2da100fe 10200061     %PG...-%...-a. .
9d00fd7c:	00000000                                ....

9d00fd80 <Blab1>:
9d00fd80:	256dffff 	addiu	t5,t3,-1
9d00fd84:	2da100fe 	sltiu	at,t5,254
9d00fd88:	10200077 	beqz	at,9d00ff68 <BspecB>
9d00fd8c:	00000000 	nop

9d00fd90 <Blab2>:
9d00fd90:	012b6023 	subu	t4,t1,t3
9d00fd94:	0580000d 	bltz	t4,9d00fdcc <i1>
9d00fd98:	00000000 	nop
9d00fd9c:	29810020 	slti	at,t4,32
9d00fda0:	14200003 	bnez	at,9d00fdb0 <i2>
9d00fda4:	00000000 	nop
9d00fda8:	10000015 	b	9d00fe00 <e1>
9d00fdac:	240a0002 	li	t2,2

9d00fdb0 <i2>:
9d00fdb0:	000a3025 	or	a2,zero,t2
9d00fdb4:	018a5006 	srlv	t2,t2,t4
9d00fdb8:	018a6804 	sllv	t5,t2,t4
9d00fdbc:	11a60010 	beq	t5,a2,9d00fe00 <e1>
9d00fdc0:	00000000 	nop
9d00fdc4:	1000000e 	b	9d00fe00 <e1>
9d00fdc8:	354a0002 	ori	t2,t2,0x2

9d00fdcc <i1>:
9d00fdcc:	000b4825 	or	t1,zero,t3
9d00fdd0:	000c6023 	negu	t4,t4
9d00fdd4:	29810020 	slti	at,t4,32
9d00fdd8:	14200003 	bnez	at,9d00fde8 <i4>
9d00fddc:	00000000 	nop
9d00fde0:	10000007 	b	9d00fe00 <e1>
9d00fde4:	24080002 	li	t0,2

9d00fde8 <i4>:
9d00fde8:	00083025 	or	a2,zero,t0
9d00fdec:	01884006 	srlv	t0,t0,t4
9d00fdf0:	01886804 	sllv	t5,t0,t4
9d00fdf4:	11a60002 	beq	t5,a2,9d00fe00 <e1>
9d00fdf8:	00000000 	nop
9d00fdfc:	35080002 	ori	t0,t0,0x2

9d00fe00 <e1>:
9d00fe00:	00876024 	and	t4,a0,a3
9d00fe04:	01856826 	xor	t5,t4,a1
9d00fe08:	05a00010 	bltz	t5,9d00fe4c <Bsub1>
9d00fe0c:	00000000 	nop
9d00fe10:	010a4021 	addu	t0,t0,t2
9d00fe14:	010a682b 	sltu	t5,t0,t2
9d00fe18:	11a00017 	beqz	t5,9d00fe78 <Bres>
9d00fe1c:	00000000 	nop
9d00fe20:	310d0001 	andi	t5,t0,0x1
9d00fe24:	11a00002 	beqz	t5,9d00fe30 <i7>
9d00fe28:	00000000 	nop
9d00fe2c:	35080002 	ori	t0,t0,0x2

9d00fe30 <i7>:
9d00fe30:	00084042 	srl	t0,t0,0x1
9d00fe34:	25290001 	addiu	t1,t1,1
9d00fe38:	240100ff 	li	at,255
9d00fe3c:	1521000e 	bne	t1,at,9d00fe78 <Bres>
9d00fe40:	00000000 	nop
9d00fe44:	1000000c 	b	9d00fe78 <Bres>
9d00fe48:	24080000 	li	t0,0

9d00fe4c <Bsub1>:
9d00fe4c:	010a682b 	sltu	t5,t0,t2
9d00fe50:	11a00004 	beqz	t5,9d00fe64 <i9>
9d00fe54:	010a4023 	subu	t0,t0,t2
9d00fe58:	00084023 	negu	t0,t0
9d00fe5c:	10000003 	b	9d00fe6c <e9>
9d00fe60:	01876026 	xor	t4,t4,a3

9d00fe64 <i9>:
9d00fe64:	11000050 	beqz	t0,9d00ffa8 <Bzer>
9d00fe68:	00000000 	nop

9d00fe6c <e9>:
9d00fe6c:	71063020 	clz	a2,t0
9d00fe70:	01264823 	subu	t1,t1,a2
9d00fe74:	00c84004 	sllv	t0,t0,a2

9d00fe78 <Bres>:
9d00fe78:	1920000e 	blez	t1,9d00feb4 <Bund>
9d00fe7c:	00000000 	nop

9d00fe80 <Blab12>:
9d00fe80:	25080080 	addiu	t0,t0,128
9d00fe84:	2d0d0080 	sltiu	t5,t0,128
9d00fe88:	012d4821 	addu	t1,t1,t5
9d00fe8c:	00086a02 	srl	t5,t0,0x8
9d00fe90:	31ad0001 	andi	t5,t5,0x1
9d00fe94:	010d4023 	subu	t0,t0,t5
9d00fe98:	00084040 	sll	t0,t0,0x1
9d00fe9c:	00084242 	srl	t0,t0,0x9
9d00fea0:	00096dc0 	sll	t5,t1,0x17
9d00fea4:	010d4025 	or	t0,t0,t5
9d00fea8:	010c1025 	or	v0,t0,t4

9d00feac <B999>:
9d00feac:	03e00008 	jr	ra
9d00feb0:	00000000 	nop

9d00feb4 <Bund>:
9d00feb4:	24060001 	li	a2,1
9d00feb8:	00c93023 	subu	a2,a2,t1
9d00febc:	2cc10020 	sltiu	at,a2,32
9d00fec0:	10200039 	beqz	at,9d00ffa8 <Bzer>
9d00fec4:	00000000 	nop
9d00fec8:	3c018000 	lui	at,0x8000
9d00fecc:	01014025 	or	t0,t0,at
9d00fed0:	240d0020 	li	t5,32
9d00fed4:	01a66823 	subu	t5,t5,a2
9d00fed8:	01a84804 	sllv	t1,t0,t5
9d00fedc:	11200002 	beqz	t1,9d00fee8 <i10>
9d00fee0:	00c84006 	srlv	t0,t0,a2
9d00fee4:	35080001 	ori	t0,t0,0x1

9d00fee8 <i10>:
9d00fee8:	24090000 	li	t1,0
9d00feec:	250d0080 	addiu	t5,t0,128
9d00fef0:	05a1ffe3 	bgez	t5,9d00fe80 <Blab12>
9d00fef4:	00000000 	nop
9d00fef8:	1000ffe1 	b	9d00fe80 <Blab12>
9d00fefc:	24090001 	li	t1,1

9d00ff00 <BspecA>:
9d00ff00:	1520000e 	bnez	t1,9d00ff3c <i12>
9d00ff04:	00000000 	nop
9d00ff08:	01084021 	addu	t0,t0,t0
9d00ff0c:	11000005 	beqz	t0,9d00ff24 <i13>
9d00ff10:	00000000 	nop
9d00ff14:	710c6020 	clz	t4,t0
9d00ff18:	012c4823 	subu	t1,t1,t4
9d00ff1c:	1000ff98 	b	9d00fd80 <Blab1>
9d00ff20:	01884004 	sllv	t0,t0,t4

9d00ff24 <i13>:
9d00ff24:	240100ff 	li	at,255
9d00ff28:	1161000f 	beq	t3,at,9d00ff68 <BspecB>
9d00ff2c:	00000000 	nop
9d00ff30:	3c018000 	lui	at,0x8000
9d00ff34:	14a10018 	bne	a1,at,9d00ff98 <BretB>
9d00ff38:	00000000 	nop

9d00ff3c <i12>:
9d00ff3c:	01086821 	addu	t5,t0,t0
9d00ff40:	15a0001b 	bnez	t5,9d00ffb0 <Bnan>
9d00ff44:	00000000 	nop
9d00ff48:	240100ff 	li	at,255
9d00ff4c:	15610014 	bne	t3,at,9d00ffa0 <BretA>
9d00ff50:	00000000 	nop
9d00ff54:	00856826 	xor	t5,a0,a1
9d00ff58:	05a00015 	bltz	t5,9d00ffb0 <Bnan>
9d00ff5c:	00000000 	nop
9d00ff60:	1000000d 	b	9d00ff98 <BretB>
9d00ff64:	00000000 	nop

9d00ff68 <BspecB>:
9d00ff68:	15600008 	bnez	t3,9d00ff8c <i15>
9d00ff6c:	00000000 	nop
9d00ff70:	014a5021 	addu	t2,t2,t2
9d00ff74:	1140000a 	beqz	t2,9d00ffa0 <BretA>
9d00ff78:	00000000 	nop
9d00ff7c:	714c6020 	clz	t4,t2
9d00ff80:	016c5823 	subu	t3,t3,t4
9d00ff84:	1000ff82 	b	9d00fd90 <Blab2>
9d00ff88:	018a5004 	sllv	t2,t2,t4

9d00ff8c <i15>:
9d00ff8c:	014a6821 	addu	t5,t2,t2
9d00ff90:	15a00007 	bnez	t5,9d00ffb0 <Bnan>
9d00ff94:	00000000 	nop

9d00ff98 <BretB>:
9d00ff98:	1000ffc4 	b	9d00feac <B999>
9d00ff9c:	00051025 	or	v0,zero,a1

9d00ffa0 <BretA>:
9d00ffa0:	1000ffc2 	b	9d00feac <B999>
9d00ffa4:	00041025 	or	v0,zero,a0

9d00ffa8 <Bzer>:
9d00ffa8:	1000ffc0 	b	9d00feac <B999>
9d00ffac:	24020000 	li	v0,0

9d00ffb0 <Bnan>:
9d00ffb0:	1000ffbe 	b	9d00feac <B999>
9d00ffb4:	3c02ffc0 	lui	v0,0xffc0
9d00ffb8:	00000000 	nop

Disassembly of section .text.fp32div:

9d00ffbc <__divsf3>:
9d00ffbc:	3c0b8000 000445c2 310800ff 000555c2     ...<.E.....1.U..
9d00ffcc:	314a00ff 00043a00 00eb3825 00054a00     ..J1.:..%8...J..
9d00ffdc:	012b4825 00857026 016e5824 250effff     %H+.&p..$Xn....%
9d00ffec:	2dc100fe 1020003f 00000000              ...-?. .....

9d00fff8 <Dlab1>:
9d00fff8:	254effff 	addiu	t6,t2,-1
9d00fffc:	2dc100fe 	sltiu	at,t6,254
9d010000:	10200053 	beqz	at,9d010150 <DspecB>
9d010004:	00000000 	nop

9d010008 <Dlab2>:
9d010008:	00e9082b 	sltu	at,a3,t1
9d01000c:	14200003 	bnez	at,9d01001c <i27>
9d010010:	00000000 	nop
9d010014:	00073842 	srl	a3,a3,0x1
9d010018:	25080001 	addiu	t0,t0,1

9d01001c <i27>:
9d01001c:	00096382 	srl	t4,t1,0xe
9d010020:	018001f4 	teq	t4,zero,0x7
9d010024:	00ec001b 	divu	zero,a3,t4
9d010028:	00002012 	mflo	a0
9d01002c:	00003010 	mfhi	a2
9d010030:	312d3fff 	andi	t5,t1,0x3fff
9d010034:	01a40019 	multu	t5,a0
9d010038:	00002812 	mflo	a1
9d01003c:	00063380 	sll	a2,a2,0xe
9d010040:	00c5702b 	sltu	t6,a2,a1
9d010044:	11c00004 	beqz	t6,9d010058 <i28>
9d010048:	00c53023 	subu	a2,a2,a1
9d01004c:	2484ffff 	addiu	a0,a0,-1
9d010050:	00c93021 	addu	a2,a2,t1
9d010054:	00c9702b 	sltu	t6,a2,t1

9d010058 <i28>:
9d010058:	018001f4 	teq	t4,zero,0x7
9d01005c:	00cc001b 	divu	zero,a2,t4
9d010060:	00003812 	mflo	a3
9d010064:	00003010 	mfhi	a2
9d010068:	01a70019 	multu	t5,a3
9d01006c:	00002812 	mflo	a1
9d010070:	00063380 	sll	a2,a2,0xe
9d010074:	00c5702b 	sltu	t6,a2,a1
9d010078:	11c00004 	beqz	t6,9d01008c <i29>
9d01007c:	00c53023 	subu	a2,a2,a1
9d010080:	24e7ffff 	addiu	a3,a3,-1
9d010084:	00c93021 	addu	a2,a2,t1
9d010088:	00c9702b 	sltu	t6,a2,t1

9d01008c <i29>:
9d01008c:	00047380 	sll	t6,a0,0xe
9d010090:	00ee3821 	addu	a3,a3,t6
9d010094:	10c00002 	beqz	a2,9d0100a0 <i30>
9d010098:	00073900 	sll	a3,a3,0x4
9d01009c:	34e70001 	ori	a3,a3,0x1

9d0100a0 <i30>:
9d0100a0:	240e007e 	li	t6,126
9d0100a4:	01ca7023 	subu	t6,t6,t2
9d0100a8:	010e4021 	addu	t0,t0,t6
9d0100ac:	250effff 	addiu	t6,t0,-1
9d0100b0:	2dc100fe 	sltiu	at,t6,254
9d0100b4:	10200034 	beqz	at,9d010188 <Doveund>
9d0100b8:	00000000 	nop

9d0100bc <Dlab8>:
9d0100bc:	24e70080 	addiu	a3,a3,128
9d0100c0:	2cee0080 	sltiu	t6,a3,128
9d0100c4:	010e4021 	addu	t0,t0,t6
9d0100c8:	00077202 	srl	t6,a3,0x8
9d0100cc:	31ce0001 	andi	t6,t6,0x1
9d0100d0:	00ee3823 	subu	a3,a3,t6
9d0100d4:	00073840 	sll	a3,a3,0x1
9d0100d8:	00073a42 	srl	a3,a3,0x9
9d0100dc:	000875c0 	sll	t6,t0,0x17
9d0100e0:	00ee3825 	or	a3,a3,t6
9d0100e4:	00eb1025 	or	v0,a3,t3

9d0100e8 <D999>:
9d0100e8:	03e00008 	jr	ra
9d0100ec:	00000000 	nop

9d0100f0 <DspecA>:
9d0100f0:	15000008 	bnez	t0,9d010114 <i31>
9d0100f4:	00000000 	nop
9d0100f8:	00e73821 	addu	a3,a3,a3
9d0100fc:	10e00005 	beqz	a3,9d010114 <i31>
9d010100:	00000000 	nop
9d010104:	70ec6020 	clz	t4,a3
9d010108:	010c4023 	subu	t0,t0,t4
9d01010c:	1000ffba 	b	9d00fff8 <Dlab1>
9d010110:	01873804 	sllv	a3,a3,t4

9d010114 <i31>:
9d010114:	15480004 	bne	t2,t0,9d010128 <i33>
9d010118:	00000000 	nop
9d01011c:	01297021 	addu	t6,t1,t1
9d010120:	11c0002f 	beqz	t6,9d0101e0 <Dnan>
9d010124:	00000000 	nop

9d010128 <i33>:
9d010128:	240100ff 	li	at,255
9d01012c:	11410008 	beq	t2,at,9d010150 <DspecB>
9d010130:	00000000 	nop
9d010134:	11000012 	beqz	t0,9d010180 <Dzer>
9d010138:	00000000 	nop
9d01013c:	00e77021 	addu	t6,a3,a3
9d010140:	15c00027 	bnez	t6,9d0101e0 <Dnan>
9d010144:	00000000 	nop
9d010148:	10000022 	b	9d0101d4 <Dinf>
9d01014c:	00000000 	nop

9d010150 <DspecB>:
9d010150:	15400008 	bnez	t2,9d010174 <i34>
9d010154:	00000000 	nop
9d010158:	01294821 	addu	t1,t1,t1
9d01015c:	1120001d 	beqz	t1,9d0101d4 <Dinf>
9d010160:	00000000 	nop
9d010164:	712c6020 	clz	t4,t1
9d010168:	014c5023 	subu	t2,t2,t4
9d01016c:	1000ffa6 	b	9d010008 <Dlab2>
9d010170:	01894804 	sllv	t1,t1,t4

9d010174 <i34>:
9d010174:	01297021 	addu	t6,t1,t1
9d010178:	15c00019 	bnez	t6,9d0101e0 <Dnan>
9d01017c:	00000000 	nop

9d010180 <Dzer>:
9d010180:	1000ffd9 	b	9d0100e8 <D999>
9d010184:	000b1025 	or	v0,zero,t3

9d010188 <Doveund>:
9d010188:	1d000012 	bgtz	t0,9d0101d4 <Dinf>
9d01018c:	00000000 	nop
9d010190:	240c0001 	li	t4,1
9d010194:	01886023 	subu	t4,t4,t0
9d010198:	2d810020 	sltiu	at,t4,32
9d01019c:	1020fff8 	beqz	at,9d010180 <Dzer>
9d0101a0:	00000000 	nop
9d0101a4:	240e0020 	li	t6,32
9d0101a8:	01cc7023 	subu	t6,t6,t4
9d0101ac:	01c74004 	sllv	t0,a3,t6
9d0101b0:	11000002 	beqz	t0,9d0101bc <i37>
9d0101b4:	01873806 	srlv	a3,a3,t4
9d0101b8:	34e70002 	ori	a3,a3,0x2

9d0101bc <i37>:
9d0101bc:	24080000 	li	t0,0
9d0101c0:	24ee0080 	addiu	t6,a3,128
9d0101c4:	05c1ffbd 	bgez	t6,9d0100bc <Dlab8>
9d0101c8:	00000000 	nop
9d0101cc:	1000ffbb 	b	9d0100bc <Dlab8>
9d0101d0:	24080001 	li	t0,1

9d0101d4 <Dinf>:
9d0101d4:	3c017f80 	lui	at,0x7f80
9d0101d8:	1000ffc3 	b	9d0100e8 <D999>
9d0101dc:	01611025 	or	v0,t3,at

9d0101e0 <Dnan>:
9d0101e0:	1000ffc1 	b	9d0100e8 <D999>
9d0101e4:	3c02ffc0 	lui	v0,0xffc0
9d0101e8:	00000000 	nop

Disassembly of section .text:

9d0101ec <NU32DIP_Startup>:
#include "nu32dip.h"

void NU32DIP_Startup() {
9d0101ec:	27bdfff8 	addiu	sp,sp,-8
9d0101f0:	afbf0004 	sw	ra,4(sp)
    __builtin_disable_interrupts(); // disable interrupts while initializing things
9d0101f4:	41626000 	di	v0
9d0101f8:	000000c0 	ehb

    // set the CP0 CONFIG register to indicate that kseg0 is cacheable (0x3)
    __builtin_mtc0(_CP0_CONFIG, _CP0_CONFIG_SELECT, 0xa4210583);
9d0101fc:	3c02a421 	lui	v0,0xa421
9d010200:	24420583 	addiu	v0,v0,1411
9d010204:	40828000 	mtc0	v0,c0_config
9d010208:	000000c0 	ehb

    // 0 data RAM access wait states
    BMXCONbits.BMXWSDRM = 0x0;
9d01020c:	3c02bf88 	lui	v0,0xbf88
9d010210:	8c432000 	lw	v1,8192(v0)
9d010214:	7c033184 	ins	v1,zero,0x6,0x1
9d010218:	ac432000 	sw	v1,8192(v0)

    // enable multi vector interrupts
    INTCONbits.MVEC = 0x1;
9d01021c:	3c02bf88 	lui	v0,0xbf88
9d010220:	8c441000 	lw	a0,4096(v0)
9d010224:	24030001 	li	v1,1
9d010228:	7c646304 	ins	a0,v1,0xc,0x1
9d01022c:	ac441000 	sw	a0,4096(v0)

    // disable JTAG to get pins back
    DDPCONbits.JTAGEN = 0;
9d010230:	3c02bf81 	lui	v0,0xbf81
9d010234:	9444f200 	lhu	a0,-3584(v0)
9d010238:	7c0418c4 	ins	a0,zero,0x3,0x1
9d01023c:	a444f200 	sh	a0,-3584(v0)

    // do your TRIS and LAT commands here
    TRISBCLR = 0b110000; // B4 and B5 LEDs
9d010240:	3c02bf88 	lui	v0,0xbf88
9d010244:	24040030 	li	a0,48
9d010248:	ac446114 	sw	a0,24852(v0)
    TRISASET = 0b010000; // A4 user button
9d01024c:	3c02bf88 	lui	v0,0xbf88
9d010250:	24040010 	li	a0,16
9d010254:	ac446018 	sw	a0,24600(v0)
    //NU32_LED1 = 1; // LED1 is off
    NU32DIP_YELLOW = 1;
9d010258:	3c02bf88 	lui	v0,0xbf88
9d01025c:	94446130 	lhu	a0,24880(v0)
9d010260:	7c642944 	ins	a0,v1,0x5,0x1
9d010264:	a4446130 	sh	a0,24880(v0)
    //NU32_LED2 = 0; // LED2 is on
    NU32DIP_GREEN = 0;
9d010268:	94446130 	lhu	a0,24880(v0)
9d01026c:	7c042104 	ins	a0,zero,0x4,0x1
9d010270:	a4446130 	sh	a0,24880(v0)

    //UART1 pins
    U1RXRbits.U1RXR = 0b0000; // Set A2 to U1RX
9d010274:	3c02bf81 	lui	v0,0xbf81
9d010278:	9044fa50 	lbu	a0,-1456(v0)
9d01027c:	7c041804 	ins	a0,zero,0x0,0x4
9d010280:	a044fa50 	sb	a0,-1456(v0)
    RPB3Rbits.RPB3R = 0b0001; // Set B3 to U1TX
9d010284:	3c02bf81 	lui	v0,0xbf81
9d010288:	9044fb38 	lbu	a0,-1224(v0)
9d01028c:	7c641804 	ins	a0,v1,0x0,0x4
9d010290:	a044fb38 	sb	a0,-1224(v0)

    // turn on UART1 without an interrupt
    U1MODEbits.BRGH = 0; // set baud to NU32_DESIRED_BAUD
9d010294:	3c02bf80 	lui	v0,0xbf80
9d010298:	94446000 	lhu	a0,24576(v0)
9d01029c:	7c0418c4 	ins	a0,zero,0x3,0x1
9d0102a0:	a4446000 	sh	a0,24576(v0)
    U1BRG = ((NU32DIP_SYS_FREQ / NU32DIP_DESIRED_BAUD) / 16) - 1;
9d0102a4:	3c04bf80 	lui	a0,0xbf80
9d0102a8:	2405000c 	li	a1,12
9d0102ac:	ac856040 	sw	a1,24640(a0)

    // 8 bit, no parity bit, and 1 stop bit (8N1 setup)
    U1MODEbits.PDSEL = 0;
9d0102b0:	94446000 	lhu	a0,24576(v0)
9d0102b4:	7c041044 	ins	a0,zero,0x1,0x2
9d0102b8:	a4446000 	sh	a0,24576(v0)
    U1MODEbits.STSEL = 0;
9d0102bc:	94446000 	lhu	a0,24576(v0)
9d0102c0:	7c040004 	ins	a0,zero,0x0,0x1
9d0102c4:	a4446000 	sh	a0,24576(v0)

    // configure TX & RX pins as output & input pins
    U1STAbits.UTXEN = 1;
9d0102c8:	3c04bf80 	lui	a0,0xbf80
9d0102cc:	8c856010 	lw	a1,24592(a0)
9d0102d0:	7c655284 	ins	a1,v1,0xa,0x1
9d0102d4:	ac856010 	sw	a1,24592(a0)
    U1STAbits.URXEN = 1;
9d0102d8:	8c856010 	lw	a1,24592(a0)
9d0102dc:	7c656304 	ins	a1,v1,0xc,0x1
9d0102e0:	ac856010 	sw	a1,24592(a0)
    // configure without hardware flow control
    U1MODEbits.UEN = 0;
9d0102e4:	94446000 	lhu	a0,24576(v0)
9d0102e8:	7c044a04 	ins	a0,zero,0x8,0x2
9d0102ec:	a4446000 	sh	a0,24576(v0)

    // enable the uart
    U1MODEbits.ON = 1;
9d0102f0:	94446000 	lhu	a0,24576(v0)
9d0102f4:	7c647bc4 	ins	a0,v1,0xf,0x1
9d0102f8:	a4446000 	sh	a0,24576(v0)

    __builtin_enable_interrupts();
9d0102fc:	41626020 	ei	v0
}
9d010300:	8fbf0004 	lw	ra,4(sp)
9d010304:	03e00008 	jr	ra
9d010308:	27bd0008 	addiu	sp,sp,8

9d01030c <NU32DIP_ReadUART1>:
// block other functions until you get a '\r' or '\n'
// send the pointer to your char array and the number of elements in the array

void NU32DIP_ReadUART1(char * message, int maxLength) {
    char data = 0;
    int complete = 0, num_bytes = 0;
9d01030c:	00001025 	move	v0,zero
    // loop until you get a '\r' or '\n'
    while (!complete) {
        if (U1STAbits.URXDA) { // if data is available
9d010310:	3c0abf80 	lui	t2,0xbf80
            data = U1RXREG; // read the data
9d010314:	3c09bf80 	lui	t1,0xbf80
            if ((data == '\n') || (data == '\r')) {
9d010318:	2408000a 	li	t0,10
9d01031c:	2407000d 	li	a3,13
        if (U1STAbits.URXDA) { // if data is available
9d010320:	8d436010 	lw	v1,24592(t2)
9d010324:	30630001 	andi	v1,v1,0x1
9d010328:	1060fffd 	beqz	v1,9d010320 <NU32DIP_ReadUART1+0x14>
9d01032c:	00000000 	nop
            data = U1RXREG; // read the data
9d010330:	8d236030 	lw	v1,24624(t1)
9d010334:	7c031c20 	seb	v1,v1
            if ((data == '\n') || (data == '\r')) {
9d010338:	5068000b 	beql	v1,t0,9d010368 <NU32DIP_ReadUART1+0x5c>
9d01033c:	00822021 	addu	a0,a0,v0
9d010340:	10670008 	beq	v1,a3,9d010364 <NU32DIP_ReadUART1+0x58>
9d010344:	24460001 	addiu	a2,v0,1
                complete = 1;
            } else {
                message[num_bytes] = data;
                ++num_bytes;
                // roll over if the array is too small
                if (num_bytes >= maxLength) {
9d010348:	00c5302a 	slt	a2,a2,a1
                    num_bytes = 0;
9d01034c:	244b0001 	addiu	t3,v0,1
                message[num_bytes] = data;
9d010350:	00821021 	addu	v0,a0,v0
9d010354:	a0430000 	sb	v1,0(v0)
9d010358:	01601025 	move	v0,t3
9d01035c:	1000fff0 	b	9d010320 <NU32DIP_ReadUART1+0x14>
9d010360:	0006100a 	movz	v0,zero,a2
                }
            }
        }
    }
    // end the string
    message[num_bytes] = '\0';
9d010364:	00822021 	addu	a0,a0,v0
}
9d010368:	03e00008 	jr	ra
9d01036c:	a0800000 	sb	zero,0(a0)

9d010370 <NU32DIP_WriteUART1>:

// Write a character array using UART1

void NU32DIP_WriteUART1(const char * string) {
    while (*string != '\0') {
9d010370:	80820000 	lb	v0,0(a0)
9d010374:	1040000b 	beqz	v0,9d0103a4 <NU32DIP_WriteUART1+0x34>
9d010378:	3c06bf80 	lui	a2,0xbf80
        while (U1STAbits.UTXBF) {
            ; // wait until tx buffer isn't full
        }
        U1TXREG = *string;
9d01037c:	3c05bf80 	lui	a1,0xbf80
        while (U1STAbits.UTXBF) {
9d010380:	8cc36010 	lw	v1,24592(a2)
9d010384:	7c630240 	ext	v1,v1,0x9,0x1
9d010388:	1460fffd 	bnez	v1,9d010380 <NU32DIP_WriteUART1+0x10>
9d01038c:	00000000 	nop
        U1TXREG = *string;
9d010390:	aca26020 	sw	v0,24608(a1)
        ++string;
9d010394:	24840001 	addiu	a0,a0,1
    while (*string != '\0') {
9d010398:	80820000 	lb	v0,0(a0)
9d01039c:	1440fff8 	bnez	v0,9d010380 <NU32DIP_WriteUART1+0x10>
9d0103a0:	00000000 	nop
    }
}
9d0103a4:	03e00008 	jr	ra
9d0103a8:	00000000 	nop

Disassembly of section .text.fp32mul:

9d0103ac <__mulsf3>:
9d0103ac:	00043dc2 30e700ff 00054dc2 312900ff     .=.....0.M....)1
9d0103bc:	3c0a8000 00043200 00ca3025 00054200     ...<.2..%0...B..
9d0103cc:	010a4025 00856026 014c5024 24ecffff     %@..&`..$PL....$
9d0103dc:	2d8100fe 10200021 00000000              ...-!. .....

9d0103e8 <Clab1>:
9d0103e8:	252cffff 	addiu	t4,t1,-1
9d0103ec:	2d8100fe 	sltiu	at,t4,254
9d0103f0:	10200036 	beqz	at,9d0104cc <CspecB>
9d0103f4:	00000000 	nop

9d0103f8 <Clab2>:
9d0103f8:	00c80019 	multu	a2,t0
9d0103fc:	00005812 	mflo	t3
9d010400:	11600002 	beqz	t3,9d01040c <i17>
9d010404:	00003010 	mfhi	a2
9d010408:	34c60001 	ori	a2,a2,0x1

9d01040c <i17>:
9d01040c:	04c00003 	bltz	a2,9d01041c <i18>
9d010410:	00000000 	nop
9d010414:	00063040 	sll	a2,a2,0x1
9d010418:	24e7ffff 	addiu	a3,a3,-1

9d01041c <i18>:
9d01041c:	252cff82 	addiu	t4,t1,-126
9d010420:	00ec3821 	addu	a3,a3,t4
9d010424:	24ecffff 	addiu	t4,a3,-1
9d010428:	2d8100fe 	sltiu	at,t4,254
9d01042c:	1020003a 	beqz	at,9d010518 <Coveund>
9d010430:	00000000 	nop

9d010434 <Clab8>:
9d010434:	24c60080 	addiu	a2,a2,128
9d010438:	2ccc0080 	sltiu	t4,a2,128
9d01043c:	00ec3821 	addu	a3,a3,t4
9d010440:	00066202 	srl	t4,a2,0x8
9d010444:	318c0001 	andi	t4,t4,0x1
9d010448:	00cc3023 	subu	a2,a2,t4
9d01044c:	00063040 	sll	a2,a2,0x1
9d010450:	00063242 	srl	a2,a2,0x9
9d010454:	000765c0 	sll	t4,a3,0x17
9d010458:	00cc3025 	or	a2,a2,t4
9d01045c:	00ca1025 	or	v0,a2,t2

9d010460 <C999>:
9d010460:	03e00008 	jr	ra
9d010464:	00000000 	nop

9d010468 <CspecA>:
9d010468:	14e0000d 	bnez	a3,9d0104a0 <i19>
9d01046c:	00000000 	nop
9d010470:	00c63021 	addu	a2,a2,a2
9d010474:	10c00005 	beqz	a2,9d01048c <i20>
9d010478:	00000000 	nop
9d01047c:	70cb5820 	clz	t3,a2
9d010480:	00eb3823 	subu	a3,a3,t3
9d010484:	1000ffd8 	b	9d0103e8 <Clab1>
9d010488:	01663004 	sllv	a2,a2,t3

9d01048c <i20>:
9d01048c:	240100ff 	li	at,255
9d010490:	1121001f 	beq	t1,at,9d010510 <Cnan>
9d010494:	00000000 	nop
9d010498:	10000015 	b	9d0104f0 <Czer>
9d01049c:	00000000 	nop

9d0104a0 <i19>:
9d0104a0:	00c66021 	addu	t4,a2,a2
9d0104a4:	1580001a 	bnez	t4,9d010510 <Cnan>
9d0104a8:	00000000 	nop
9d0104ac:	15200004 	bnez	t1,9d0104c0 <i21>
9d0104b0:	00000000 	nop
9d0104b4:	01086021 	addu	t4,t0,t0
9d0104b8:	11800015 	beqz	t4,9d010510 <Cnan>
9d0104bc:	00000000 	nop

9d0104c0 <i21>:
9d0104c0:	240100ff 	li	at,255
9d0104c4:	1521000f 	bne	t1,at,9d010504 <Cinf>
9d0104c8:	00000000 	nop

9d0104cc <CspecB>:
9d0104cc:	1520000a 	bnez	t1,9d0104f8 <i22>
9d0104d0:	00000000 	nop
9d0104d4:	01084021 	addu	t0,t0,t0
9d0104d8:	11000005 	beqz	t0,9d0104f0 <Czer>
9d0104dc:	00000000 	nop
9d0104e0:	710b5820 	clz	t3,t0
9d0104e4:	012b4823 	subu	t1,t1,t3
9d0104e8:	1000ffc3 	b	9d0103f8 <Clab2>
9d0104ec:	01684004 	sllv	t0,t0,t3

9d0104f0 <Czer>:
9d0104f0:	1000ffdb 	b	9d010460 <C999>
9d0104f4:	000a1025 	or	v0,zero,t2

9d0104f8 <i22>:
9d0104f8:	01086021 	addu	t4,t0,t0
9d0104fc:	15800004 	bnez	t4,9d010510 <Cnan>
9d010500:	00000000 	nop

9d010504 <Cinf>:
9d010504:	3c017f80 	lui	at,0x7f80
9d010508:	1000ffd5 	b	9d010460 <C999>
9d01050c:	01411025 	or	v0,t2,at

9d010510 <Cnan>:
9d010510:	1000ffd3 	b	9d010460 <C999>
9d010514:	3c02ffc0 	lui	v0,0xffc0

9d010518 <Coveund>:
9d010518:	1ce0fffa 	bgtz	a3,9d010504 <Cinf>
9d01051c:	00000000 	nop
9d010520:	240b0001 	li	t3,1
9d010524:	01675823 	subu	t3,t3,a3
9d010528:	2d610020 	sltiu	at,t3,32
9d01052c:	1020fff0 	beqz	at,9d0104f0 <Czer>
9d010530:	00000000 	nop
9d010534:	240c0020 	li	t4,32
9d010538:	018b6023 	subu	t4,t4,t3
9d01053c:	01863804 	sllv	a3,a2,t4
9d010540:	10e00002 	beqz	a3,9d01054c <i25>
9d010544:	01663006 	srlv	a2,a2,t3
9d010548:	34c60002 	ori	a2,a2,0x2

9d01054c <i25>:
9d01054c:	24070000 	li	a3,0
9d010550:	24cc0080 	addiu	t4,a2,128
9d010554:	0581ffb7 	bgez	t4,9d010434 <Clab8>
9d010558:	00000000 	nop
9d01055c:	1000ffb5 	b	9d010434 <Clab8>
9d010560:	24070001 	li	a3,1
9d010564:	00000000 	nop

Disassembly of section .text.free:

9d010568 <free>:
9d010568:	10800063 	beqz	a0,9d0106f8 <free+0x190>
9d01056c:	00000000 	nop
9d010570:	8c82fffc 	lw	v0,-4(a0)
9d010574:	27bdffd0 	addiu	sp,sp,-48
9d010578:	afb2001c 	sw	s2,28(sp)
9d01057c:	00409025 	move	s2,v0
9d010580:	afb00014 	sw	s0,20(sp)
9d010584:	7c120004 	ins	s2,zero,0x0,0x1
9d010588:	2490fff8 	addiu	s0,a0,-8
9d01058c:	afb10018 	sw	s1,24(sp)
9d010590:	02128821 	addu	s1,s0,s2
9d010594:	8e230000 	lw	v1,0(s1)
9d010598:	afbf002c 	sw	ra,44(sp)
9d01059c:	afb50028 	sw	s5,40(sp)
9d0105a0:	afb40024 	sw	s4,36(sp)
9d0105a4:	10430003 	beq	v0,v1,9d0105b4 <free+0x4c>
9d0105a8:	afb30020 	sw	s3,32(sp)
9d0105ac:	a0000000 	sb	zero,0(zero)
9d0105b0:	00000034 	teq	zero,zero
9d0105b4:	8e020000 	lw	v0,0(s0)
9d0105b8:	8e230004 	lw	v1,4(s1)
9d0105bc:	00431024 	and	v0,v0,v1
9d0105c0:	30420001 	andi	v0,v0,0x1
9d0105c4:	1440000e 	bnez	v0,9d010600 <free+0x98>
9d0105c8:	36420001 	ori	v0,s2,0x1
9d0105cc:	0f404d95 	jal	9d013654 <alloc_rev>
9d0105d0:	02002025 	move	a0,s0
9d0105d4:	54400041 	bnezl	v0,9d0106dc <free+0x174>
9d0105d8:	8e030000 	lw	v1,0(s0)
9d0105dc:	0f404e23 	jal	9d01388c <alloc_fwd>
9d0105e0:	02202025 	move	a0,s1
9d0105e4:	5040fff4 	beqzl	v0,9d0105b8 <free+0x50>
9d0105e8:	8e020000 	lw	v0,0(s0)
9d0105ec:	8e220004 	lw	v0,4(s1)
9d0105f0:	7c020004 	ins	v0,zero,0x0,0x1
9d0105f4:	02429021 	addu	s2,s2,v0
9d0105f8:	1000ffee 	b	9d0105b4 <free+0x4c>
9d0105fc:	02228821 	addu	s1,s1,v0
9d010600:	ae020004 	sw	v0,4(s0)
9d010604:	02402025 	move	a0,s2
9d010608:	0f404e8d 	jal	9d013a34 <bin_index>
9d01060c:	ae220000 	sw	v0,0(s1)
9d010610:	00402025 	move	a0,v0
9d010614:	0f4050f1 	jal	9d0143c4 <lock_bin>
9d010618:	00409825 	move	s3,v0
9d01061c:	8e020000 	lw	v0,0(s0)
9d010620:	8e230004 	lw	v1,4(s1)
9d010624:	00431024 	and	v0,v0,v1
9d010628:	30420001 	andi	v0,v0,0x1
9d01062c:	1040ffe7 	beqz	v0,9d0105cc <free+0x64>
9d010630:	3c15a000 	lui	s5,0xa000
9d010634:	8ea45138 	lw	a0,20792(s5)
9d010638:	8ea5513c 	lw	a1,20796(s5)
9d01063c:	02603025 	move	a2,s3
9d010640:	0f4050c5 	jal	9d014314 <__lshrdi3>
9d010644:	26b45138 	addiu	s4,s5,20792
9d010648:	30420001 	andi	v0,v0,0x1
9d01064c:	1440000e 	bnez	v0,9d010688 <free+0x120>
9d010650:	00002825 	move	a1,zero
9d010654:	02603025 	move	a2,s3
9d010658:	0f4050d4 	jal	9d014350 <__ashldi3>
9d01065c:	24040001 	li	a0,1
9d010660:	10400004 	beqz	v0,9d010674 <free+0x10c>
9d010664:	00602825 	move	a1,v1
9d010668:	8ea45138 	lw	a0,20792(s5)
9d01066c:	00822025 	or	a0,a0,v0
9d010670:	aea45138 	sw	a0,20792(s5)
9d010674:	50a00005 	beqzl	a1,9d01068c <free+0x124>
9d010678:	26730001 	addiu	s3,s3,1
9d01067c:	8e820004 	lw	v0,4(s4)
9d010680:	00431025 	or	v0,v0,v1
9d010684:	ae820004 	sw	v0,4(s4)
9d010688:	26730001 	addiu	s3,s3,1
9d01068c:	001398c0 	sll	s3,s3,0x3
9d010690:	02939821 	addu	s3,s4,s3
9d010694:	2662fff8 	addiu	v0,s3,-8
9d010698:	ae120004 	sw	s2,4(s0)
9d01069c:	ae320000 	sw	s2,0(s1)
9d0106a0:	ae020008 	sw	v0,8(s0)
9d0106a4:	8e620004 	lw	v0,4(s3)
9d0106a8:	8fbf002c 	lw	ra,44(sp)
9d0106ac:	8fb50028 	lw	s5,40(sp)
9d0106b0:	ae02000c 	sw	v0,12(s0)
9d0106b4:	ae700004 	sw	s0,4(s3)
9d0106b8:	8e02000c 	lw	v0,12(s0)
9d0106bc:	8fb40024 	lw	s4,36(sp)
9d0106c0:	8fb30020 	lw	s3,32(sp)
9d0106c4:	ac500008 	sw	s0,8(v0)
9d0106c8:	8fb2001c 	lw	s2,28(sp)
9d0106cc:	8fb10018 	lw	s1,24(sp)
9d0106d0:	8fb00014 	lw	s0,20(sp)
9d0106d4:	03e00008 	jr	ra
9d0106d8:	27bd0030 	addiu	sp,sp,48
9d0106dc:	2402fffe 	li	v0,-2
9d0106e0:	00431824 	and	v1,v0,v1
9d0106e4:	02038023 	subu	s0,s0,v1
9d0106e8:	8e030004 	lw	v1,4(s0)
9d0106ec:	00431024 	and	v0,v0,v1
9d0106f0:	1000ffba 	b	9d0105dc <free+0x74>
9d0106f4:	02429021 	addu	s2,s2,v0
9d0106f8:	03e00008 	jr	ra
9d0106fc:	00000000 	nop

Disassembly of section .text.__pop_int:

9d010700 <__pop_int>:
9d010700:	24020088 	li	v0,136
9d010704:	10a2003f 	beq	a1,v0,9d010804 <__pop_int+0x104>
9d010708:	28a20089 	slti	v0,a1,137
9d01070c:	1040001a 	beqz	v0,9d010778 <__pop_int+0x78>
9d010710:	24020081 	li	v0,129
9d010714:	10a20054 	beq	a1,v0,9d010868 <__pop_int+0x168>
9d010718:	28a20082 	slti	v0,a1,130
9d01071c:	10400005 	beqz	v0,9d010734 <__pop_int+0x34>
9d010720:	24020080 	li	v0,128
9d010724:	50a20051 	beql	a1,v0,9d01086c <__pop_int+0x16c>
9d010728:	8ce20000 	lw	v0,0(a3)
9d01072c:	03e00008 	jr	ra
9d010730:	00001025 	move	v0,zero
9d010734:	24020082 	li	v0,130
9d010738:	50a2003b 	beql	a1,v0,9d010828 <__pop_int+0x128>
9d01073c:	8ce20000 	lw	v0,0(a3)
9d010740:	24020084 	li	v0,132
9d010744:	14a2fff9 	bne	a1,v0,9d01072c <__pop_int+0x2c>
9d010748:	00000000 	nop
9d01074c:	8ce20000 	lw	v0,0(a3)
9d010750:	24430004 	addiu	v1,v0,4
9d010754:	8c420000 	lw	v0,0(v0)
9d010758:	10c00027 	beqz	a2,9d0107f8 <__pop_int+0xf8>
9d01075c:	ace30000 	sw	v1,0(a3)
9d010760:	7c021620 	seh	v0,v0
9d010764:	ac820000 	sw	v0,0(a0)
9d010768:	000217c3 	sra	v0,v0,0x1f
9d01076c:	ac820004 	sw	v0,4(a0)
9d010770:	03e00008 	jr	ra
9d010774:	24020001 	li	v0,1
9d010778:	240200a0 	li	v0,160
9d01077c:	50a20036 	beql	a1,v0,9d010858 <__pop_int+0x158>
9d010780:	8ce20000 	lw	v0,0(a3)
9d010784:	28a200a1 	slti	v0,a1,161
9d010788:	10400010 	beqz	v0,9d0107cc <__pop_int+0xcc>
9d01078c:	24020090 	li	v0,144
9d010790:	14a2ffe6 	bne	a1,v0,9d01072c <__pop_int+0x2c>
9d010794:	00000000 	nop
9d010798:	8ce20000 	lw	v0,0(a3)
9d01079c:	24420007 	addiu	v0,v0,7
9d0107a0:	7c021004 	ins	v0,zero,0x0,0x3
9d0107a4:	8c480000 	lw	t0,0(v0)
9d0107a8:	8c490004 	lw	t1,4(v0)
9d0107ac:	24420008 	addiu	v0,v0,8
9d0107b0:	ace20000 	sw	v0,0(a3)
9d0107b4:	ac880000 	sw	t0,0(a0)
9d0107b8:	ac890004 	sw	t1,4(a0)
9d0107bc:	10c00001 	beqz	a2,9d0107c4 <__pop_int+0xc4>
9d0107c0:	24020001 	li	v0,1
9d0107c4:	03e00008 	jr	ra
9d0107c8:	00000000 	nop
9d0107cc:	240200c0 	li	v0,192
9d0107d0:	50a20005 	beql	a1,v0,9d0107e8 <__pop_int+0xe8>
9d0107d4:	8ce20000 	lw	v0,0(a3)
9d0107d8:	240200f0 	li	v0,240
9d0107dc:	14a2ffd3 	bne	a1,v0,9d01072c <__pop_int+0x2c>
9d0107e0:	00000000 	nop
9d0107e4:	8ce20000 	lw	v0,0(a3)
9d0107e8:	24430004 	addiu	v1,v0,4
9d0107ec:	ace30000 	sw	v1,0(a3)
9d0107f0:	10000002 	b	9d0107fc <__pop_int+0xfc>
9d0107f4:	8c420000 	lw	v0,0(v0)
9d0107f8:	3042ffff 	andi	v0,v0,0xffff
9d0107fc:	10000020 	b	9d010880 <__pop_int+0x180>
9d010800:	ac820000 	sw	v0,0(a0)
9d010804:	8ce20000 	lw	v0,0(a3)
9d010808:	24430004 	addiu	v1,v0,4
9d01080c:	8c420000 	lw	v0,0(v0)
9d010810:	10c00003 	beqz	a2,9d010820 <__pop_int+0x120>
9d010814:	ace30000 	sw	v1,0(a3)
9d010818:	1000ffd2 	b	9d010764 <__pop_int+0x64>
9d01081c:	7c021420 	seb	v0,v0
9d010820:	1000fff6 	b	9d0107fc <__pop_int+0xfc>
9d010824:	304200ff 	andi	v0,v0,0xff
9d010828:	24420007 	addiu	v0,v0,7
9d01082c:	7c021004 	ins	v0,zero,0x0,0x3
9d010830:	8c480000 	lw	t0,0(v0)
9d010834:	8c490004 	lw	t1,4(v0)
9d010838:	24420008 	addiu	v0,v0,8
9d01083c:	ace20000 	sw	v0,0(a3)
9d010840:	ac880000 	sw	t0,0(a0)
9d010844:	ac890004 	sw	t1,4(a0)
9d010848:	10c0ffde 	beqz	a2,9d0107c4 <__pop_int+0xc4>
9d01084c:	24020001 	li	v0,1
9d010850:	03e00008 	jr	ra
9d010854:	00000000 	nop
9d010858:	24430004 	addiu	v1,v0,4
9d01085c:	ace30000 	sw	v1,0(a3)
9d010860:	1000ffc0 	b	9d010764 <__pop_int+0x64>
9d010864:	8c420000 	lw	v0,0(v0)
9d010868:	8ce20000 	lw	v0,0(a3)
9d01086c:	24430004 	addiu	v1,v0,4
9d010870:	ace30000 	sw	v1,0(a3)
9d010874:	8c420000 	lw	v0,0(v0)
9d010878:	14c0ffbb 	bnez	a2,9d010768 <__pop_int+0x68>
9d01087c:	ac820000 	sw	v0,0(a0)
9d010880:	1000ffbb 	b	9d010770 <__pop_int+0x70>
9d010884:	ac800004 	sw	zero,4(a0)

Disassembly of section .text:

9d010888 <i2c_master_setup>:
// I2C Master utilities, 400 kHz, using polling rather than interrupts
// The functions must be callled in the correct order as per the I2C protocol
// Master will use I2C1 (SET PINS) SDA1 (D9) and SCL1 (D10)

void i2c_master_setup(void) {
  I2C1BRG = 53; //53 for 400kHz    // I2CBRG = [1/(2*Fsck) - PGD]*Pblck - 2 
9d010888:	3c02bf80 	lui	v0,0xbf80
9d01088c:	24030035 	li	v1,53
9d010890:	ac435040 	sw	v1,20544(v0)
                                    // Fsck is the SCL freq, PGD = 104 ns
  I2C1CONbits.ON = 1;               // turn on the I2C1 module
9d010894:	3c02bf80 	lui	v0,0xbf80
9d010898:	94435000 	lhu	v1,20480(v0)
9d01089c:	24040001 	li	a0,1
9d0108a0:	7c837bc4 	ins	v1,a0,0xf,0x1
9d0108a4:	a4435000 	sh	v1,20480(v0)
}
9d0108a8:	03e00008 	jr	ra
9d0108ac:	00000000 	nop

9d0108b0 <i2c_master_start>:

// Start a transmission on the I2C bus
void i2c_master_start(void) {
    I2C1CONbits.SEN = 1;            // send the start bit
9d0108b0:	3c02bf80 	lui	v0,0xbf80
9d0108b4:	94435000 	lhu	v1,20480(v0)
9d0108b8:	24040001 	li	a0,1
9d0108bc:	7c830004 	ins	v1,a0,0x0,0x1
9d0108c0:	a4435000 	sh	v1,20480(v0)
    while(I2C1CONbits.SEN) { ; }    // wait for the start bit to be sent
9d0108c4:	00401825 	move	v1,v0
9d0108c8:	8c625000 	lw	v0,20480(v1)
9d0108cc:	30420001 	andi	v0,v0,0x1
9d0108d0:	1440fffd 	bnez	v0,9d0108c8 <i2c_master_start+0x18>
9d0108d4:	00000000 	nop
}
9d0108d8:	03e00008 	jr	ra
9d0108dc:	00000000 	nop

9d0108e0 <i2c_master_restart>:

void i2c_master_restart(void) {     
    I2C1CONbits.RSEN = 1;           // send a restart 
9d0108e0:	3c02bf80 	lui	v0,0xbf80
9d0108e4:	94435000 	lhu	v1,20480(v0)
9d0108e8:	24040001 	li	a0,1
9d0108ec:	7c830844 	ins	v1,a0,0x1,0x1
9d0108f0:	a4435000 	sh	v1,20480(v0)
    while(I2C1CONbits.RSEN) { ; }   // wait for the restart to clear
9d0108f4:	00401825 	move	v1,v0
9d0108f8:	8c625000 	lw	v0,20480(v1)
9d0108fc:	7c420040 	ext	v0,v0,0x1,0x1
9d010900:	1440fffd 	bnez	v0,9d0108f8 <i2c_master_restart+0x18>
9d010904:	00000000 	nop
}
9d010908:	03e00008 	jr	ra
9d01090c:	00000000 	nop

9d010910 <i2c_master_send>:

void i2c_master_send(unsigned char byte) { // send a byte to slave
  I2C1TRN = byte;                   // if an address, bit 0 = 0 for write, 1 for read
9d010910:	3c02bf80 	lui	v0,0xbf80
9d010914:	ac445050 	sw	a0,20560(v0)
  while(I2C1STATbits.TRSTAT) { ; }  // wait for the transmission to finish
9d010918:	3c03bf80 	lui	v1,0xbf80
9d01091c:	8c625010 	lw	v0,20496(v1)
9d010920:	7c420380 	ext	v0,v0,0xe,0x1
9d010924:	1440fffd 	bnez	v0,9d01091c <i2c_master_send+0xc>
9d010928:	3c02bf80 	lui	v0,0xbf80
  if(I2C1STATbits.ACKSTAT) {        // if this is high, slave has not acknowledged
9d01092c:	8c425010 	lw	v0,20496(v0)
9d010930:	7c4203c0 	ext	v0,v0,0xf,0x1
9d010934:	10400008 	beqz	v0,9d010958 <i2c_master_send+0x48>
9d010938:	3c049d00 	lui	a0,0x9d00
void i2c_master_send(unsigned char byte) { // send a byte to slave
9d01093c:	27bdffe8 	addiu	sp,sp,-24
9d010940:	afbf0014 	sw	ra,20(sp)
    NU32DIP_WriteUART1("I2C2 Master: failed to receive ACK\r\n");
9d010944:	0f4040dc 	jal	9d010370 <NU32DIP_WriteUART1>
9d010948:	2484749c 	addiu	a0,a0,29852
  }
}
9d01094c:	8fbf0014 	lw	ra,20(sp)
9d010950:	03e00008 	jr	ra
9d010954:	27bd0018 	addiu	sp,sp,24
9d010958:	03e00008 	jr	ra
9d01095c:	00000000 	nop

9d010960 <i2c_master_recv>:

unsigned char i2c_master_recv(void) { // receive a byte from the slave
    I2C1CONbits.RCEN = 1;             // start receiving data
9d010960:	3c02bf80 	lui	v0,0xbf80
9d010964:	94435000 	lhu	v1,20480(v0)
9d010968:	24040001 	li	a0,1
9d01096c:	7c8318c4 	ins	v1,a0,0x3,0x1
9d010970:	a4435000 	sh	v1,20480(v0)
    while(!I2C1STATbits.RBF) { ; }    // wait to receive the data
9d010974:	3c03bf80 	lui	v1,0xbf80
9d010978:	8c625010 	lw	v0,20496(v1)
9d01097c:	7c420040 	ext	v0,v0,0x1,0x1
9d010980:	1040fffd 	beqz	v0,9d010978 <i2c_master_recv+0x18>
9d010984:	3c02bf80 	lui	v0,0xbf80
    return I2C1RCV;                   // read and return the data
9d010988:	8c425060 	lw	v0,20576(v0)
}
9d01098c:	03e00008 	jr	ra
9d010990:	304200ff 	andi	v0,v0,0xff

9d010994 <i2c_master_ack>:

void i2c_master_ack(int val) {        // sends ACK = 0 (slave should send another byte)
                                      // or NACK = 1 (no more bytes requested from slave)
    I2C1CONbits.ACKDT = val;          // store ACK/NACK in ACKDT
9d010994:	3c02bf80 	lui	v0,0xbf80
9d010998:	94435000 	lhu	v1,20480(v0)
9d01099c:	7c832944 	ins	v1,a0,0x5,0x1
9d0109a0:	a4435000 	sh	v1,20480(v0)
    I2C1CONbits.ACKEN = 1;            // send ACKDT
9d0109a4:	94435000 	lhu	v1,20480(v0)
9d0109a8:	24040001 	li	a0,1
9d0109ac:	7c832104 	ins	v1,a0,0x4,0x1
9d0109b0:	a4435000 	sh	v1,20480(v0)
    while(I2C1CONbits.ACKEN) { ; }    // wait for ACK/NACK to be sent
9d0109b4:	00401825 	move	v1,v0
9d0109b8:	8c625000 	lw	v0,20480(v1)
9d0109bc:	7c420100 	ext	v0,v0,0x4,0x1
9d0109c0:	1440fffd 	bnez	v0,9d0109b8 <i2c_master_ack+0x24>
9d0109c4:	00000000 	nop
}
9d0109c8:	03e00008 	jr	ra
9d0109cc:	00000000 	nop

9d0109d0 <i2c_master_stop>:

void i2c_master_stop(void) {          // send a STOP:
  I2C1CONbits.PEN = 1;                // comm is complete and master relinquishes bus
9d0109d0:	3c02bf80 	lui	v0,0xbf80
9d0109d4:	94435000 	lhu	v1,20480(v0)
9d0109d8:	24040001 	li	a0,1
9d0109dc:	7c831084 	ins	v1,a0,0x2,0x1
9d0109e0:	a4435000 	sh	v1,20480(v0)
  while(I2C1CONbits.PEN) { ; }        // wait for STOP to complete
9d0109e4:	00401825 	move	v1,v0
9d0109e8:	8c625000 	lw	v0,20480(v1)
9d0109ec:	7c420080 	ext	v0,v0,0x2,0x1
9d0109f0:	1440fffd 	bnez	v0,9d0109e8 <i2c_master_stop+0x18>
9d0109f4:	00000000 	nop
}
9d0109f8:	03e00008 	jr	ra
9d0109fc:	00000000 	nop

Disassembly of section .text.__push_int:

9d010a00 <__push_int>:
9d010a00:	24020088 	li	v0,136
9d010a04:	50a2003c 	beql	a1,v0,9d010af8 <__push_int+0xf8>
9d010a08:	8ce20000 	lw	v0,0(a3)
9d010a0c:	28a20089 	slti	v0,a1,137
9d010a10:	10400019 	beqz	v0,9d010a78 <__push_int+0x78>
9d010a14:	24020081 	li	v0,129
9d010a18:	50a20040 	beql	a1,v0,9d010b1c <__push_int+0x11c>
9d010a1c:	8ce20000 	lw	v0,0(a3)
9d010a20:	28a20082 	slti	v0,a1,130
9d010a24:	10400005 	beqz	v0,9d010a3c <__push_int+0x3c>
9d010a28:	24020080 	li	v0,128
9d010a2c:	50a20048 	beql	a1,v0,9d010b50 <__push_int+0x150>
9d010a30:	8ce20000 	lw	v0,0(a3)
9d010a34:	03e00008 	jr	ra
9d010a38:	00001025 	move	v0,zero
9d010a3c:	24020082 	li	v0,130
9d010a40:	10a20015 	beq	a1,v0,9d010a98 <__push_int+0x98>
9d010a44:	24020084 	li	v0,132
9d010a48:	14a2fffa 	bne	a1,v0,9d010a34 <__push_int+0x34>
9d010a4c:	00000000 	nop
9d010a50:	8ce20000 	lw	v0,0(a3)
9d010a54:	8c830000 	lw	v1,0(a0)
9d010a58:	24440004 	addiu	a0,v0,4
9d010a5c:	ace40000 	sw	a0,0(a3)
9d010a60:	8c420000 	lw	v0,0(v0)
9d010a64:	a4430000 	sh	v1,0(v0)
9d010a68:	10c00001 	beqz	a2,9d010a70 <__push_int+0x70>
9d010a6c:	24020001 	li	v0,1
9d010a70:	03e00008 	jr	ra
9d010a74:	00000000 	nop
9d010a78:	240200a0 	li	v0,160
9d010a7c:	50a20018 	beql	a1,v0,9d010ae0 <__push_int+0xe0>
9d010a80:	8ce20000 	lw	v0,0(a3)
9d010a84:	28a200a1 	slti	v0,a1,161
9d010a88:	1040000e 	beqz	v0,9d010ac4 <__push_int+0xc4>
9d010a8c:	24020090 	li	v0,144
9d010a90:	14a2ffe8 	bne	a1,v0,9d010a34 <__push_int+0x34>
9d010a94:	00000000 	nop
9d010a98:	8ce20000 	lw	v0,0(a3)
9d010a9c:	10c00028 	beqz	a2,9d010b40 <__push_int+0x140>
9d010aa0:	24430004 	addiu	v1,v0,4
9d010aa4:	ace30000 	sw	v1,0(a3)
9d010aa8:	8c850004 	lw	a1,4(a0)
9d010aac:	8c840000 	lw	a0,0(a0)
9d010ab0:	8c420000 	lw	v0,0(v0)
9d010ab4:	ac440000 	sw	a0,0(v0)
9d010ab8:	ac450004 	sw	a1,4(v0)
9d010abc:	03e00008 	jr	ra
9d010ac0:	24020001 	li	v0,1
9d010ac4:	240200c0 	li	v0,192
9d010ac8:	50a20005 	beql	a1,v0,9d010ae0 <__push_int+0xe0>
9d010acc:	8ce20000 	lw	v0,0(a3)
9d010ad0:	240200f0 	li	v0,240
9d010ad4:	14a2ffd7 	bne	a1,v0,9d010a34 <__push_int+0x34>
9d010ad8:	00000000 	nop
9d010adc:	8ce20000 	lw	v0,0(a3)
9d010ae0:	8c830000 	lw	v1,0(a0)
9d010ae4:	24440004 	addiu	a0,v0,4
9d010ae8:	ace40000 	sw	a0,0(a3)
9d010aec:	8c420000 	lw	v0,0(v0)
9d010af0:	1000fff2 	b	9d010abc <__push_int+0xbc>
9d010af4:	ac430000 	sw	v1,0(v0)
9d010af8:	8c830000 	lw	v1,0(a0)
9d010afc:	24440004 	addiu	a0,v0,4
9d010b00:	ace40000 	sw	a0,0(a3)
9d010b04:	8c420000 	lw	v0,0(v0)
9d010b08:	a0430000 	sb	v1,0(v0)
9d010b0c:	10c0ffd8 	beqz	a2,9d010a70 <__push_int+0x70>
9d010b10:	24020001 	li	v0,1
9d010b14:	03e00008 	jr	ra
9d010b18:	00000000 	nop
9d010b1c:	8c830000 	lw	v1,0(a0)
9d010b20:	24440004 	addiu	a0,v0,4
9d010b24:	ace40000 	sw	a0,0(a3)
9d010b28:	8c420000 	lw	v0,0(v0)
9d010b2c:	ac430000 	sw	v1,0(v0)
9d010b30:	10c0ffcf 	beqz	a2,9d010a70 <__push_int+0x70>
9d010b34:	24020001 	li	v0,1
9d010b38:	03e00008 	jr	ra
9d010b3c:	00000000 	nop
9d010b40:	8c850004 	lw	a1,4(a0)
9d010b44:	8c840000 	lw	a0,0(a0)
9d010b48:	1000ffd9 	b	9d010ab0 <__push_int+0xb0>
9d010b4c:	ace30000 	sw	v1,0(a3)
9d010b50:	8c830000 	lw	v1,0(a0)
9d010b54:	24440004 	addiu	a0,v0,4
9d010b58:	ace40000 	sw	a0,0(a3)
9d010b5c:	8c420000 	lw	v0,0(v0)
9d010b60:	ac430000 	sw	v1,0(v0)
9d010b64:	24020001 	li	v0,1
9d010b68:	03e00008 	jr	ra
9d010b6c:	00000000 	nop

Disassembly of section .dinit:

9d010b70 <.dinit>:
9d010b70:	a0000034 	sb	zero,52(zero)
9d010b74:	00000008 	jr	zero
9d010b78:	00000000 	nop
9d010b7c:	a000000c 	sb	zero,12(zero)
9d010b80:	0000000c 	syscall
9d010b84:	00000000 	nop
9d010b88:	a0000058 	sb	zero,88(zero)
9d010b8c:	00000064 	0x64
9d010b90:	00000000 	nop
9d010b94:	a0000018 	sb	zero,24(zero)
9d010b98:	0000001c 	0x1c
9d010b9c:	00000000 	nop
9d010ba0:	a0000000 	sb	zero,0(zero)
9d010ba4:	00000008 	jr	zero
9d010ba8:	00000001 	movf	zero,zero,$fcc0
9d010bac:	43480000 	c0	0x1480000
9d010bb0:	000003e8 	0x3e8
9d010bb4:	a000003c 	sb	zero,60(zero)
9d010bb8:	0000001c 	0x1c
9d010bbc:	00000000 	nop
9d010bc0:	a00000bc 	sb	zero,188(zero)
9d010bc4:	00004fb0 	tge	zero,zero,0x13e
9d010bc8:	00000000 	nop
9d010bcc:	a000506c 	sb	zero,20588(zero)
9d010bd0:	00000060 	0x60
9d010bd4:	00000001 	movf	zero,zero,$fcc0
9d010bd8:	00000001 	movf	zero,zero,$fcc0
9d010bdc:	00000003 	sra	zero,zero,0x0
	...
9d010bf4:	9d012534 	0x9d012534
	...
9d010c04:	9d01483c 	0x9d01483c
9d010c08:	9d012f08 	0x9d012f08
	...
9d010c38:	a000512c 	sb	zero,20780(zero)
9d010c3c:	00000004 	sllv	zero,zero,zero
9d010c40:	00000000 	nop
9d010c44:	a00050cc 	sb	zero,20684(zero)
9d010c48:	00000060 	0x60
9d010c4c:	00000001 	movf	zero,zero,$fcc0
9d010c50:	00000001 	movf	zero,zero,$fcc0
9d010c54:	00000003 	sra	zero,zero,0x0
	...
9d010c6c:	9d012534 	0x9d012534
	...
9d010c7c:	9d01483c 	0x9d01483c
9d010c80:	9d012f08 	0x9d012f08
	...
9d010cb0:	a0005130 	sb	zero,20784(zero)
9d010cb4:	00000284 	0x284
9d010cb8:	00000000 	nop
9d010cbc:	a0000008 	sb	zero,8(zero)
9d010cc0:	00000004 	sllv	zero,zero,zero
9d010cc4:	00000001 	movf	zero,zero,$fcc0
9d010cc8:	00000002 	srl	zero,zero,0x0
9d010ccc:	a00053b4 	sb	zero,21428(zero)
9d010cd0:	00000004 	sllv	zero,zero,zero
	...
9d010cdc:	66666666 	0x66666666

Disassembly of section .text.libm:

9d010ce0 <__mchp_ldexp>:
9d010ce0:	00054840 00094d42 252cffff 2d8107fe     @H..BM....,%...-
9d010cf0:	1020000f 00000000                       .. .....

9d010cf8 <Clab1>:
9d010cf8:	01264821 	addu	t1,t1,a2
9d010cfc:	252cffff 	addiu	t4,t1,-1
9d010d00:	2d8107fe 	sltiu	at,t4,2046
9d010d04:	10200021 	beqz	at,9d010d8c <Cspec2>
9d010d08:	00000000 	nop
9d010d0c:	3c01800f 	lui	at,0x800f
9d010d10:	3421ffff 	ori	at,at,0xffff
9d010d14:	00a12824 	and	a1,a1,at
9d010d18:	00096500 	sll	t4,t1,0x14
9d010d1c:	00ac2825 	or	a1,a1,t4

9d010d20 <Cret>:
9d010d20:	00041025 	or	v0,zero,a0
9d010d24:	00051825 	or	v1,zero,a1

9d010d28 <C999>:
9d010d28:	03e00008 	jr	ra
9d010d2c:	00000000 	nop

9d010d30 <Cspec>:
9d010d30:	00056300 	sll	t4,a1,0xc
9d010d34:	01846025 	or	t4,t4,a0
9d010d38:	1180fff9 	beqz	t4,9d010d20 <Cret>
9d010d3c:	00000000 	nop
9d010d40:	11200004 	beqz	t1,9d010d54 <i9>
9d010d44:	00000000 	nop
9d010d48:	3c05fff8 	lui	a1,0xfff8
9d010d4c:	1000fff4 	b	9d010d20 <Cret>
9d010d50:	24040000 	li	a0,0

9d010d54 <i9>:
9d010d54:	25290001 	addiu	t1,t1,1
9d010d58:	3c018000 	lui	at,0x8000
9d010d5c:	00a15024 	and	t2,a1,at

9d010d60 <b10>:
9d010d60:	2529ffff 	addiu	t1,t1,-1
9d010d64:	0080602a 	slt	t4,a0,zero
9d010d68:	00842021 	addu	a0,a0,a0
9d010d6c:	00a52821 	addu	a1,a1,a1
9d010d70:	00ac2821 	addu	a1,a1,t4
9d010d74:	3c010010 	lui	at,0x10
9d010d78:	00a1082b 	sltu	at,a1,at
9d010d7c:	1420fff8 	bnez	at,9d010d60 <b10>
9d010d80:	00000000 	nop
9d010d84:	1000ffdc 	b	9d010cf8 <Clab1>
9d010d88:	00aa2825 	or	a1,a1,t2

9d010d8c <Cspec2>:
9d010d8c:	000542c0 	sll	t0,a1,0xb
9d010d90:	00046542 	srl	t4,a0,0x15
9d010d94:	010c4025 	or	t0,t0,t4
9d010d98:	00043ac0 	sll	a3,a0,0xb
9d010d9c:	3c018000 	lui	at,0x8000
9d010da0:	01014025 	or	t0,t0,at
9d010da4:	3c018000 	lui	at,0x8000
9d010da8:	19200005 	blez	t1,9d010dc0 <i11>
9d010dac:	00a12824 	and	a1,a1,at
9d010db0:	3c017ff0 	lui	at,0x7ff0
9d010db4:	00a12825 	or	a1,a1,at
9d010db8:	1000ffd9 	b	9d010d20 <Cret>
9d010dbc:	24040000 	li	a0,0

9d010dc0 <i11>:
9d010dc0:	240a0001 	li	t2,1
9d010dc4:	01495023 	subu	t2,t2,t1

9d010dc8 <L13>:
9d010dc8:	2d410020 	sltiu	at,t2,32
9d010dcc:	14200007 	bnez	at,9d010dec <L14>
9d010dd0:	00000000 	nop
9d010dd4:	214affe0 	addi	t2,t2,-32
9d010dd8:	0007202b 	sltu	a0,zero,a3
9d010ddc:	1008000d 	beq	zero,t0,9d010e14 <L15>
9d010de0:	01043825 	or	a3,t0,a0
9d010de4:	1000fff8 	b	9d010dc8 <L13>
9d010de8:	34080000 	li	t0,0x0

9d010dec <L14>:
9d010dec:	11400009 	beqz	t2,9d010e14 <L15>
9d010df0:	00000000 	nop
9d010df4:	000a5822 	neg	t3,t2
9d010df8:	01672004 	sllv	a0,a3,t3
9d010dfc:	01685804 	sllv	t3,t0,t3
9d010e00:	01473806 	srlv	a3,a3,t2
9d010e04:	01484006 	srlv	t0,t0,t2
9d010e08:	10800002 	beqz	a0,9d010e14 <L15>
9d010e0c:	01673825 	or	a3,t3,a3
9d010e10:	34e70002 	ori	a3,a3,0x2

9d010e14 <L15>:
9d010e14:	24e70400 	addiu	a3,a3,1024
9d010e18:	2cec0400 	sltiu	t4,a3,1024
9d010e1c:	010c4021 	addu	t0,t0,t4
9d010e20:	000762c2 	srl	t4,a3,0xb
9d010e24:	318c0001 	andi	t4,t4,0x1
9d010e28:	00ec3823 	subu	a3,a3,t4
9d010e2c:	000722c2 	srl	a0,a3,0xb
9d010e30:	00086540 	sll	t4,t0,0x15
9d010e34:	008c2025 	or	a0,a0,t4
9d010e38:	00086040 	sll	t4,t0,0x1
9d010e3c:	000c6302 	srl	t4,t4,0xc
9d010e40:	1000ffb7 	b	9d010d20 <Cret>
9d010e44:	00ac2825 	or	a1,a1,t4
9d010e48:	00000000 	nop

Disassembly of section .text:

9d010e4c <writeINA219>:
  float ma = value / 3.0;
  return ma;
}

// write 2 bytes
void writeINA219(unsigned char reg, unsigned short value){
9d010e4c:	27bdffe0 	addiu	sp,sp,-32
9d010e50:	afbf001c 	sw	ra,28(sp)
9d010e54:	afb10018 	sw	s1,24(sp)
9d010e58:	afb00014 	sw	s0,20(sp)
9d010e5c:	00808825 	move	s1,a0
  i2c_master_start();
9d010e60:	0f40422c 	jal	9d0108b0 <i2c_master_start>
9d010e64:	00a08025 	move	s0,a1
  i2c_master_send(INA219_ADDR<<1); // write to the INA219
9d010e68:	0f404244 	jal	9d010910 <i2c_master_send>
9d010e6c:	24040080 	li	a0,128
  i2c_master_send(reg); // the reg to write to
9d010e70:	0f404244 	jal	9d010910 <i2c_master_send>
9d010e74:	02202025 	move	a0,s1
  i2c_master_send(value>>8);
9d010e78:	0f404244 	jal	9d010910 <i2c_master_send>
9d010e7c:	00102202 	srl	a0,s0,0x8
  i2c_master_send(value&0xff);
9d010e80:	0f404244 	jal	9d010910 <i2c_master_send>
9d010e84:	320400ff 	andi	a0,s0,0xff
  i2c_master_stop();
9d010e88:	0f404274 	jal	9d0109d0 <i2c_master_stop>
9d010e8c:	00000000 	nop
}
9d010e90:	8fbf001c 	lw	ra,28(sp)
9d010e94:	8fb10018 	lw	s1,24(sp)
9d010e98:	8fb00014 	lw	s0,20(sp)
9d010e9c:	03e00008 	jr	ra
9d010ea0:	27bd0020 	addiu	sp,sp,32

9d010ea4 <INA219_Startup>:
void INA219_Startup() {
9d010ea4:	27bdffe8 	addiu	sp,sp,-24
9d010ea8:	afbf0014 	sw	ra,20(sp)
  __builtin_disable_interrupts();
9d010eac:	41626000 	di	v0
9d010eb0:	000000c0 	ehb
  i2c_master_setup();
9d010eb4:	0f404222 	jal	9d010888 <i2c_master_setup>
9d010eb8:	00000000 	nop
  writeINA219(INA219_REG_CALIBRATION, ina219_calValue);
9d010ebc:	24050400 	li	a1,1024
9d010ec0:	0f404393 	jal	9d010e4c <writeINA219>
9d010ec4:	24040005 	li	a0,5
  writeINA219(INA219_REG_CONFIG, ina219_config);
9d010ec8:	2405308f 	li	a1,12431
9d010ecc:	0f404393 	jal	9d010e4c <writeINA219>
9d010ed0:	00002025 	move	a0,zero
  __builtin_enable_interrupts();
9d010ed4:	41626020 	ei	v0
}
9d010ed8:	8fbf0014 	lw	ra,20(sp)
9d010edc:	03e00008 	jr	ra
9d010ee0:	27bd0018 	addiu	sp,sp,24

9d010ee4 <readINA219>:

// read 2 bytes
signed short readINA219(unsigned char reg){
9d010ee4:	27bdffe0 	addiu	sp,sp,-32
9d010ee8:	afbf001c 	sw	ra,28(sp)
9d010eec:	afb10018 	sw	s1,24(sp)
9d010ef0:	afb00014 	sw	s0,20(sp)
  i2c_master_start();
9d010ef4:	0f40422c 	jal	9d0108b0 <i2c_master_start>
9d010ef8:	00808025 	move	s0,a0
  i2c_master_send(INA219_ADDR<<1); // write to the INA219
9d010efc:	0f404244 	jal	9d010910 <i2c_master_send>
9d010f00:	24040080 	li	a0,128
  i2c_master_send(reg); // the reg to read from
9d010f04:	0f404244 	jal	9d010910 <i2c_master_send>
9d010f08:	02002025 	move	a0,s0
  i2c_master_restart();
9d010f0c:	0f404238 	jal	9d0108e0 <i2c_master_restart>
9d010f10:	00000000 	nop
  i2c_master_send((INA219_ADDR<<1)|0b1); // read from the INA219
9d010f14:	0f404244 	jal	9d010910 <i2c_master_send>
9d010f18:	24040081 	li	a0,129
  unsigned char r1 = i2c_master_recv();
9d010f1c:	0f404258 	jal	9d010960 <i2c_master_recv>
9d010f20:	00000000 	nop
9d010f24:	00408025 	move	s0,v0
  i2c_master_ack(0); // read again
9d010f28:	0f404265 	jal	9d010994 <i2c_master_ack>
9d010f2c:	00002025 	move	a0,zero
  unsigned char r2 = i2c_master_recv();
9d010f30:	0f404258 	jal	9d010960 <i2c_master_recv>
9d010f34:	00000000 	nop
9d010f38:	00408825 	move	s1,v0
  i2c_master_ack(1); // no more reads
9d010f3c:	0f404265 	jal	9d010994 <i2c_master_ack>
9d010f40:	24040001 	li	a0,1
  i2c_master_stop();
9d010f44:	0f404274 	jal	9d0109d0 <i2c_master_stop>
9d010f48:	00000000 	nop

  signed short value = (r1<<8)|r2;
9d010f4c:	00101200 	sll	v0,s0,0x8
9d010f50:	00511025 	or	v0,v0,s1
  return value;
}
9d010f54:	7c021620 	seh	v0,v0
9d010f58:	8fbf001c 	lw	ra,28(sp)
9d010f5c:	8fb10018 	lw	s1,24(sp)
9d010f60:	8fb00014 	lw	s0,20(sp)
9d010f64:	03e00008 	jr	ra
9d010f68:	27bd0020 	addiu	sp,sp,32

9d010f6c <INA219_read_current>:
float INA219_read_current(){
9d010f6c:	27bdffe8 	addiu	sp,sp,-24
9d010f70:	afbf0014 	sw	ra,20(sp)
  signed short value = readINA219(INA219_REG_CURRENT);
9d010f74:	0f4043b9 	jal	9d010ee4 <readINA219>
9d010f78:	24040004 	li	a0,4
  float ma = value / 3.0;
9d010f7c:	0f404d77 	jal	9d0135dc <__floatsidf>
9d010f80:	00402025 	move	a0,v0
9d010f84:	3c049d00 	lui	a0,0x9d00
9d010f88:	8c8674c8 	lw	a2,29896(a0)
9d010f8c:	8c8774cc 	lw	a3,29900(a0)
9d010f90:	00402025 	move	a0,v0
9d010f94:	0f4032c7 	jal	9d00cb1c <__divdf3>
9d010f98:	00602825 	move	a1,v1
9d010f9c:	00402025 	move	a0,v0
9d010fa0:	0f4047fd 	jal	9d011ff4 <__truncdfsf2>
9d010fa4:	00602825 	move	a1,v1
}
9d010fa8:	8fbf0014 	lw	ra,20(sp)
9d010fac:	03e00008 	jr	ra
9d010fb0:	27bd0018 	addiu	sp,sp,24

Disassembly of section .text._sbrk_init:

9d010fb4 <_sbrk_init>:
9d010fb4:	27bdffd8 	addiu	sp,sp,-40
9d010fb8:	afb40020 	sw	s4,32(sp)
9d010fbc:	3c14a000 	lui	s4,0xa000
9d010fc0:	8e8253a8 	lw	v0,21416(s4)
9d010fc4:	afbf0024 	sw	ra,36(sp)
9d010fc8:	afb3001c 	sw	s3,28(sp)
9d010fcc:	afb20018 	sw	s2,24(sp)
9d010fd0:	afb10014 	sw	s1,20(sp)
9d010fd4:	1440003a 	bnez	v0,9d0110c0 <_sbrk_init+0x10c>
9d010fd8:	afb00010 	sw	s0,16(sp)
9d010fdc:	3c12a000 	lui	s2,0xa000
9d010fe0:	8e5153b0 	lw	s1,21424(s2)
9d010fe4:	16200003 	bnez	s1,9d010ff4 <_sbrk_init+0x40>
9d010fe8:	3c13a000 	lui	s3,0xa000
9d010fec:	3c11a000 	lui	s1,0xa000
9d010ff0:	263153c0 	addiu	s1,s1,21440
9d010ff4:	8e7053ac 	lw	s0,21420(s3)
9d010ff8:	16000005 	bnez	s0,9d011010 <_sbrk_init+0x5c>
9d010ffc:	3c020000 	lui	v0,0x0
9d011000:	3c10a000 	lui	s0,0xa000
9d011004:	261053c0 	addiu	s0,s0,21440
9d011008:	24420000 	addiu	v0,v0,0
9d01100c:	02028021 	addu	s0,s0,v0
9d011010:	00111f82 	srl	v1,s1,0x1e
9d011014:	24020002 	li	v0,2
9d011018:	50620001 	beql	v1,v0,9d011020 <_sbrk_init+0x6c>
9d01101c:	7e31e000 	ext	s1,s1,0x0,0x1d
9d011020:	00101f82 	srl	v1,s0,0x1e
9d011024:	24020002 	li	v0,2
9d011028:	50620001 	beql	v1,v0,9d011030 <_sbrk_init+0x7c>
9d01102c:	7e10e000 	ext	s0,s0,0x0,0x1d
9d011030:	0f4051b5 	jal	9d0146d4 <_stub_sbd_memlayout>
9d011034:	00000000 	nop
9d011038:	8c430000 	lw	v1,0(v0)
9d01103c:	8c420004 	lw	v0,4(v0)
9d011040:	0223202b 	sltu	a0,s1,v1
9d011044:	14800004 	bnez	a0,9d011058 <_sbrk_init+0xa4>
9d011048:	00621021 	addu	v0,v1,v0
9d01104c:	0222202b 	sltu	a0,s1,v0
9d011050:	54800029 	bnezl	a0,9d0110f8 <_sbrk_init+0x144>
9d011054:	0211182b 	sltu	v1,s0,s1
9d011058:	3c04a000 	lui	a0,0xa000
9d01105c:	2484506c 	addiu	a0,a0,20588
9d011060:	7c84e000 	ext	a0,a0,0x0,0x1d
9d011064:	0064202b 	sltu	a0,v1,a0
9d011068:	14800015 	bnez	a0,9d0110c0 <_sbrk_init+0x10c>
9d01106c:	0203202b 	sltu	a0,s0,v1
9d011070:	14800004 	bnez	a0,9d011084 <_sbrk_init+0xd0>
9d011074:	0062202b 	sltu	a0,v1,v0
9d011078:	0202202b 	sltu	a0,s0,v0
9d01107c:	14800018 	bnez	a0,9d0110e0 <_sbrk_init+0x12c>
9d011080:	0062202b 	sltu	a0,v1,v0
9d011084:	1080000f 	beqz	a0,9d0110c4 <_sbrk_init+0x110>
9d011088:	8fbf0024 	lw	ra,36(sp)
9d01108c:	3c04a000 	lui	a0,0xa000
9d011090:	2484506c 	addiu	a0,a0,20588
9d011094:	00042742 	srl	a0,a0,0x1d
9d011098:	24050005 	li	a1,5
9d01109c:	14850012 	bne	a0,a1,9d0110e8 <_sbrk_init+0x134>
9d0110a0:	24050004 	li	a1,4
9d0110a4:	3c04a000 	lui	a0,0xa000
9d0110a8:	00641825 	or	v1,v1,a0
9d0110ac:	00441025 	or	v0,v0,a0
9d0110b0:	ae4353b0 	sw	v1,21424(s2)
9d0110b4:	ae6253ac 	sw	v0,21420(s3)
9d0110b8:	8e4253b0 	lw	v0,21424(s2)
9d0110bc:	ae8253a8 	sw	v0,21416(s4)
9d0110c0:	8fbf0024 	lw	ra,36(sp)
9d0110c4:	8fb40020 	lw	s4,32(sp)
9d0110c8:	8fb3001c 	lw	s3,28(sp)
9d0110cc:	8fb20018 	lw	s2,24(sp)
9d0110d0:	8fb10014 	lw	s1,20(sp)
9d0110d4:	8fb00010 	lw	s0,16(sp)
9d0110d8:	03e00008 	jr	ra
9d0110dc:	27bd0028 	addiu	sp,sp,40
9d0110e0:	1000ffea 	b	9d01108c <_sbrk_init+0xd8>
9d0110e4:	02001025 	move	v0,s0
9d0110e8:	1085ffef 	beq	a0,a1,9d0110a8 <_sbrk_init+0xf4>
9d0110ec:	3c048000 	lui	a0,0x8000
9d0110f0:	1000fff1 	b	9d0110b8 <_sbrk_init+0x104>
9d0110f4:	ae4253b0 	sw	v0,21424(s2)
9d0110f8:	1460ffe4 	bnez	v1,9d01108c <_sbrk_init+0xd8>
9d0110fc:	02201825 	move	v1,s1
9d011100:	1000ffde 	b	9d01107c <_sbrk_init+0xc8>
9d011104:	0202202b 	sltu	a0,s0,v0

Disassembly of section .text.__fmt_d:

9d011108 <__fmt_d>:
9d011108:	27bdffc0 	addiu	sp,sp,-64
9d01110c:	afb1002c 	sw	s1,44(sp)
9d011110:	00808825 	move	s1,a0
9d011114:	00c02025 	move	a0,a2
9d011118:	8c870004 	lw	a3,4(a0)
9d01111c:	8ca20000 	lw	v0,0(a1)
9d011120:	afb40038 	sw	s4,56(sp)
9d011124:	0007a7c2 	srl	s4,a3,0x1f
9d011128:	afb30034 	sw	s3,52(sp)
9d01112c:	afb20030 	sw	s2,48(sp)
9d011130:	afb00028 	sw	s0,40(sp)
9d011134:	afbf003c 	sw	ra,60(sp)
9d011138:	00a08025 	move	s0,a1
9d01113c:	8ca30004 	lw	v1,4(a1)
9d011140:	8cb20008 	lw	s2,8(a1)
9d011144:	afa20020 	sw	v0,32(sp)
9d011148:	8cb3000c 	lw	s3,12(a1)
9d01114c:	1280003e 	beqz	s4,9d011248 <__fmt_d+0x140>
9d011150:	8cc60000 	lw	a2,0(a2)
9d011154:	00063023 	negu	a2,a2
9d011158:	0006202b 	sltu	a0,zero,a2
9d01115c:	00073823 	negu	a3,a3
9d011160:	04600008 	bltz	v1,9d011184 <__fmt_d+0x7c>
9d011164:	00e43823 	subu	a3,a3,a0
9d011168:	7c020844 	ins	v0,zero,0x1,0x1
9d01116c:	16800005 	bnez	s4,9d011184 <__fmt_d+0x7c>
9d011170:	afa20020 	sw	v0,32(sp)
9d011174:	8fa20020 	lw	v0,32(sp)
9d011178:	30430004 	andi	v1,v0,0x4
9d01117c:	1060002a 	beqz	v1,9d011228 <__fmt_d+0x120>
9d011180:	7c4200c0 	ext	v0,v0,0x3,0x1
9d011184:	2642ffff 	addiu	v0,s2,-1
9d011188:	27a30020 	addiu	v1,sp,32
9d01118c:	afa30018 	sw	v1,24(sp)
9d011190:	2403000a 	li	v1,10
9d011194:	afa30014 	sw	v1,20(sp)
9d011198:	afa20010 	sw	v0,16(sp)
9d01119c:	0f404496 	jal	9d011258 <__cvt_u>
9d0111a0:	02002025 	move	a0,s0
9d0111a4:	16800006 	bnez	s4,9d0111c0 <__fmt_d+0xb8>
9d0111a8:	2403002d 	li	v1,45
9d0111ac:	8fa30020 	lw	v1,32(sp)
9d0111b0:	30640004 	andi	a0,v1,0x4
9d0111b4:	1080001e 	beqz	a0,9d011230 <__fmt_d+0x128>
9d0111b8:	30630008 	andi	v1,v1,0x8
9d0111bc:	2403002b 	li	v1,43
9d0111c0:	2442ffff 	addiu	v0,v0,-1
9d0111c4:	02622021 	addu	a0,s3,v0
9d0111c8:	a0830000 	sb	v1,0(a0)
9d0111cc:	8e060010 	lw	a2,16(s0)
9d0111d0:	8fa30020 	lw	v1,32(sp)
9d0111d4:	02403825 	move	a3,s2
9d0111d8:	24c6ffff 	addiu	a2,a2,-1
9d0111dc:	afa30010 	sw	v1,16(sp)
9d0111e0:	00c23023 	subu	a2,a2,v0
9d0111e4:	02622821 	addu	a1,s3,v0
9d0111e8:	0f4047bd 	jal	9d011ef4 <__pad>
9d0111ec:	02202025 	move	a0,s1
9d0111f0:	8e230004 	lw	v1,4(s1)
9d0111f4:	30630100 	andi	v1,v1,0x100
9d0111f8:	10600004 	beqz	v1,9d01120c <__fmt_d+0x104>
9d0111fc:	8fbf003c 	lw	ra,60(sp)
9d011200:	8e030004 	lw	v1,4(s0)
9d011204:	0043202a 	slt	a0,v0,v1
9d011208:	0064100b 	movn	v0,v1,a0
9d01120c:	8fb40038 	lw	s4,56(sp)
9d011210:	8fb30034 	lw	s3,52(sp)
9d011214:	8fb20030 	lw	s2,48(sp)
9d011218:	8fb1002c 	lw	s1,44(sp)
9d01121c:	8fb00028 	lw	s0,40(sp)
9d011220:	03e00008 	jr	ra
9d011224:	27bd0040 	addiu	sp,sp,64
9d011228:	1000ffd7 	b	9d011188 <__fmt_d+0x80>
9d01122c:	02421023 	subu	v0,s2,v0
9d011230:	1060ffe6 	beqz	v1,9d0111cc <__fmt_d+0xc4>
9d011234:	24040020 	li	a0,32
9d011238:	2442ffff 	addiu	v0,v0,-1
9d01123c:	02621821 	addu	v1,s3,v0
9d011240:	1000ffe2 	b	9d0111cc <__fmt_d+0xc4>
9d011244:	a0640000 	sb	a0,0(v1)
9d011248:	0463ffc8 	bgezl	v1,9d01116c <__fmt_d+0x64>
9d01124c:	7c020844 	ins	v0,zero,0x1,0x1
9d011250:	1000ffc9 	b	9d011178 <__fmt_d+0x70>
9d011254:	8fa20020 	lw	v0,32(sp)

Disassembly of section .text.__cvt_u:

9d011258 <__cvt_u>:
9d011258:	8c820004 	lw	v0,4(a0)
9d01125c:	27bdffc0 	addiu	sp,sp,-64
9d011260:	afbe0038 	sw	s8,56(sp)
9d011264:	afb40028 	sw	s4,40(sp)
9d011268:	afb20020 	sw	s2,32(sp)
9d01126c:	afb1001c 	sw	s1,28(sp)
9d011270:	afbf003c 	sw	ra,60(sp)
9d011274:	afb70034 	sw	s7,52(sp)
9d011278:	afb60030 	sw	s6,48(sp)
9d01127c:	afb5002c 	sw	s5,44(sp)
9d011280:	afb30024 	sw	s3,36(sp)
9d011284:	afb00018 	sw	s0,24(sp)
9d011288:	00c08825 	move	s1,a2
9d01128c:	00e09025 	move	s2,a3
9d011290:	8fb40054 	lw	s4,84(sp)
9d011294:	04410002 	bgez	v0,9d0112a0 <__cvt_u+0x48>
9d011298:	8fbe0058 	lw	s8,88(sp)
9d01129c:	24020001 	li	v0,1
9d0112a0:	8c900010 	lw	s0,16(a0)
9d0112a4:	8c95000c 	lw	s5,12(a0)
9d0112a8:	8fd70000 	lw	s7,0(s8)
9d0112ac:	8fb30050 	lw	s3,80(sp)
9d0112b0:	2610ffff 	addiu	s0,s0,-1
9d0112b4:	02b01821 	addu	v1,s5,s0
9d0112b8:	a0600000 	sb	zero,0(v1)
9d0112bc:	24090001 	li	t1,1
9d0112c0:	00534023 	subu	t0,v0,s3
9d0112c4:	32f70002 	andi	s7,s7,0x2
9d0112c8:	0014b7c3 	sra	s6,s4,0x1f
9d0112cc:	1e000010 	bgtz	s0,9d011310 <__cvt_u+0xb8>
9d0112d0:	02321025 	or	v0,s1,s2
9d0112d4:	5120002c 	beqzl	t1,9d011388 <__cvt_u+0x130>
9d0112d8:	8fc20000 	lw	v0,0(s8)
9d0112dc:	8fbf003c 	lw	ra,60(sp)
9d0112e0:	02001025 	move	v0,s0
9d0112e4:	8fbe0038 	lw	s8,56(sp)
9d0112e8:	8fb70034 	lw	s7,52(sp)
9d0112ec:	8fb60030 	lw	s6,48(sp)
9d0112f0:	8fb5002c 	lw	s5,44(sp)
9d0112f4:	8fb40028 	lw	s4,40(sp)
9d0112f8:	8fb30024 	lw	s3,36(sp)
9d0112fc:	8fb20020 	lw	s2,32(sp)
9d011300:	8fb1001c 	lw	s1,28(sp)
9d011304:	8fb00018 	lw	s0,24(sp)
9d011308:	03e00008 	jr	ra
9d01130c:	27bd0040 	addiu	sp,sp,64
9d011310:	14400007 	bnez	v0,9d011330 <__cvt_u+0xd8>
9d011314:	01131021 	addu	v0,t0,s3
9d011318:	1c400006 	bgtz	v0,9d011334 <__cvt_u+0xdc>
9d01131c:	02202025 	move	a0,s1
9d011320:	1a60ffec 	blez	s3,9d0112d4 <__cvt_u+0x7c>
9d011324:	00000000 	nop
9d011328:	12e0ffea 	beqz	s7,9d0112d4 <__cvt_u+0x7c>
9d01132c:	00000000 	nop
9d011330:	02202025 	move	a0,s1
9d011334:	02402825 	move	a1,s2
9d011338:	02803025 	move	a2,s4
9d01133c:	02c03825 	move	a3,s6
9d011340:	afa80014 	sw	t0,20(sp)
9d011344:	0f403a23 	jal	9d00e88c <__umoddi3>
9d011348:	2610ffff 	addiu	s0,s0,-1
9d01134c:	afa20010 	sw	v0,16(sp)
9d011350:	02b01821 	addu	v1,s5,s0
9d011354:	24420030 	addiu	v0,v0,48
9d011358:	02202025 	move	a0,s1
9d01135c:	02402825 	move	a1,s2
9d011360:	a0620000 	sb	v0,0(v1)
9d011364:	02803025 	move	a2,s4
9d011368:	0f403934 	jal	9d00e4d0 <__udivdi3>
9d01136c:	02c03825 	move	a3,s6
9d011370:	2673ffff 	addiu	s3,s3,-1
9d011374:	00408825 	move	s1,v0
9d011378:	00609025 	move	s2,v1
9d01137c:	8fa80014 	lw	t0,20(sp)
9d011380:	1000ffd2 	b	9d0112cc <__cvt_u+0x74>
9d011384:	8fa90010 	lw	t1,16(sp)
9d011388:	7c022104 	ins	v0,zero,0x4,0x1
9d01138c:	1000ffd3 	b	9d0112dc <__cvt_u+0x84>
9d011390:	afc20000 	sw	v0,0(s8)

Disassembly of section .text.__read_int:

9d011394 <__read_int>:
9d011394:	27bdffd0 	addiu	sp,sp,-48
9d011398:	afb50028 	sw	s5,40(sp)
9d01139c:	8cb50008 	lw	s5,8(a1)
9d0113a0:	afb40024 	sw	s4,36(sp)
9d0113a4:	afb30020 	sw	s3,32(sp)
9d0113a8:	afb2001c 	sw	s2,28(sp)
9d0113ac:	afb10018 	sw	s1,24(sp)
9d0113b0:	afbf002c 	sw	ra,44(sp)
9d0113b4:	afb00014 	sw	s0,20(sp)
9d0113b8:	00808825 	move	s1,a0
9d0113bc:	00c09025 	move	s2,a2
9d0113c0:	8cb40010 	lw	s4,16(a1)
9d0113c4:	0f404ad7 	jal	9d012b5c <__skipws>
9d0113c8:	8cb3000c 	lw	s3,12(a1)
9d0113cc:	52a00001 	beqzl	s5,9d0113d4 <__read_int+0x40>
9d0113d0:	2695ffff 	addiu	s5,s4,-1
9d0113d4:	8e430000 	lw	v1,0(s2)
9d0113d8:	00008025 	move	s0,zero
9d0113dc:	00621821 	addu	v1,v1,v0
9d0113e0:	ae430000 	sw	v1,0(s2)
9d0113e4:	0215102a 	slt	v0,s0,s5
9d0113e8:	1040001d 	beqz	v0,9d011460 <__read_int+0xcc>
9d0113ec:	2682ffff 	addiu	v0,s4,-1
9d0113f0:	0202102a 	slt	v0,s0,v0
9d0113f4:	5040001b 	beqzl	v0,9d011464 <__read_int+0xd0>
9d0113f8:	02708021 	addu	s0,s3,s0
9d0113fc:	8e22003c 	lw	v0,60(s1)
9d011400:	8e23004c 	lw	v1,76(s1)
9d011404:	0043182b 	sltu	v1,v0,v1
9d011408:	1060000e 	beqz	v1,9d011444 <__read_int+0xb0>
9d01140c:	24430001 	addiu	v1,v0,1
9d011410:	ae23003c 	sw	v1,60(s1)
9d011414:	90420000 	lbu	v0,0(v0)
9d011418:	2443ffd5 	addiu	v1,v0,-43
9d01141c:	7c030844 	ins	v1,zero,0x1,0x1
9d011420:	00701825 	or	v1,v1,s0
9d011424:	1460001a 	bnez	v1,9d011490 <__read_int+0xfc>
9d011428:	2443ffd0 	addiu	v1,v0,-48
9d01142c:	a2620000 	sb	v0,0(s3)
9d011430:	8e420000 	lw	v0,0(s2)
9d011434:	24100001 	li	s0,1
9d011438:	24420001 	addiu	v0,v0,1
9d01143c:	1000ffe9 	b	9d0113e4 <__read_int+0x50>
9d011440:	ae420000 	sw	v0,0(s2)
9d011444:	0f4049ab 	jal	9d0126ac <__shgetc>
9d011448:	02202025 	move	a0,s1
9d01144c:	2403ffff 	li	v1,-1
9d011450:	5443fff2 	bnel	v0,v1,9d01141c <__read_int+0x88>
9d011454:	2443ffd5 	addiu	v1,v0,-43
9d011458:	12000005 	beqz	s0,9d011470 <__read_int+0xdc>
9d01145c:	8fbf002c 	lw	ra,44(sp)
9d011460:	02708021 	addu	s0,s3,s0
9d011464:	a2000000 	sb	zero,0(s0)
9d011468:	00001025 	move	v0,zero
9d01146c:	8fbf002c 	lw	ra,44(sp)
9d011470:	8fb50028 	lw	s5,40(sp)
9d011474:	8fb40024 	lw	s4,36(sp)
9d011478:	8fb30020 	lw	s3,32(sp)
9d01147c:	8fb2001c 	lw	s2,28(sp)
9d011480:	8fb10018 	lw	s1,24(sp)
9d011484:	8fb00014 	lw	s0,20(sp)
9d011488:	03e00008 	jr	ra
9d01148c:	27bd0030 	addiu	sp,sp,48
9d011490:	2c63000a 	sltiu	v1,v1,10
9d011494:	54600008 	bnezl	v1,9d0114b8 <__read_int+0x124>
9d011498:	02701821 	addu	v1,s3,s0
9d01149c:	8e22004c 	lw	v0,76(s1)
9d0114a0:	5040fff0 	beqzl	v0,9d011464 <__read_int+0xd0>
9d0114a4:	02708021 	addu	s0,s3,s0
9d0114a8:	8e22003c 	lw	v0,60(s1)
9d0114ac:	2442ffff 	addiu	v0,v0,-1
9d0114b0:	1000ffeb 	b	9d011460 <__read_int+0xcc>
9d0114b4:	ae22003c 	sw	v0,60(s1)
9d0114b8:	a0620000 	sb	v0,0(v1)
9d0114bc:	8e420000 	lw	v0,0(s2)
9d0114c0:	26100001 	addiu	s0,s0,1
9d0114c4:	24420001 	addiu	v0,v0,1
9d0114c8:	1000ffc6 	b	9d0113e4 <__read_int+0x50>
9d0114cc:	ae420000 	sw	v0,0(s2)

Disassembly of section .text.read:

9d0114d0 <read>:
9d0114d0:	50a0004a 	beqzl	a1,9d0115fc <read+0x12c>
9d0114d4:	00002025 	move	a0,zero
9d0114d8:	50c00048 	beqzl	a2,9d0115fc <read+0x12c>
9d0114dc:	00002025 	move	a0,zero
9d0114e0:	27bdffe0 	addiu	sp,sp,-32
9d0114e4:	afb10014 	sw	s1,20(sp)
9d0114e8:	afbf001c 	sw	ra,28(sp)
9d0114ec:	afb20018 	sw	s2,24(sp)
9d0114f0:	afb00010 	sw	s0,16(sp)
9d0114f4:	1480000b 	bnez	a0,9d011524 <read+0x54>
9d0114f8:	00c08825 	move	s1,a2
9d0114fc:	3c020000 	lui	v0,0x0
9d011500:	24420000 	addiu	v0,v0,0
9d011504:	1040000f 	beqz	v0,9d011544 <read+0x74>
9d011508:	00a08025 	move	s0,a1
9d01150c:	00a69021 	addu	s2,a1,a2
9d011510:	0c000000 	jal	90000000 <_bmxdudba_address+0x8fff0000>
9d011514:	24040001 	li	a0,1
9d011518:	26100001 	addiu	s0,s0,1
9d01151c:	1650fffc 	bne	s2,s0,9d011510 <read+0x40>
9d011520:	a202ffff 	sb	v0,-1(s0)
9d011524:	02202025 	move	a0,s1
9d011528:	8fbf001c 	lw	ra,28(sp)
9d01152c:	00801025 	move	v0,a0
9d011530:	8fb20018 	lw	s2,24(sp)
9d011534:	8fb10014 	lw	s1,20(sp)
9d011538:	8fb00010 	lw	s0,16(sp)
9d01153c:	03e00008 	jr	ra
9d011540:	27bd0020 	addiu	sp,sp,32
9d011544:	3c03bf80 	lui	v1,0xbf80
9d011548:	24626010 	addiu	v0,v1,24592
9d01154c:	1040fff6 	beqz	v0,9d011528 <read+0x58>
9d011550:	3c03a000 	lui	v1,0xa000
9d011554:	8c640008 	lw	a0,8(v1)
9d011558:	24030002 	li	v1,2
9d01155c:	1083001d 	beq	a0,v1,9d0115d4 <read+0x104>
9d011560:	3c03bf80 	lui	v1,0xbf80
9d011564:	3c03bf80 	lui	v1,0xbf80
9d011568:	8c646000 	lw	a0,24576(v1)
9d01156c:	3c03bf80 	lui	v1,0xbf80
9d011570:	24636030 	addiu	v1,v1,24624
9d011574:	30848000 	andi	a0,a0,0x8000
9d011578:	14800003 	bnez	a0,9d011588 <read+0xb8>
9d01157c:	3c04bf80 	lui	a0,0xbf80
9d011580:	34058000 	li	a1,0x8000
9d011584:	ac856008 	sw	a1,24584(a0)
9d011588:	02202025 	move	a0,s1
9d01158c:	240500a1 	li	a1,161
9d011590:	8c460000 	lw	a2,0(v0)
9d011594:	30c60001 	andi	a2,a2,0x1
9d011598:	14c00003 	bnez	a2,9d0115a8 <read+0xd8>
9d01159c:	24a5ffff 	addiu	a1,a1,-1
9d0115a0:	14a0fffb 	bnez	a1,9d011590 <read+0xc0>
9d0115a4:	00000000 	nop
9d0115a8:	8c450000 	lw	a1,0(v0)
9d0115ac:	30a50001 	andi	a1,a1,0x1
9d0115b0:	54a0ffdc 	bnezl	a1,9d011524 <read+0x54>
9d0115b4:	02248823 	subu	s1,s1,a0
9d0115b8:	8c650000 	lw	a1,0(v1)
9d0115bc:	26100001 	addiu	s0,s0,1
9d0115c0:	2484ffff 	addiu	a0,a0,-1
9d0115c4:	1480fff1 	bnez	a0,9d01158c <read+0xbc>
9d0115c8:	a205ffff 	sb	a1,-1(s0)
9d0115cc:	1000ffd5 	b	9d011524 <read+0x54>
9d0115d0:	02248823 	subu	s1,s1,a0
9d0115d4:	24636240 	addiu	v1,v1,25152
9d0115d8:	5060ffe3 	beqzl	v1,9d011568 <read+0x98>
9d0115dc:	3c03bf80 	lui	v1,0xbf80
9d0115e0:	3c02bf80 	lui	v0,0xbf80
9d0115e4:	8c446200 	lw	a0,25088(v0)
9d0115e8:	3c03bf80 	lui	v1,0xbf80
9d0115ec:	3c02bf80 	lui	v0,0xbf80
9d0115f0:	24636230 	addiu	v1,v1,25136
9d0115f4:	1000ffdf 	b	9d011574 <read+0xa4>
9d0115f8:	24426210 	addiu	v0,v0,25104
9d0115fc:	03e00008 	jr	ra
9d011600:	00801025 	move	v0,a0

Disassembly of section .text.dpcmp:

9d011604 <__eqdf2>:
9d011604:	2409fffe 00055040 00075840 01645825     ...$@P..@X..%Xd.
9d011614:	01665825 014b5025 15400003 00000000     %Xf.%PK...@.....
9d011624:	1000003c 24020000                       <......$

9d01162c <i56>:
9d01162c:	10800002 	beqz	a0,9d011638 <i57>
9d011630:	00054040 	sll	t0,a1,0x1
9d011634:	25080001 	addiu	t0,t0,1

9d011638 <i57>:
9d011638:	3c01ffe0 	lui	at,0xffe0
9d01163c:	34210001 	ori	at,at,0x1
9d011640:	0101082b 	sltu	at,t0,at
9d011644:	10200037 	beqz	at,9d011724 <Lnan>
9d011648:	00000000 	nop
9d01164c:	10c00002 	beqz	a2,9d011658 <i58>
9d011650:	00074040 	sll	t0,a3,0x1
9d011654:	25080001 	addiu	t0,t0,1

9d011658 <i58>:
9d011658:	3c01ffe0 	lui	at,0xffe0
9d01165c:	34210001 	ori	at,at,0x1
9d011660:	0101082b 	sltu	at,t0,at
9d011664:	1020002f 	beqz	at,9d011724 <Lnan>
9d011668:	00000000 	nop
9d01166c:	04a10016 	bgez	a1,9d0116c8 <i59>
9d011670:	00000000 	nop
9d011674:	04e00003 	bltz	a3,9d011684 <i60>
9d011678:	00000000 	nop
9d01167c:	10000026 	b	9d011718 <L999>
9d011680:	2402ffff 	li	v0,-1

9d011684 <i60>:
9d011684:	0086502b 	sltu	t2,a0,a2
9d011688:	00862023 	subu	a0,a0,a2
9d01168c:	00aa582b 	sltu	t3,a1,t2
9d011690:	00aa2823 	subu	a1,a1,t2
9d011694:	00a7502b 	sltu	t2,a1,a3
9d011698:	014b5025 	or	t2,t2,t3
9d01169c:	11400003 	beqz	t2,9d0116ac <i61>
9d0116a0:	00a72823 	subu	a1,a1,a3
9d0116a4:	1000001c 	b	9d011718 <L999>
9d0116a8:	24020001 	li	v0,1

9d0116ac <i61>:
9d0116ac:	00a45025 	or	t2,a1,a0
9d0116b0:	11400003 	beqz	t2,9d0116c0 <i62>
9d0116b4:	00000000 	nop
9d0116b8:	10000017 	b	9d011718 <L999>
9d0116bc:	2402ffff 	li	v0,-1

9d0116c0 <i62>:
9d0116c0:	10000015 	b	9d011718 <L999>
9d0116c4:	24020000 	li	v0,0

9d0116c8 <i59>:
9d0116c8:	04e10003 	bgez	a3,9d0116d8 <i63>
9d0116cc:	00000000 	nop
9d0116d0:	10000011 	b	9d011718 <L999>
9d0116d4:	24020001 	li	v0,1

9d0116d8 <i63>:
9d0116d8:	0086502b 	sltu	t2,a0,a2
9d0116dc:	00862023 	subu	a0,a0,a2
9d0116e0:	00aa582b 	sltu	t3,a1,t2
9d0116e4:	00aa2823 	subu	a1,a1,t2
9d0116e8:	00a7502b 	sltu	t2,a1,a3
9d0116ec:	014b5025 	or	t2,t2,t3
9d0116f0:	11400003 	beqz	t2,9d011700 <i64>
9d0116f4:	00a72823 	subu	a1,a1,a3
9d0116f8:	10000007 	b	9d011718 <L999>
9d0116fc:	2402ffff 	li	v0,-1

9d011700 <i64>:
9d011700:	00a45025 	or	t2,a1,a0
9d011704:	11400003 	beqz	t2,9d011714 <i65>
9d011708:	00000000 	nop
9d01170c:	10000002 	b	9d011718 <L999>
9d011710:	24020001 	li	v0,1

9d011714 <i65>:
9d011714:	24020000 	li	v0,0

9d011718 <L999>:
9d011718:	03e00008 	jr	ra
9d01171c:	00000000 	nop
9d011720:	00000000 	nop

9d011724 <Lnan>:
9d011724:	1000fffc 	b	9d011718 <L999>
9d011728:	00091025 	or	v0,zero,t1
9d01172c:	00000000 	nop

Disassembly of section .text.dfcmplt:

9d011730 <dpcmplt>:
9d011730:	2409fffe 	li	t1,-2
9d011734:	00055040 	sll	t2,a1,0x1
9d011738:	00075840 	sll	t3,a3,0x1
9d01173c:	01645825 	or	t3,t3,a0
9d011740:	01665825 	or	t3,t3,a2
9d011744:	014b5025 	or	t2,t2,t3
9d011748:	15400003 	bnez	t2,9d011758 <dpcmplt+0x28>
9d01174c:	00000000 	nop
9d011750:	1000003c 	b	9d011844 <dpcmplt+0x114>
9d011754:	24020000 	li	v0,0
9d011758:	10800002 	beqz	a0,9d011764 <dpcmplt+0x34>
9d01175c:	00054040 	sll	t0,a1,0x1
9d011760:	25080001 	addiu	t0,t0,1
9d011764:	3c01ffe0 	lui	at,0xffe0
9d011768:	34210001 	ori	at,at,0x1
9d01176c:	0101082b 	sltu	at,t0,at
9d011770:	10200037 	beqz	at,9d011850 <dpcmplt+0x120>
9d011774:	00000000 	nop
9d011778:	10c00002 	beqz	a2,9d011784 <dpcmplt+0x54>
9d01177c:	00074040 	sll	t0,a3,0x1
9d011780:	25080001 	addiu	t0,t0,1
9d011784:	3c01ffe0 	lui	at,0xffe0
9d011788:	34210001 	ori	at,at,0x1
9d01178c:	0101082b 	sltu	at,t0,at
9d011790:	1020002f 	beqz	at,9d011850 <dpcmplt+0x120>
9d011794:	00000000 	nop
9d011798:	04a10016 	bgez	a1,9d0117f4 <dpcmplt+0xc4>
9d01179c:	00000000 	nop
9d0117a0:	04e00003 	bltz	a3,9d0117b0 <dpcmplt+0x80>
9d0117a4:	00000000 	nop
9d0117a8:	10000026 	b	9d011844 <dpcmplt+0x114>
9d0117ac:	2402ffff 	li	v0,-1
9d0117b0:	0086502b 	sltu	t2,a0,a2
9d0117b4:	00862023 	subu	a0,a0,a2
9d0117b8:	00aa582b 	sltu	t3,a1,t2
9d0117bc:	00aa2823 	subu	a1,a1,t2
9d0117c0:	00a7502b 	sltu	t2,a1,a3
9d0117c4:	014b5025 	or	t2,t2,t3
9d0117c8:	11400003 	beqz	t2,9d0117d8 <dpcmplt+0xa8>
9d0117cc:	00a72823 	subu	a1,a1,a3
9d0117d0:	1000001c 	b	9d011844 <dpcmplt+0x114>
9d0117d4:	24020001 	li	v0,1
9d0117d8:	00a45025 	or	t2,a1,a0
9d0117dc:	11400003 	beqz	t2,9d0117ec <dpcmplt+0xbc>
9d0117e0:	00000000 	nop
9d0117e4:	10000017 	b	9d011844 <dpcmplt+0x114>
9d0117e8:	2402ffff 	li	v0,-1
9d0117ec:	10000015 	b	9d011844 <dpcmplt+0x114>
9d0117f0:	24020000 	li	v0,0
9d0117f4:	04e10003 	bgez	a3,9d011804 <dpcmplt+0xd4>
9d0117f8:	00000000 	nop
9d0117fc:	10000011 	b	9d011844 <dpcmplt+0x114>
9d011800:	24020001 	li	v0,1
9d011804:	0086502b 	sltu	t2,a0,a2
9d011808:	00862023 	subu	a0,a0,a2
9d01180c:	00aa582b 	sltu	t3,a1,t2
9d011810:	00aa2823 	subu	a1,a1,t2
9d011814:	00a7502b 	sltu	t2,a1,a3
9d011818:	014b5025 	or	t2,t2,t3
9d01181c:	11400003 	beqz	t2,9d01182c <dpcmplt+0xfc>
9d011820:	00a72823 	subu	a1,a1,a3
9d011824:	10000007 	b	9d011844 <dpcmplt+0x114>
9d011828:	2402ffff 	li	v0,-1
9d01182c:	00a45025 	or	t2,a1,a0
9d011830:	11400003 	beqz	t2,9d011840 <dpcmplt+0x110>
9d011834:	00000000 	nop
9d011838:	10000002 	b	9d011844 <dpcmplt+0x114>
9d01183c:	24020001 	li	v0,1
9d011840:	24020000 	li	v0,0
9d011844:	03e00008 	jr	ra
9d011848:	00000000 	nop
9d01184c:	00000000 	nop
9d011850:	1000fffc 	b	9d011844 <dpcmplt+0x114>
9d011854:	34020001 	li	v0,0x1
9d011858:	00000000 	nop

Disassembly of section .text._mon_putc:

9d01185c <_mon_putc>:
9d01185c:	3c02a000 	lui	v0,0xa000
9d011860:	8c430008 	lw	v1,8(v0)
9d011864:	14600013 	bnez	v1,9d0118b4 <_mon_putc+0x58>
9d011868:	00803025 	move	a2,a0
9d01186c:	3c020000 	lui	v0,0x0
9d011870:	27bdffe8 	addiu	sp,sp,-24
9d011874:	24420000 	addiu	v0,v0,0
9d011878:	10400006 	beqz	v0,9d011894 <_mon_putc+0x38>
9d01187c:	afbf0014 	sw	ra,20(sp)
9d011880:	0c000000 	jal	90000000 <_bmxdudba_address+0x8fff0000>
9d011884:	00000000 	nop
9d011888:	8fbf0014 	lw	ra,20(sp)
9d01188c:	03e00008 	jr	ra
9d011890:	27bd0018 	addiu	sp,sp,24
9d011894:	3c020000 	lui	v0,0x0
9d011898:	24420000 	addiu	v0,v0,0
9d01189c:	10400025 	beqz	v0,9d011934 <_mon_putc+0xd8>
9d0118a0:	3c05bf80 	lui	a1,0xbf80
9d0118a4:	0c000000 	jal	90000000 <_bmxdudba_address+0x8fff0000>
9d0118a8:	00000000 	nop
9d0118ac:	1000fff7 	b	9d01188c <_mon_putc+0x30>
9d0118b0:	8fbf0014 	lw	ra,20(sp)
9d0118b4:	3c02bf80 	lui	v0,0xbf80
9d0118b8:	24426010 	addiu	v0,v0,24592
9d0118bc:	1040002f 	beqz	v0,9d01197c <_mon_putc+0x120>
9d0118c0:	00000000 	nop
9d0118c4:	24040001 	li	a0,1
9d0118c8:	14640012 	bne	v1,a0,9d011914 <_mon_putc+0xb8>
9d0118cc:	3c03bf80 	lui	v1,0xbf80
9d0118d0:	3c03bf80 	lui	v1,0xbf80
9d0118d4:	3c04bf80 	lui	a0,0xbf80
9d0118d8:	3c05bf80 	lui	a1,0xbf80
9d0118dc:	24636020 	addiu	v1,v1,24608
9d0118e0:	24846018 	addiu	a0,a0,24600
9d0118e4:	24a56008 	addiu	a1,a1,24584
9d0118e8:	34078000 	li	a3,0x8000
9d0118ec:	aca70000 	sw	a3,0(a1)
9d0118f0:	24050400 	li	a1,1024
9d0118f4:	ac850000 	sw	a1,0(a0)
9d0118f8:	8c440000 	lw	a0,0(v0)
9d0118fc:	30840100 	andi	a0,a0,0x100
9d011900:	1080fffd 	beqz	a0,9d0118f8 <_mon_putc+0x9c>
9d011904:	00000000 	nop
9d011908:	ac660000 	sw	a2,0(v1)
9d01190c:	03e00008 	jr	ra
9d011910:	00000000 	nop
9d011914:	3c04bf80 	lui	a0,0xbf80
9d011918:	3c05bf80 	lui	a1,0xbf80
9d01191c:	3c02bf80 	lui	v0,0xbf80
9d011920:	24636220 	addiu	v1,v1,25120
9d011924:	24846218 	addiu	a0,a0,25112
9d011928:	24a56208 	addiu	a1,a1,25096
9d01192c:	1000ffee 	b	9d0118e8 <_mon_putc+0x8c>
9d011930:	24426210 	addiu	v0,v0,25104
9d011934:	24a56208 	addiu	a1,a1,25096
9d011938:	3c04bf80 	lui	a0,0xbf80
9d01193c:	34078000 	li	a3,0x8000
9d011940:	aca70000 	sw	a3,0(a1)
9d011944:	3c03bf80 	lui	v1,0xbf80
9d011948:	24846218 	addiu	a0,a0,25112
9d01194c:	3c02bf80 	lui	v0,0xbf80
9d011950:	24050400 	li	a1,1024
9d011954:	24636220 	addiu	v1,v1,25120
9d011958:	24426210 	addiu	v0,v0,25104
9d01195c:	ac850000 	sw	a1,0(a0)
9d011960:	8c440000 	lw	a0,0(v0)
9d011964:	30840100 	andi	a0,a0,0x100
9d011968:	1080fffd 	beqz	a0,9d011960 <_mon_putc+0x104>
9d01196c:	00000000 	nop
9d011970:	ac660000 	sw	a2,0(v1)
9d011974:	1000ffc5 	b	9d01188c <_mon_putc+0x30>
9d011978:	8fbf0014 	lw	ra,20(sp)
9d01197c:	03e00008 	jr	ra
9d011980:	00000000 	nop

Disassembly of section .text:

9d011984 <strcmp>:
9d011984:	00854025 	or	t0,a0,a1
9d011988:	31080003 	andi	t0,t0,0x3
9d01198c:	1500003d 	bnez	t0,9d011a84 <strcmp+0x100>
9d011990:	3c090101 	lui	t1,0x101
9d011994:	35290101 	ori	t1,t1,0x101
9d011998:	000979c0 	sll	t7,t1,0x7
9d01199c:	8c820000 	lw	v0,0(a0)
9d0119a0:	8ca30000 	lw	v1,0(a1)
9d0119a4:	00494023 	subu	t0,v0,t1
9d0119a8:	10430004 	beq	v0,v1,9d0119bc <strcmp+0x38>
9d0119ac:	010f4024 	and	t0,t0,t7
9d0119b0:	24840000 	addiu	a0,a0,0
9d0119b4:	10000033 	b	9d011a84 <strcmp+0x100>
9d0119b8:	24a50000 	addiu	a1,a1,0
9d0119bc:	11000005 	beqz	t0,9d0119d4 <strcmp+0x50>
9d0119c0:	01036024 	and	t4,t0,v1
9d0119c4:	11880003 	beq	t4,t0,9d0119d4 <strcmp+0x50>
9d0119c8:	00000000 	nop
9d0119cc:	03e00008 	jr	ra
9d0119d0:	00001025 	move	v0,zero
9d0119d4:	8c820004 	lw	v0,4(a0)
9d0119d8:	8ca30004 	lw	v1,4(a1)
9d0119dc:	00494023 	subu	t0,v0,t1
9d0119e0:	10430004 	beq	v0,v1,9d0119f4 <strcmp+0x70>
9d0119e4:	010f4024 	and	t0,t0,t7
9d0119e8:	24840004 	addiu	a0,a0,4
9d0119ec:	10000025 	b	9d011a84 <strcmp+0x100>
9d0119f0:	24a50004 	addiu	a1,a1,4
9d0119f4:	11000005 	beqz	t0,9d011a0c <strcmp+0x88>
9d0119f8:	01036024 	and	t4,t0,v1
9d0119fc:	11880003 	beq	t4,t0,9d011a0c <strcmp+0x88>
9d011a00:	00000000 	nop
9d011a04:	03e00008 	jr	ra
9d011a08:	00001025 	move	v0,zero
9d011a0c:	8c820008 	lw	v0,8(a0)
9d011a10:	8ca30008 	lw	v1,8(a1)
9d011a14:	00494023 	subu	t0,v0,t1
9d011a18:	10430004 	beq	v0,v1,9d011a2c <strcmp+0xa8>
9d011a1c:	010f4024 	and	t0,t0,t7
9d011a20:	24840008 	addiu	a0,a0,8
9d011a24:	10000017 	b	9d011a84 <strcmp+0x100>
9d011a28:	24a50008 	addiu	a1,a1,8
9d011a2c:	11000005 	beqz	t0,9d011a44 <strcmp+0xc0>
9d011a30:	01036024 	and	t4,t0,v1
9d011a34:	11880003 	beq	t4,t0,9d011a44 <strcmp+0xc0>
9d011a38:	00000000 	nop
9d011a3c:	03e00008 	jr	ra
9d011a40:	00001025 	move	v0,zero
9d011a44:	8c82000c 	lw	v0,12(a0)
9d011a48:	8ca3000c 	lw	v1,12(a1)
9d011a4c:	00494023 	subu	t0,v0,t1
9d011a50:	10430004 	beq	v0,v1,9d011a64 <strcmp+0xe0>
9d011a54:	010f4024 	and	t0,t0,t7
9d011a58:	2484000c 	addiu	a0,a0,12
9d011a5c:	10000009 	b	9d011a84 <strcmp+0x100>
9d011a60:	24a5000c 	addiu	a1,a1,12
9d011a64:	24840010 	addiu	a0,a0,16
9d011a68:	1100ffcc 	beqz	t0,9d01199c <strcmp+0x18>
9d011a6c:	24a50010 	addiu	a1,a1,16
9d011a70:	01036024 	and	t4,t0,v1
9d011a74:	1188ffca 	beq	t4,t0,9d0119a0 <strcmp+0x1c>
9d011a78:	8c820000 	lw	v0,0(a0)
9d011a7c:	03e00008 	jr	ra
9d011a80:	00001025 	move	v0,zero
9d011a84:	90880000 	lbu	t0,0(a0)
9d011a88:	90a90000 	lbu	t1,0(a1)
9d011a8c:	11000003 	beqz	t0,9d011a9c <strcmp+0x118>
9d011a90:	24840001 	addiu	a0,a0,1
9d011a94:	1109fffb 	beq	t0,t1,9d011a84 <strcmp+0x100>
9d011a98:	24a50001 	addiu	a1,a1,1
9d011a9c:	03e00008 	jr	ra
9d011aa0:	01091023 	subu	v0,t0,t1

Disassembly of section .text.logbl:

9d011aa4 <logbl>:
9d011aa4:	27bdffe0 	addiu	sp,sp,-32
9d011aa8:	afa50024 	sw	a1,36(sp)
9d011aac:	afb20018 	sw	s2,24(sp)
9d011ab0:	87b20026 	lh	s2,38(sp)
9d011ab4:	24037ff0 	li	v1,32752
9d011ab8:	afbf001c 	sw	ra,28(sp)
9d011abc:	32427ff0 	andi	v0,s2,0x7ff0
9d011ac0:	afb10014 	sw	s1,20(sp)
9d011ac4:	afb00010 	sw	s0,16(sp)
9d011ac8:	10430021 	beq	v0,v1,9d011b50 <logbl+0xac>
9d011acc:	afa40020 	sw	a0,32(sp)
9d011ad0:	14400012 	bnez	v0,9d011b1c <logbl+0x78>
9d011ad4:	00003025 	move	a2,zero
9d011ad8:	0f404581 	jal	9d011604 <__eqdf2>
9d011adc:	00003825 	move	a3,zero
9d011ae0:	1440002e 	bnez	v0,9d011b9c <logbl+0xf8>
9d011ae4:	3c029d00 	lui	v0,0x9d00
9d011ae8:	3c02a000 	lui	v0,0xa000
9d011aec:	24030021 	li	v1,33
9d011af0:	00008025 	move	s0,zero
9d011af4:	3c11ffc0 	lui	s1,0xffc0
9d011af8:	ac4353b4 	sw	v1,21428(v0)
9d011afc:	8fbf001c 	lw	ra,28(sp)
9d011b00:	02001025 	move	v0,s0
9d011b04:	02201825 	move	v1,s1
9d011b08:	8fb20018 	lw	s2,24(sp)
9d011b0c:	8fb10014 	lw	s1,20(sp)
9d011b10:	8fb00010 	lw	s0,16(sp)
9d011b14:	03e00008 	jr	ra
9d011b18:	27bd0020 	addiu	sp,sp,32
9d011b1c:	00022103 	sra	a0,v0,0x4
9d011b20:	0f404d77 	jal	9d0135dc <__floatsidf>
9d011b24:	2484fc01 	addiu	a0,a0,-1023
9d011b28:	8fbf001c 	lw	ra,28(sp)
9d011b2c:	00408025 	move	s0,v0
9d011b30:	00608825 	move	s1,v1
9d011b34:	02001025 	move	v0,s0
9d011b38:	02201825 	move	v1,s1
9d011b3c:	8fb20018 	lw	s2,24(sp)
9d011b40:	8fb10014 	lw	s1,20(sp)
9d011b44:	8fb00010 	lw	s0,16(sp)
9d011b48:	03e00008 	jr	ra
9d011b4c:	27bd0020 	addiu	sp,sp,32
9d011b50:	00803025 	move	a2,a0
9d011b54:	00a03825 	move	a3,a1
9d011b58:	00808025 	move	s0,a0
9d011b5c:	0f404581 	jal	9d011604 <__eqdf2>
9d011b60:	00a08825 	move	s1,a1
9d011b64:	1440ffe6 	bnez	v0,9d011b00 <logbl+0x5c>
9d011b68:	8fbf001c 	lw	ra,28(sp)
9d011b6c:	32527fff 	andi	s2,s2,0x7fff
9d011b70:	a7b20026 	sh	s2,38(sp)
9d011b74:	8fb00020 	lw	s0,32(sp)
9d011b78:	8fb10024 	lw	s1,36(sp)
9d011b7c:	8fbf001c 	lw	ra,28(sp)
9d011b80:	02001025 	move	v0,s0
9d011b84:	02201825 	move	v1,s1
9d011b88:	8fb20018 	lw	s2,24(sp)
9d011b8c:	8fb10014 	lw	s1,20(sp)
9d011b90:	8fb00010 	lw	s0,16(sp)
9d011b94:	03e00008 	jr	ra
9d011b98:	27bd0020 	addiu	sp,sp,32
9d011b9c:	8c51761c 	lw	s1,30236(v0)
9d011ba0:	8c507618 	lw	s0,30232(v0)
9d011ba4:	8fbf001c 	lw	ra,28(sp)
9d011ba8:	02201825 	move	v1,s1
9d011bac:	02001025 	move	v0,s0
9d011bb0:	8fb20018 	lw	s2,24(sp)
9d011bb4:	8fb10014 	lw	s1,20(sp)
9d011bb8:	8fb00010 	lw	s0,16(sp)
9d011bbc:	03e00008 	jr	ra
9d011bc0:	27bd0020 	addiu	sp,sp,32

Disassembly of section .text.realloc:

9d011bc4 <realloc>:
9d011bc4:	27bdffd8 	addiu	sp,sp,-40
9d011bc8:	afbf0024 	sw	ra,36(sp)
9d011bcc:	afb40020 	sw	s4,32(sp)
9d011bd0:	afb3001c 	sw	s3,28(sp)
9d011bd4:	afb20018 	sw	s2,24(sp)
9d011bd8:	afb10014 	sw	s1,20(sp)
9d011bdc:	afb00010 	sw	s0,16(sp)
9d011be0:	1480000d 	bnez	a0,9d011c18 <realloc+0x54>
9d011be4:	afa5002c 	sw	a1,44(sp)
9d011be8:	0f403eab 	jal	9d00faac <malloc>
9d011bec:	00a02025 	move	a0,a1
9d011bf0:	00408825 	move	s1,v0
9d011bf4:	8fbf0024 	lw	ra,36(sp)
9d011bf8:	02201025 	move	v0,s1
9d011bfc:	8fb40020 	lw	s4,32(sp)
9d011c00:	8fb3001c 	lw	s3,28(sp)
9d011c04:	8fb20018 	lw	s2,24(sp)
9d011c08:	8fb10014 	lw	s1,20(sp)
9d011c0c:	8fb00010 	lw	s0,16(sp)
9d011c10:	03e00008 	jr	ra
9d011c14:	27bd0028 	addiu	sp,sp,40
9d011c18:	00808025 	move	s0,a0
9d011c1c:	0f404f19 	jal	9d013c64 <adjust_size>
9d011c20:	27a4002c 	addiu	a0,sp,44
9d011c24:	0440002b 	bltz	v0,9d011cd4 <realloc+0x110>
9d011c28:	2413fffe 	li	s3,-2
9d011c2c:	8e02fffc 	lw	v0,-4(s0)
9d011c30:	2614fff8 	addiu	s4,s0,-8
9d011c34:	00539024 	and	s2,v0,s3
9d011c38:	02928821 	addu	s1,s4,s2
9d011c3c:	8e230000 	lw	v1,0(s1)
9d011c40:	10430003 	beq	v0,v1,9d011c50 <realloc+0x8c>
9d011c44:	8fa2002c 	lw	v0,44(sp)
9d011c48:	a0000000 	sb	zero,0(zero)
9d011c4c:	00000034 	teq	zero,zero
9d011c50:	0242102b 	sltu	v0,s2,v0
9d011c54:	10400009 	beqz	v0,9d011c7c <realloc+0xb8>
9d011c58:	02401825 	move	v1,s2
9d011c5c:	0f404e23 	jal	9d01388c <alloc_fwd>
9d011c60:	02202025 	move	a0,s1
9d011c64:	10400005 	beqz	v0,9d011c7c <realloc+0xb8>
9d011c68:	02401825 	move	v1,s2
9d011c6c:	8e220004 	lw	v0,4(s1)
9d011c70:	02629824 	and	s3,s3,v0
9d011c74:	02721821 	addu	v1,s3,s2
9d011c78:	02338821 	addu	s1,s1,s3
9d011c7c:	8fa5002c 	lw	a1,44(sp)
9d011c80:	34620001 	ori	v0,v1,0x1
9d011c84:	ae02fffc 	sw	v0,-4(s0)
9d011c88:	0065182b 	sltu	v1,v1,a1
9d011c8c:	14600005 	bnez	v1,9d011ca4 <realloc+0xe0>
9d011c90:	ae220000 	sw	v0,0(s1)
9d011c94:	0f404f2f 	jal	9d013cbc <trim>
9d011c98:	02802025 	move	a0,s4
9d011c9c:	1000ffd5 	b	9d011bf4 <realloc+0x30>
9d011ca0:	02008825 	move	s1,s0
9d011ca4:	0f403eab 	jal	9d00faac <malloc>
9d011ca8:	24a4fff8 	addiu	a0,a1,-8
9d011cac:	1040ffd1 	beqz	v0,9d011bf4 <realloc+0x30>
9d011cb0:	00408825 	move	s1,v0
9d011cb4:	2646fff8 	addiu	a2,s2,-8
9d011cb8:	02002825 	move	a1,s0
9d011cbc:	0f405173 	jal	9d0145cc <memcpy>
9d011cc0:	00402025 	move	a0,v0
9d011cc4:	0f40415a 	jal	9d010568 <free>
9d011cc8:	02002025 	move	a0,s0
9d011ccc:	1000ffca 	b	9d011bf8 <realloc+0x34>
9d011cd0:	8fbf0024 	lw	ra,36(sp)
9d011cd4:	1000ffc7 	b	9d011bf4 <realloc+0x30>
9d011cd8:	00008825 	move	s1,zero

Disassembly of section .rodata:

9d011cdc <table-0xc>:
9d011cdc:	04020100 	bltzl	zero,9d0120e0 <i49+0x14>
9d011ce0:	05060307 	0x5060307
9d011ce4:	00000000 	nop

9d011ce8 <table>:
9d011ce8:	ffffffff ffffffff ffffffff ffffffff     ................
9d011cf8:	ffffffff ffffffff ffffffff ffffffff     ................
9d011d08:	ffffffff ffffffff ffffffff ffffffff     ................
9d011d18:	020100ff 06050403 ff090807 ffffffff     ................
9d011d28:	0b0affff 0f0e0d0c 13121110 17161514     ................
9d011d38:	1b1a1918 1f1e1d1c 23222120 ffffffff     ........ !"#....
9d011d48:	0b0affff 0f0e0d0c 13121110 17161514     ................
9d011d58:	1b1a1918 1f1e1d1c 23222120 ffffffff     ........ !"#....
9d011d68:	ffffffff ffffffff ffffffff ffffffff     ................
9d011d78:	ffffffff ffffffff ffffffff ffffffff     ................
9d011d88:	ffffffff ffffffff ffffffff ffffffff     ................
9d011d98:	ffffffff ffffffff ffffffff ffffffff     ................
9d011da8:	ffffffff ffffffff ffffffff ffffffff     ................
9d011db8:	ffffffff ffffffff ffffffff ffffffff     ................
9d011dc8:	ffffffff ffffffff ffffffff ffffffff     ................
9d011dd8:	ffffffff ffffffff ffffffff ffffffff     ................
9d011de8:	000000ff                                ....

Disassembly of section .text:

9d011dec <dpfloor>:
9d011dec:	3c018000 00a13024 00053840 00073d42     ...<$0..@8..B=..
9d011dfc:	240107ff 10e1002b 00000000 24090433     ...$+.......3..$
9d011e0c:	01273823 2ce10035 1420000b 00000000     #8'.5..,.. .....
9d011e1c:	04e00020 00000000 10c0002d 00000000      .......-.......
9d011e2c:	00054840 01244825 15200026 00000000     @H..%H$.&. .....
9d011e3c:	10000027 00000000                       '.......

9d011e44 <i1>:
9d011e44:	10c00005 	beqz	a2,9d011e5c <i3>
9d011e48:	00000000 	nop
9d011e4c:	0004482b 	sltu	t1,zero,a0
9d011e50:	00042023 	negu	a0,a0
9d011e54:	00052823 	negu	a1,a1
9d011e58:	00a92823 	subu	a1,a1,t1

9d011e5c <i3>:
9d011e5c:	30e9001f 	andi	t1,a3,0x1f
9d011e60:	24080001 	li	t0,1
9d011e64:	01284004 	sllv	t0,t0,t1
9d011e68:	00084023 	negu	t0,t0
9d011e6c:	2ce10020 	sltiu	at,a3,32
9d011e70:	14200004 	bnez	at,9d011e84 <i4>
9d011e74:	00000000 	nop
9d011e78:	24040000 	li	a0,0
9d011e7c:	10000002 	b	9d011e88 <e4>
9d011e80:	00a82824 	and	a1,a1,t0

9d011e84 <i4>:
9d011e84:	00882024 	and	a0,a0,t0

9d011e88 <e4>:
9d011e88:	10c00005 	beqz	a2,9d011ea0 <Aret>
9d011e8c:	00000000 	nop
9d011e90:	0004482b 	sltu	t1,zero,a0
9d011e94:	00042023 	negu	a0,a0
9d011e98:	00052823 	negu	a1,a1
9d011e9c:	00a92823 	subu	a1,a1,t1

9d011ea0 <Aret>:
9d011ea0:	00041025 	or	v0,zero,a0
9d011ea4:	00051825 	or	v1,zero,a1

9d011ea8 <A999>:
9d011ea8:	03e00008 	jr	ra
9d011eac:	00000000 	nop

9d011eb0 <Aspec>:
9d011eb0:	3c01000f 	lui	at,0xf
9d011eb4:	3421ffff 	ori	at,at,0xffff
9d011eb8:	00a14824 	and	t1,a1,at
9d011ebc:	01244825 	or	t1,t1,a0
9d011ec0:	15200009 	bnez	t1,9d011ee8 <Anan>
9d011ec4:	00000000 	nop
9d011ec8:	1000fff5 	b	9d011ea0 <Aret>
9d011ecc:	00000000 	nop

9d011ed0 <Amin1>:
9d011ed0:	3c05bff0 	lui	a1,0xbff0
9d011ed4:	1000fff2 	b	9d011ea0 <Aret>
9d011ed8:	24040000 	li	a0,0

9d011edc <Azer>:
9d011edc:	00062825 	or	a1,zero,a2
9d011ee0:	1000ffef 	b	9d011ea0 <Aret>
9d011ee4:	24040000 	li	a0,0

9d011ee8 <Anan>:
9d011ee8:	3c05fff8 	lui	a1,0xfff8
9d011eec:	1000ffec 	b	9d011ea0 <Aret>
9d011ef0:	24040000 	li	a0,0

Disassembly of section .text.__pad:

9d011ef4 <__pad>:
9d011ef4:	27bdffc0 	addiu	sp,sp,-64
9d011ef8:	afb3002c 	sw	s3,44(sp)
9d011efc:	8fb30050 	lw	s3,80(sp)
9d011f00:	afb60038 	sw	s6,56(sp)
9d011f04:	afb40030 	sw	s4,48(sp)
9d011f08:	32730001 	andi	s3,s3,0x1
9d011f0c:	afb20028 	sw	s2,40(sp)
9d011f10:	afb10024 	sw	s1,36(sp)
9d011f14:	afb00020 	sw	s0,32(sp)
9d011f18:	afbf003c 	sw	ra,60(sp)
9d011f1c:	afb50034 	sw	s5,52(sp)
9d011f20:	00809025 	move	s2,a0
9d011f24:	00a0b025 	move	s6,a1
9d011f28:	00c08025 	move	s0,a2
9d011f2c:	00e08825 	move	s1,a3
9d011f30:	16600003 	bnez	s3,9d011f40 <__pad+0x4c>
9d011f34:	00c7a02b 	sltu	s4,a2,a3
9d011f38:	56800013 	bnezl	s4,9d011f88 <__pad+0x94>
9d011f3c:	0230a023 	subu	s4,s1,s0
9d011f40:	02003025 	move	a2,s0
9d011f44:	02c02825 	move	a1,s6
9d011f48:	0f404c30 	jal	9d0130c0 <__out>
9d011f4c:	02402025 	move	a0,s2
9d011f50:	1680000d 	bnez	s4,9d011f88 <__pad+0x94>
9d011f54:	0230a023 	subu	s4,s1,s0
9d011f58:	02008825 	move	s1,s0
9d011f5c:	8fbf003c 	lw	ra,60(sp)
9d011f60:	02201025 	move	v0,s1
9d011f64:	8fb60038 	lw	s6,56(sp)
9d011f68:	8fb50034 	lw	s5,52(sp)
9d011f6c:	8fb40030 	lw	s4,48(sp)
9d011f70:	8fb3002c 	lw	s3,44(sp)
9d011f74:	8fb20028 	lw	s2,40(sp)
9d011f78:	8fb10024 	lw	s1,36(sp)
9d011f7c:	8fb00020 	lw	s0,32(sp)
9d011f80:	03e00008 	jr	ra
9d011f84:	27bd0040 	addiu	sp,sp,64
9d011f88:	2e860011 	sltiu	a2,s4,17
9d011f8c:	24020010 	li	v0,16
9d011f90:	0286100b 	movn	v0,s4,a2
9d011f94:	00403025 	move	a2,v0
9d011f98:	24050020 	li	a1,32
9d011f9c:	27a40010 	addiu	a0,sp,16
9d011fa0:	0f4051de 	jal	9d014778 <memset>
9d011fa4:	0280a825 	move	s5,s4
9d011fa8:	2ea20010 	sltiu	v0,s5,16
9d011fac:	1040000b 	beqz	v0,9d011fdc <__pad+0xe8>
9d011fb0:	3286000f 	andi	a2,s4,0xf
9d011fb4:	27a50010 	addiu	a1,sp,16
9d011fb8:	0f404c30 	jal	9d0130c0 <__out>
9d011fbc:	02402025 	move	a0,s2
9d011fc0:	1660ffe6 	bnez	s3,9d011f5c <__pad+0x68>
9d011fc4:	02003025 	move	a2,s0
9d011fc8:	02c02825 	move	a1,s6
9d011fcc:	0f404c30 	jal	9d0130c0 <__out>
9d011fd0:	02402025 	move	a0,s2
9d011fd4:	1000ffe2 	b	9d011f60 <__pad+0x6c>
9d011fd8:	8fbf003c 	lw	ra,60(sp)
9d011fdc:	24060010 	li	a2,16
9d011fe0:	27a50010 	addiu	a1,sp,16
9d011fe4:	0f404c30 	jal	9d0130c0 <__out>
9d011fe8:	02402025 	move	a0,s2
9d011fec:	1000ffee 	b	9d011fa8 <__pad+0xb4>
9d011ff0:	26b5fff0 	addiu	s5,s5,-16

Disassembly of section .text.dptofp:

9d011ff4 <__truncdfsf2>:
9d011ff4:	00053ac0 00045d42 00eb3825 000432c0     .:..B]..%8...2..
9d012004:	3c018000 00e13825 3c018000 00a14824     ...<%8.....<$H..
9d012014:	00054040 00084542 2508fc80 250bffff     @@..BE.....%...%
9d012024:	2d6100fe 10200012 00000000              ..a-.. .....

9d012030 <Hlab1>:
9d012030:	10c00002 	beqz	a2,9d01203c <i45>
9d012034:	00000000 	nop
9d012038:	34e70001 	ori	a3,a3,0x1

9d01203c <i45>:
9d01203c:	24e70080 	addiu	a3,a3,128
9d012040:	2ceb0080 	sltiu	t3,a3,128
9d012044:	010b4021 	addu	t0,t0,t3
9d012048:	00075a02 	srl	t3,a3,0x8
9d01204c:	316b0001 	andi	t3,t3,0x1
9d012050:	00eb3823 	subu	a3,a3,t3
9d012054:	00073840 	sll	a3,a3,0x1
9d012058:	00073a42 	srl	a3,a3,0x9
9d01205c:	00085dc0 	sll	t3,t0,0x17
9d012060:	00eb3825 	or	a3,a3,t3
9d012064:	00e91025 	or	v0,a3,t1

9d012068 <H999>:
9d012068:	03e00008 	jr	ra
9d01206c:	00000000 	nop
9d012070:	00000000 	nop

9d012074 <Hspec>:
9d012074:	2401047f 	li	at,1151
9d012078:	15010007 	bne	t0,at,9d012098 <i46>
9d01207c:	00000000 	nop
9d012080:	00075840 	sll	t3,a3,0x1
9d012084:	01665825 	or	t3,t3,a2
9d012088:	11600003 	beqz	t3,9d012098 <i46>
9d01208c:	00000000 	nop
9d012090:	1000fff5 	b	9d012068 <H999>
9d012094:	3c02ffc0 	lui	v0,0xffc0

9d012098 <i46>:
9d012098:	290100ff 	slti	at,t0,255
9d01209c:	14200004 	bnez	at,9d0120b0 <i48>
9d0120a0:	00000000 	nop
9d0120a4:	3c017f80 	lui	at,0x7f80
9d0120a8:	1000ffef 	b	9d012068 <H999>
9d0120ac:	01211025 	or	v0,t1,at

9d0120b0 <i48>:
9d0120b0:	240a0001 	li	t2,1
9d0120b4:	01485023 	subu	t2,t2,t0
9d0120b8:	2d410020 	sltiu	at,t2,32
9d0120bc:	14200003 	bnez	at,9d0120cc <i49>
9d0120c0:	00000000 	nop
9d0120c4:	1000ffe8 	b	9d012068 <H999>
9d0120c8:	00091025 	or	v0,zero,t1

9d0120cc <i49>:
9d0120cc:	240c0020 	li	t4,32
9d0120d0:	018a6023 	subu	t4,t4,t2
9d0120d4:	01875804 	sllv	t3,a3,t4
9d0120d8:	00cb3025 	or	a2,a2,t3
9d0120dc:	01473806 	srlv	a3,a3,t2
9d0120e0:	24080000 	li	t0,0
9d0120e4:	3c018000 	lui	at,0x8000
9d0120e8:	1000ffd1 	b	9d012030 <Hlab1>
9d0120ec:	00e13825 	or	a3,a3,at
9d0120f0:	00000000 	nop

Disassembly of section .text.scalbn:

9d0120f4 <scalbn>:
9d0120f4:	27bdffe0 	addiu	sp,sp,-32
9d0120f8:	afb10014 	sw	s1,20(sp)
9d0120fc:	00c08825 	move	s1,a2
9d012100:	28c60400 	slti	a2,a2,1024
9d012104:	afbf001c 	sw	ra,28(sp)
9d012108:	afb20018 	sw	s2,24(sp)
9d01210c:	14c0001f 	bnez	a2,9d01218c <scalbn+0x98>
9d012110:	afb00010 	sw	s0,16(sp)
9d012114:	3c129d00 	lui	s2,0x9d00
9d012118:	8e467658 	lw	a2,30296(s2)
9d01211c:	8e47765c 	lw	a3,30300(s2)
9d012120:	0f403be4 	jal	9d00ef90 <__muldf3>
9d012124:	2630fc01 	addiu	s0,s1,-1023
9d012128:	2a040400 	slti	a0,s0,1024
9d01212c:	14800009 	bnez	a0,9d012154 <scalbn+0x60>
9d012130:	8e467658 	lw	a2,30296(s2)
9d012134:	8e47765c 	lw	a3,30300(s2)
9d012138:	00402025 	move	a0,v0
9d01213c:	00602825 	move	a1,v1
9d012140:	0f403be4 	jal	9d00ef90 <__muldf3>
9d012144:	2630f802 	addiu	s0,s1,-2046
9d012148:	2a050400 	slti	a1,s0,1024
9d01214c:	240403ff 	li	a0,1023
9d012150:	0085800a 	movz	s0,a0,a1
9d012154:	261003ff 	addiu	s0,s0,1023
9d012158:	00102500 	sll	a0,s0,0x14
9d01215c:	00002825 	move	a1,zero
9d012160:	00a03025 	move	a2,a1
9d012164:	00803825 	move	a3,a0
9d012168:	00602825 	move	a1,v1
9d01216c:	0f403be4 	jal	9d00ef90 <__muldf3>
9d012170:	00402025 	move	a0,v0
9d012174:	8fbf001c 	lw	ra,28(sp)
9d012178:	8fb20018 	lw	s2,24(sp)
9d01217c:	8fb10014 	lw	s1,20(sp)
9d012180:	8fb00010 	lw	s0,16(sp)
9d012184:	03e00008 	jr	ra
9d012188:	27bd0020 	addiu	sp,sp,32
9d01218c:	2a26fc02 	slti	a2,s1,-1022
9d012190:	00801025 	move	v0,a0
9d012194:	00a01825 	move	v1,a1
9d012198:	10c0ffee 	beqz	a2,9d012154 <scalbn+0x60>
9d01219c:	02208025 	move	s0,s1
9d0121a0:	3c129d00 	lui	s2,0x9d00
9d0121a4:	8e467660 	lw	a2,30304(s2)
9d0121a8:	8e477664 	lw	a3,30308(s2)
9d0121ac:	0f403be4 	jal	9d00ef90 <__muldf3>
9d0121b0:	263003c9 	addiu	s0,s1,969
9d0121b4:	2a04fc02 	slti	a0,s0,-1022
9d0121b8:	1080ffe6 	beqz	a0,9d012154 <scalbn+0x60>
9d0121bc:	8e467660 	lw	a2,30304(s2)
9d0121c0:	8e477664 	lw	a3,30308(s2)
9d0121c4:	00402025 	move	a0,v0
9d0121c8:	00602825 	move	a1,v1
9d0121cc:	0f403be4 	jal	9d00ef90 <__muldf3>
9d0121d0:	26300792 	addiu	s0,s1,1938
9d0121d4:	2a05fc02 	slti	a1,s0,-1022
9d0121d8:	2404fc02 	li	a0,-1022
9d0121dc:	1000ffdd 	b	9d012154 <scalbn+0x60>
9d0121e0:	0085800b 	movn	s0,a0,a1

Disassembly of section .text.__pop_ptr:

9d0121e4 <__pop_ptr>:
9d0121e4:	24020084 	li	v0,132
9d0121e8:	50a20022 	beql	a1,v0,9d012274 <__pop_ptr+0x90>
9d0121ec:	8ce20000 	lw	v0,0(a3)
9d0121f0:	28a20085 	slti	v0,a1,133
9d0121f4:	10400010 	beqz	v0,9d012238 <__pop_ptr+0x54>
9d0121f8:	24020081 	li	v0,129
9d0121fc:	50a20008 	beql	a1,v0,9d012220 <__pop_ptr+0x3c>
9d012200:	8ce20000 	lw	v0,0(a3)
9d012204:	24020082 	li	v0,130
9d012208:	50a20027 	beql	a1,v0,9d0122a8 <__pop_ptr+0xc4>
9d01220c:	8ce20000 	lw	v0,0(a3)
9d012210:	24020080 	li	v0,128
9d012214:	14a20010 	bne	a1,v0,9d012258 <__pop_ptr+0x74>
9d012218:	00000000 	nop
9d01221c:	8ce20000 	lw	v0,0(a3)
9d012220:	24430004 	addiu	v1,v0,4
9d012224:	ace30000 	sw	v1,0(a3)
9d012228:	8c420000 	lw	v0,0(v0)
9d01222c:	ac820000 	sw	v0,0(a0)
9d012230:	10000015 	b	9d012288 <__pop_ptr+0xa4>
9d012234:	ac460000 	sw	a2,0(v0)
9d012238:	24020090 	li	v0,144
9d01223c:	50a2001a 	beql	a1,v0,9d0122a8 <__pop_ptr+0xc4>
9d012240:	8ce20000 	lw	v0,0(a3)
9d012244:	28a20091 	slti	v0,a1,145
9d012248:	10400005 	beqz	v0,9d012260 <__pop_ptr+0x7c>
9d01224c:	24020088 	li	v0,136
9d012250:	50a2000f 	beql	a1,v0,9d012290 <__pop_ptr+0xac>
9d012254:	8ce20000 	lw	v0,0(a3)
9d012258:	03e00008 	jr	ra
9d01225c:	00001025 	move	v0,zero
9d012260:	240200a0 	li	v0,160
9d012264:	50a2ffee 	beql	a1,v0,9d012220 <__pop_ptr+0x3c>
9d012268:	8ce20000 	lw	v0,0(a3)
9d01226c:	1000ffe9 	b	9d012214 <__pop_ptr+0x30>
9d012270:	240200c0 	li	v0,192
9d012274:	24430004 	addiu	v1,v0,4
9d012278:	ace30000 	sw	v1,0(a3)
9d01227c:	8c420000 	lw	v0,0(v0)
9d012280:	ac820000 	sw	v0,0(a0)
9d012284:	a4460000 	sh	a2,0(v0)
9d012288:	03e00008 	jr	ra
9d01228c:	24020001 	li	v0,1
9d012290:	24430004 	addiu	v1,v0,4
9d012294:	ace30000 	sw	v1,0(a3)
9d012298:	8c420000 	lw	v0,0(v0)
9d01229c:	ac820000 	sw	v0,0(a0)
9d0122a0:	1000fff9 	b	9d012288 <__pop_ptr+0xa4>
9d0122a4:	a0460000 	sb	a2,0(v0)
9d0122a8:	24430004 	addiu	v1,v0,4
9d0122ac:	ace30000 	sw	v1,0(a3)
9d0122b0:	8c420000 	lw	v0,0(v0)
9d0122b4:	ac820000 	sw	v0,0(a0)
9d0122b8:	ac460000 	sw	a2,0(v0)
9d0122bc:	000637c3 	sra	a2,a2,0x1f
9d0122c0:	1000fff1 	b	9d012288 <__pop_ptr+0xa4>
9d0122c4:	ac460004 	sw	a2,4(v0)

Disassembly of section .text.general_exception:

9d0122c8 <_general_exception_context>:
9d0122c8:	27bdffa8 	addiu	sp,sp,-88
9d0122cc:	afa10004 	sw	at,4(sp)
9d0122d0:	afa20008 	sw	v0,8(sp)
9d0122d4:	afa3000c 	sw	v1,12(sp)
9d0122d8:	afa40010 	sw	a0,16(sp)
9d0122dc:	afa50014 	sw	a1,20(sp)
9d0122e0:	afa60018 	sw	a2,24(sp)
9d0122e4:	afa7001c 	sw	a3,28(sp)
9d0122e8:	afa80020 	sw	t0,32(sp)
9d0122ec:	afa90024 	sw	t1,36(sp)
9d0122f0:	afaa0028 	sw	t2,40(sp)
9d0122f4:	afab002c 	sw	t3,44(sp)
9d0122f8:	afac0030 	sw	t4,48(sp)
9d0122fc:	afad0034 	sw	t5,52(sp)
9d012300:	afae0038 	sw	t6,56(sp)
9d012304:	afaf003c 	sw	t7,60(sp)
9d012308:	afb80040 	sw	t8,64(sp)
9d01230c:	afb90044 	sw	t9,68(sp)
9d012310:	afbf0048 	sw	ra,72(sp)
9d012314:	00004012 	mflo	t0
9d012318:	afa8004c 	sw	t0,76(sp)
9d01231c:	00004010 	mfhi	t0
9d012320:	afa80050 	sw	t0,80(sp)
9d012324:	3c1a9d01 	lui	k0,0x9d01
9d012328:	275a3f84 	addiu	k0,k0,16260
9d01232c:	00000000 	nop
9d012330:	40046800 	mfc0	a0,c0_cause
9d012334:	40056000 	mfc0	a1,c0_status
9d012338:	0340f809 	jalr	k0
9d01233c:	00000000 	nop
9d012340:	8fa80050 	lw	t0,80(sp)
9d012344:	01000011 	mthi	t0
9d012348:	8fa8004c 	lw	t0,76(sp)
9d01234c:	01000013 	mtlo	t0
9d012350:	8fa10004 	lw	at,4(sp)
9d012354:	8fa20008 	lw	v0,8(sp)
9d012358:	8fa3000c 	lw	v1,12(sp)
9d01235c:	8fa40010 	lw	a0,16(sp)
9d012360:	8fa50014 	lw	a1,20(sp)
9d012364:	8fa60018 	lw	a2,24(sp)
9d012368:	8fa7001c 	lw	a3,28(sp)
9d01236c:	8fa80020 	lw	t0,32(sp)
9d012370:	8fa90024 	lw	t1,36(sp)
9d012374:	8faa0028 	lw	t2,40(sp)
9d012378:	8fab002c 	lw	t3,44(sp)
9d01237c:	8fac0030 	lw	t4,48(sp)
9d012380:	8fad0034 	lw	t5,52(sp)
9d012384:	8fae0038 	lw	t6,56(sp)
9d012388:	8faf003c 	lw	t7,60(sp)
9d01238c:	8fb80040 	lw	t8,64(sp)
9d012390:	8fb90044 	lw	t9,68(sp)
9d012394:	8fbf0048 	lw	ra,72(sp)
9d012398:	27bd0058 	addiu	sp,sp,88
9d01239c:	000000c0 	ehb
9d0123a0:	42000018 	eret

Disassembly of section .text.__stdio_read:

9d0123a4 <__stdio_read>:
9d0123a4:	8c83000c 	lw	v1,12(a0)
9d0123a8:	27bdffd0 	addiu	sp,sp,-48
9d0123ac:	afb00020 	sw	s0,32(sp)
9d0123b0:	0003102b 	sltu	v0,zero,v1
9d0123b4:	00c21023 	subu	v0,a2,v0
9d0123b8:	00808025 	move	s0,a0
9d0123bc:	afa20014 	sw	v0,20(sp)
9d0123c0:	8c820008 	lw	v0,8(a0)
9d0123c4:	8c840000 	lw	a0,0(a0)
9d0123c8:	afb20028 	sw	s2,40(sp)
9d0123cc:	afb10024 	sw	s1,36(sp)
9d0123d0:	00a09025 	move	s2,a1
9d0123d4:	00c08825 	move	s1,a2
9d0123d8:	afa50010 	sw	a1,16(sp)
9d0123dc:	24060002 	li	a2,2
9d0123e0:	27a50010 	addiu	a1,sp,16
9d0123e4:	afbf002c 	sw	ra,44(sp)
9d0123e8:	afa20018 	sw	v0,24(sp)
9d0123ec:	0f404d58 	jal	9d013560 <readv>
9d0123f0:	afa3001c 	sw	v1,28(sp)
9d0123f4:	1c400007 	bgtz	v0,9d012414 <__stdio_read+0x70>
9d0123f8:	30430018 	andi	v1,v0,0x18
9d0123fc:	38640008 	xori	a0,v1,0x8
9d012400:	8e030004 	lw	v1,4(s0)
9d012404:	00641825 	or	v1,v1,a0
9d012408:	ae030004 	sw	v1,4(s0)
9d01240c:	10000011 	b	9d012454 <__stdio_read+0xb0>
9d012410:	00408825 	move	s1,v0
9d012414:	8fa40014 	lw	a0,20(sp)
9d012418:	0082182b 	sltu	v1,a0,v0
9d01241c:	5060000d 	beqzl	v1,9d012454 <__stdio_read+0xb0>
9d012420:	00408825 	move	s1,v0
9d012424:	8e030008 	lw	v1,8(s0)
9d012428:	00441023 	subu	v0,v0,a0
9d01242c:	00621021 	addu	v0,v1,v0
9d012430:	ae020040 	sw	v0,64(s0)
9d012434:	8e02000c 	lw	v0,12(s0)
9d012438:	10400006 	beqz	v0,9d012454 <__stdio_read+0xb0>
9d01243c:	ae03003c 	sw	v1,60(s0)
9d012440:	24620001 	addiu	v0,v1,1
9d012444:	ae02003c 	sw	v0,60(s0)
9d012448:	90620000 	lbu	v0,0(v1)
9d01244c:	02519021 	addu	s2,s2,s1
9d012450:	a242ffff 	sb	v0,-1(s2)
9d012454:	8fbf002c 	lw	ra,44(sp)
9d012458:	02201025 	move	v0,s1
9d01245c:	8fb20028 	lw	s2,40(sp)
9d012460:	8fb10024 	lw	s1,36(sp)
9d012464:	8fb00020 	lw	s0,32(sp)
9d012468:	03e00008 	jr	ra
9d01246c:	27bd0030 	addiu	sp,sp,48

Disassembly of section .text.__stdio_seek_rw:

9d012470 <__stdio_seek_rw>:
9d012470:	27bdffe0 	addiu	sp,sp,-32
9d012474:	24020001 	li	v0,1
9d012478:	afb20018 	sw	s2,24(sp)
9d01247c:	afb10014 	sw	s1,20(sp)
9d012480:	afb00010 	sw	s0,16(sp)
9d012484:	afbf001c 	sw	ra,28(sp)
9d012488:	00808025 	move	s0,a0
9d01248c:	00c09025 	move	s2,a2
9d012490:	14c20005 	bne	a2,v0,9d0124a8 <__stdio_seek_rw+0x38>
9d012494:	00a08825 	move	s1,a1
9d012498:	8c820040 	lw	v0,64(a0)
9d01249c:	8c83003c 	lw	v1,60(a0)
9d0124a0:	00431023 	subu	v0,v0,v1
9d0124a4:	00a28823 	subu	s1,a1,v0
9d0124a8:	8e020004 	lw	v0,4(s0)
9d0124ac:	30420020 	andi	v0,v0,0x20
9d0124b0:	1040000a 	beqz	v0,9d0124dc <__stdio_seek_rw+0x6c>
9d0124b4:	02403025 	move	a2,s2
9d0124b8:	8e020014 	lw	v0,20(s0)
9d0124bc:	8e030018 	lw	v1,24(s0)
9d0124c0:	0062102b 	sltu	v0,v1,v0
9d0124c4:	5440000d 	bnezl	v0,9d0124fc <__stdio_seek_rw+0x8c>
9d0124c8:	8e02002c 	lw	v0,44(s0)
9d0124cc:	ae000028 	sw	zero,40(s0)
9d0124d0:	ae000018 	sw	zero,24(s0)
9d0124d4:	ae000014 	sw	zero,20(s0)
9d0124d8:	02403025 	move	a2,s2
9d0124dc:	02202825 	move	a1,s1
9d0124e0:	0f405017 	jal	9d01405c <__stdio_seek_unbuffered>
9d0124e4:	02002025 	move	a0,s0
9d0124e8:	0440000b 	bltz	v0,9d012518 <__stdio_seek_rw+0xa8>
9d0124ec:	00001025 	move	v0,zero
9d0124f0:	ae000040 	sw	zero,64(s0)
9d0124f4:	10000009 	b	9d01251c <__stdio_seek_rw+0xac>
9d0124f8:	ae00003c 	sw	zero,60(s0)
9d0124fc:	00003025 	move	a2,zero
9d012500:	00002825 	move	a1,zero
9d012504:	0040f809 	jalr	v0
9d012508:	02002025 	move	a0,s0
9d01250c:	8e020014 	lw	v0,20(s0)
9d012510:	5440ffef 	bnezl	v0,9d0124d0 <__stdio_seek_rw+0x60>
9d012514:	ae000028 	sw	zero,40(s0)
9d012518:	2402ffff 	li	v0,-1
9d01251c:	8fbf001c 	lw	ra,28(sp)
9d012520:	8fb20018 	lw	s2,24(sp)
9d012524:	8fb10014 	lw	s1,20(sp)
9d012528:	8fb00010 	lw	s0,16(sp)
9d01252c:	03e00008 	jr	ra
9d012530:	27bd0020 	addiu	sp,sp,32

Disassembly of section .text.__stdio_close_rw:

9d012534 <__stdio_close_rw>:
9d012534:	14800003 	bnez	a0,9d012544 <__stdio_close_rw+0x10>
9d012538:	00001025 	move	v0,zero
9d01253c:	03e00008 	jr	ra
9d012540:	00000000 	nop
9d012544:	8c820004 	lw	v0,4(a0)
9d012548:	27bdffe0 	addiu	sp,sp,-32
9d01254c:	afb10018 	sw	s1,24(sp)
9d012550:	30420020 	andi	v0,v0,0x20
9d012554:	afb00014 	sw	s0,20(sp)
9d012558:	afbf001c 	sw	ra,28(sp)
9d01255c:	00808025 	move	s0,a0
9d012560:	10400009 	beqz	v0,9d012588 <__stdio_close_rw+0x54>
9d012564:	00a08825 	move	s1,a1
9d012568:	8c820014 	lw	v0,20(a0)
9d01256c:	8c830018 	lw	v1,24(a0)
9d012570:	0062102b 	sltu	v0,v1,v0
9d012574:	54400014 	bnezl	v0,9d0125c8 <__stdio_close_rw+0x94>
9d012578:	8c82002c 	lw	v0,44(a0)
9d01257c:	ae000028 	sw	zero,40(s0)
9d012580:	ae000018 	sw	zero,24(s0)
9d012584:	ae000014 	sw	zero,20(s0)
9d012588:	8e05003c 	lw	a1,60(s0)
9d01258c:	8e020040 	lw	v0,64(s0)
9d012590:	00a2182b 	sltu	v1,a1,v0
9d012594:	10600004 	beqz	v1,9d0125a8 <__stdio_close_rw+0x74>
9d012598:	24060001 	li	a2,1
9d01259c:	8e040000 	lw	a0,0(s0)
9d0125a0:	0f4052f3 	jal	9d014bcc <lseek>
9d0125a4:	00a22823 	subu	a1,a1,v0
9d0125a8:	ae000040 	sw	zero,64(s0)
9d0125ac:	ae00003c 	sw	zero,60(s0)
9d0125b0:	1220000b 	beqz	s1,9d0125e0 <__stdio_close_rw+0xac>
9d0125b4:	00001025 	move	v0,zero
9d0125b8:	0f4052f5 	jal	9d014bd4 <close>
9d0125bc:	8e040000 	lw	a0,0(s0)
9d0125c0:	10000008 	b	9d0125e4 <__stdio_close_rw+0xb0>
9d0125c4:	8fbf001c 	lw	ra,28(sp)
9d0125c8:	00003025 	move	a2,zero
9d0125cc:	0040f809 	jalr	v0
9d0125d0:	00002825 	move	a1,zero
9d0125d4:	8e030014 	lw	v1,20(s0)
9d0125d8:	1460ffe8 	bnez	v1,9d01257c <__stdio_close_rw+0x48>
9d0125dc:	2402ffff 	li	v0,-1
9d0125e0:	8fbf001c 	lw	ra,28(sp)
9d0125e4:	8fb10018 	lw	s1,24(sp)
9d0125e8:	8fb00014 	lw	s0,20(sp)
9d0125ec:	03e00008 	jr	ra
9d0125f0:	27bd0020 	addiu	sp,sp,32

Disassembly of section .text.strtox:

9d0125f4 <strtox>:
9d0125f4:	27bdff78 	addiu	sp,sp,-136
9d0125f8:	afb20080 	sw	s2,128(sp)
9d0125fc:	afb1007c 	sw	s1,124(sp)
9d012600:	afb00078 	sw	s0,120(sp)
9d012604:	afbf0084 	sw	ra,132(sp)
9d012608:	00808025 	move	s0,a0
9d01260c:	00a08825 	move	s1,a1
9d012610:	00c09025 	move	s2,a2
9d012614:	afa0001c 	sw	zero,28(sp)
9d012618:	afa40054 	sw	a0,84(sp)
9d01261c:	afa40020 	sw	a0,32(sp)
9d012620:	04800004 	bltz	a0,9d012634 <strtox+0x40>
9d012624:	2402ffff 	li	v0,-1
9d012628:	3c027fff 	lui	v0,0x7fff
9d01262c:	3442ffff 	ori	v0,v0,0xffff
9d012630:	00821021 	addu	v0,a0,v0
9d012634:	00002825 	move	a1,zero
9d012638:	27a40018 	addiu	a0,sp,24
9d01263c:	0f405189 	jal	9d014624 <__shlim>
9d012640:	afa20058 	sw	v0,88(sp)
9d012644:	8fa20098 	lw	v0,152(sp)
9d012648:	8fa3009c 	lw	v1,156(sp)
9d01264c:	02402825 	move	a1,s2
9d012650:	27a40018 	addiu	a0,sp,24
9d012654:	afa20010 	sw	v0,16(sp)
9d012658:	afa30014 	sw	v1,20(sp)
9d01265c:	0f402f9e 	jal	9d00be78 <__intscan>
9d012660:	24060001 	li	a2,1
9d012664:	00402025 	move	a0,v0
9d012668:	12200008 	beqz	s1,9d01268c <strtox+0x98>
9d01266c:	00602825 	move	a1,v1
9d012670:	8fa20058 	lw	v0,88(sp)
9d012674:	8fa30054 	lw	v1,84(sp)
9d012678:	00621823 	subu	v1,v1,v0
9d01267c:	8fa2006c 	lw	v0,108(sp)
9d012680:	00621821 	addu	v1,v1,v0
9d012684:	02038021 	addu	s0,s0,v1
9d012688:	ae300000 	sw	s0,0(s1)
9d01268c:	8fbf0084 	lw	ra,132(sp)
9d012690:	00801025 	move	v0,a0
9d012694:	00a01825 	move	v1,a1
9d012698:	8fb20080 	lw	s2,128(sp)
9d01269c:	8fb1007c 	lw	s1,124(sp)
9d0126a0:	8fb00078 	lw	s0,120(sp)
9d0126a4:	03e00008 	jr	ra
9d0126a8:	27bd0088 	addiu	sp,sp,136

Disassembly of section .text.__shgetc:

9d0126ac <__shgetc>:
9d0126ac:	8c820050 	lw	v0,80(a0)
9d0126b0:	27bdffe8 	addiu	sp,sp,-24
9d0126b4:	afb00010 	sw	s0,16(sp)
9d0126b8:	afbf0014 	sw	ra,20(sp)
9d0126bc:	1040000b 	beqz	v0,9d0126ec <__shgetc+0x40>
9d0126c0:	00808025 	move	s0,a0
9d0126c4:	8c830054 	lw	v1,84(a0)
9d0126c8:	0062102a 	slt	v0,v1,v0
9d0126cc:	14400007 	bnez	v0,9d0126ec <__shgetc+0x40>
9d0126d0:	00000000 	nop
9d0126d4:	ae00004c 	sw	zero,76(s0)
9d0126d8:	2402ffff 	li	v0,-1
9d0126dc:	8fbf0014 	lw	ra,20(sp)
9d0126e0:	8fb00010 	lw	s0,16(sp)
9d0126e4:	03e00008 	jr	ra
9d0126e8:	27bd0018 	addiu	sp,sp,24
9d0126ec:	0f404f5a 	jal	9d013d68 <__uflow>
9d0126f0:	02002025 	move	a0,s0
9d0126f4:	0442fff8 	bltzl	v0,9d0126d8 <__shgetc+0x2c>
9d0126f8:	ae00004c 	sw	zero,76(s0)
9d0126fc:	8e030040 	lw	v1,64(s0)
9d012700:	8e040050 	lw	a0,80(s0)
9d012704:	8e05003c 	lw	a1,60(s0)
9d012708:	10800009 	beqz	a0,9d012730 <__shgetc+0x84>
9d01270c:	00603025 	move	a2,v1
9d012710:	8e060054 	lw	a2,84(s0)
9d012714:	00653823 	subu	a3,v1,a1
9d012718:	00862023 	subu	a0,a0,a2
9d01271c:	00e4382a 	slt	a3,a3,a0
9d012720:	14e00003 	bnez	a3,9d012730 <__shgetc+0x84>
9d012724:	00603025 	move	a2,v1
9d012728:	2484ffff 	addiu	a0,a0,-1
9d01272c:	00a43021 	addu	a2,a1,a0
9d012730:	10600006 	beqz	v1,9d01274c <__shgetc+0xa0>
9d012734:	ae06004c 	sw	a2,76(s0)
9d012738:	8e040054 	lw	a0,84(s0)
9d01273c:	00651823 	subu	v1,v1,a1
9d012740:	24630001 	addiu	v1,v1,1
9d012744:	00831821 	addu	v1,a0,v1
9d012748:	ae030054 	sw	v1,84(s0)
9d01274c:	90a3ffff 	lbu	v1,-1(a1)
9d012750:	5462ffe2 	bnel	v1,v0,9d0126dc <__shgetc+0x30>
9d012754:	a0a2ffff 	sb	v0,-1(a1)
9d012758:	1000ffe1 	b	9d0126e0 <__shgetc+0x34>
9d01275c:	8fbf0014 	lw	ra,20(sp)

Disassembly of section .text._sbrk:

9d012760 <_sbrk>:
9d012760:	27bdffe0 	addiu	sp,sp,-32
9d012764:	afb00014 	sw	s0,20(sp)
9d012768:	3c10a000 	lui	s0,0xa000
9d01276c:	8e0253a8 	lw	v0,21416(s0)
9d012770:	afb10018 	sw	s1,24(sp)
9d012774:	afbf001c 	sw	ra,28(sp)
9d012778:	1440000f 	bnez	v0,9d0127b8 <_sbrk+0x58>
9d01277c:	00808825 	move	s1,a0
9d012780:	0f4043ed 	jal	9d010fb4 <_sbrk_init>
9d012784:	00000000 	nop
9d012788:	8e0253a8 	lw	v0,21416(s0)
9d01278c:	1440000b 	bnez	v0,9d0127bc <_sbrk+0x5c>
9d012790:	00000000 	nop
9d012794:	3c02a000 	lui	v0,0xa000
9d012798:	2403000c 	li	v1,12
9d01279c:	ac4353b4 	sw	v1,21428(v0)
9d0127a0:	2402ffff 	li	v0,-1
9d0127a4:	8fbf001c 	lw	ra,28(sp)
9d0127a8:	8fb10018 	lw	s1,24(sp)
9d0127ac:	8fb00014 	lw	s0,20(sp)
9d0127b0:	03e00008 	jr	ra
9d0127b4:	27bd0020 	addiu	sp,sp,32
9d0127b8:	8e0253a8 	lw	v0,21416(s0)
9d0127bc:	1a20000a 	blez	s1,9d0127e8 <_sbrk+0x88>
9d0127c0:	00511821 	addu	v1,v0,s1
9d0127c4:	0062202b 	sltu	a0,v1,v0
9d0127c8:	1480fff2 	bnez	a0,9d012794 <_sbrk+0x34>
9d0127cc:	3c04a000 	lui	a0,0xa000
9d0127d0:	8c8453ac 	lw	a0,21420(a0)
9d0127d4:	0083202b 	sltu	a0,a0,v1
9d0127d8:	5480ffef 	bnezl	a0,9d012798 <_sbrk+0x38>
9d0127dc:	3c02a000 	lui	v0,0xa000
9d0127e0:	1000fff0 	b	9d0127a4 <_sbrk+0x44>
9d0127e4:	ae0353a8 	sw	v1,21416(s0)
9d0127e8:	0043202b 	sltu	a0,v0,v1
9d0127ec:	14800005 	bnez	a0,9d012804 <_sbrk+0xa4>
9d0127f0:	3c04a000 	lui	a0,0xa000
9d0127f4:	8c8453b0 	lw	a0,21424(a0)
9d0127f8:	0064202b 	sltu	a0,v1,a0
9d0127fc:	5080ffe9 	beqzl	a0,9d0127a4 <_sbrk+0x44>
9d012800:	ae0353a8 	sw	v1,21416(s0)
9d012804:	3c02a000 	lui	v0,0xa000
9d012808:	1000ffe4 	b	9d01279c <_sbrk+0x3c>
9d01280c:	24030016 	li	v1,22

Disassembly of section .text.unbin:

9d012810 <unbin>:
9d012810:	27bdffe0 	addiu	sp,sp,-32
9d012814:	afb20018 	sw	s2,24(sp)
9d012818:	afb10014 	sw	s1,20(sp)
9d01281c:	8c92000c 	lw	s2,12(a0)
9d012820:	8c910008 	lw	s1,8(a0)
9d012824:	afb00010 	sw	s0,16(sp)
9d012828:	afbf001c 	sw	ra,28(sp)
9d01282c:	16510013 	bne	s2,s1,9d01287c <unbin+0x6c>
9d012830:	00808025 	move	s0,a0
9d012834:	00a03025 	move	a2,a1
9d012838:	24040001 	li	a0,1
9d01283c:	0f4050d4 	jal	9d014350 <__ashldi3>
9d012840:	00002825 	move	a1,zero
9d012844:	00031827 	nor	v1,zero,v1
9d012848:	10400005 	beqz	v0,9d012860 <unbin+0x50>
9d01284c:	00022827 	nor	a1,zero,v0
9d012850:	3c04a000 	lui	a0,0xa000
9d012854:	8c825138 	lw	v0,20792(a0)
9d012858:	00451024 	and	v0,v0,a1
9d01285c:	ac825138 	sw	v0,20792(a0)
9d012860:	2402ffff 	li	v0,-1
9d012864:	10620005 	beq	v1,v0,9d01287c <unbin+0x6c>
9d012868:	3c02a000 	lui	v0,0xa000
9d01286c:	24425138 	addiu	v0,v0,20792
9d012870:	8c440004 	lw	a0,4(v0)
9d012874:	00641824 	and	v1,v1,a0
9d012878:	ac430004 	sw	v1,4(v0)
9d01287c:	8e020004 	lw	v0,4(s0)
9d012880:	ae510008 	sw	s1,8(s2)
9d012884:	ae32000c 	sw	s2,12(s1)
9d012888:	34430001 	ori	v1,v0,0x1
9d01288c:	7c020004 	ins	v0,zero,0x0,0x1
9d012890:	ae030004 	sw	v1,4(s0)
9d012894:	02028021 	addu	s0,s0,v0
9d012898:	8e020000 	lw	v0,0(s0)
9d01289c:	8fbf001c 	lw	ra,28(sp)
9d0128a0:	8fb20018 	lw	s2,24(sp)
9d0128a4:	34420001 	ori	v0,v0,0x1
9d0128a8:	ae020000 	sw	v0,0(s0)
9d0128ac:	8fb10014 	lw	s1,20(sp)
9d0128b0:	8fb00010 	lw	s0,16(sp)
9d0128b4:	03e00008 	jr	ra
9d0128b8:	27bd0020 	addiu	sp,sp,32

Disassembly of section .text.fptodp:

9d0128bc <__extendsfdf2>:
9d0128bc:	00043dc2 30e700ff 3c018000 00813024     .=.....0...<$0..
9d0128cc:	24e9ffff 2d2100fe 1020000d 00000000     ...$..!-.. .....

9d0128dc <Glab1>:
9d0128dc:	24e70380 	addiu	a3,a3,896
9d0128e0:	00044a40 	sll	t1,a0,0x9
9d0128e4:	00094b02 	srl	t1,t1,0xc
9d0128e8:	00c93025 	or	a2,a2,t1
9d0128ec:	00042f40 	sll	a1,a0,0x1d

9d0128f0 <Gret>:
9d0128f0:	00074d00 	sll	t1,a3,0x14
9d0128f4:	00c93025 	or	a2,a2,t1
9d0128f8:	00051025 	or	v0,zero,a1
9d0128fc:	00061825 	or	v1,zero,a2

9d012900 <G999>:
9d012900:	03e00008 	jr	ra
9d012904:	00000000 	nop
9d012908:	00000000 	nop

9d01290c <Gspec>:
9d01290c:	24050000 	li	a1,0
9d012910:	00842021 	addu	a0,a0,a0
9d012914:	1080fff6 	beqz	a0,9d0128f0 <Gret>
9d012918:	00000000 	nop
9d01291c:	14e00009 	bnez	a3,9d012944 <i42>
9d012920:	00000000 	nop

9d012924 <b43>:
9d012924:	24e7ffff 	addiu	a3,a3,-1
9d012928:	00842021 	addu	a0,a0,a0
9d01292c:	3c010080 	lui	at,0x80
9d012930:	0081082b 	sltu	at,a0,at
9d012934:	1420fffb 	bnez	at,9d012924 <b43>
9d012938:	00000000 	nop
9d01293c:	1000ffe7 	b	9d0128dc <Glab1>
9d012940:	00000000 	nop

9d012944 <i42>:
9d012944:	240707ff 	li	a3,2047
9d012948:	3c01ff00 	lui	at,0xff00
9d01294c:	34210001 	ori	at,at,0x1
9d012950:	0081082b 	sltu	at,a0,at
9d012954:	1420ffe6 	bnez	at,9d0128f0 <Gret>
9d012958:	00000000 	nop
9d01295c:	1000ffe4 	b	9d0128f0 <Gret>
9d012960:	3c06fff8 	lui	a2,0xfff8
9d012964:	00000000 	nop

Disassembly of section .text.__push_float:

9d012968 <__push_float>:
9d012968:	24020081 	li	v0,129
9d01296c:	50a20012 	beql	a1,v0,9d0129b8 <__push_float+0x50>
9d012970:	8cc20000 	lw	v0,0(a2)
9d012974:	24020083 	li	v0,131
9d012978:	50a20006 	beql	a1,v0,9d012994 <__push_float+0x2c>
9d01297c:	8cc20000 	lw	v0,0(a2)
9d012980:	24020080 	li	v0,128
9d012984:	10a20012 	beq	a1,v0,9d0129d0 <__push_float+0x68>
9d012988:	00001025 	move	v0,zero
9d01298c:	03e00008 	jr	ra
9d012990:	00000000 	nop
9d012994:	24430004 	addiu	v1,v0,4
9d012998:	acc30000 	sw	v1,0(a2)
9d01299c:	8c850004 	lw	a1,4(a0)
9d0129a0:	8c420000 	lw	v0,0(v0)
9d0129a4:	8c840000 	lw	a0,0(a0)
9d0129a8:	ac440000 	sw	a0,0(v0)
9d0129ac:	ac450004 	sw	a1,4(v0)
9d0129b0:	03e00008 	jr	ra
9d0129b4:	24020001 	li	v0,1
9d0129b8:	24430004 	addiu	v1,v0,4
9d0129bc:	acc30000 	sw	v1,0(a2)
9d0129c0:	8c850004 	lw	a1,4(a0)
9d0129c4:	8c420000 	lw	v0,0(v0)
9d0129c8:	1000fff7 	b	9d0129a8 <__push_float+0x40>
9d0129cc:	8c840000 	lw	a0,0(a0)
9d0129d0:	8cc20000 	lw	v0,0(a2)
9d0129d4:	8c850004 	lw	a1,4(a0)
9d0129d8:	8c840000 	lw	a0,0(a0)
9d0129dc:	24430004 	addiu	v1,v0,4
9d0129e0:	27bdffe8 	addiu	sp,sp,-24
9d0129e4:	acc30000 	sw	v1,0(a2)
9d0129e8:	afb00010 	sw	s0,16(sp)
9d0129ec:	afbf0014 	sw	ra,20(sp)
9d0129f0:	0f4047fd 	jal	9d011ff4 <__truncdfsf2>
9d0129f4:	8c500000 	lw	s0,0(v0)
9d0129f8:	8fbf0014 	lw	ra,20(sp)
9d0129fc:	ae020000 	sw	v0,0(s0)
9d012a00:	24020001 	li	v0,1
9d012a04:	8fb00010 	lw	s0,16(sp)
9d012a08:	03e00008 	jr	ra
9d012a0c:	27bd0018 	addiu	sp,sp,24

Disassembly of section .text.normalize:

9d012a10 <normalize>:
9d012a10:	27bdffe0 	addiu	sp,sp,-32
9d012a14:	afb10018 	sw	s1,24(sp)
9d012a18:	00078d02 	srl	s1,a3,0x14
9d012a1c:	322507ff 	andi	a1,s1,0x7ff
9d012a20:	afb00014 	sw	s0,20(sp)
9d012a24:	afbf001c 	sw	ra,28(sp)
9d012a28:	00808025 	move	s0,a0
9d012a2c:	00c01025 	move	v0,a2
9d012a30:	14a0000e 	bnez	a1,9d012a6c <normalize+0x5c>
9d012a34:	00e02025 	move	a0,a3
9d012a38:	3c029d00 	lui	v0,0x9d00
9d012a3c:	00c04025 	move	t0,a2
9d012a40:	00e01825 	move	v1,a3
9d012a44:	8c467638 	lw	a2,30264(v0)
9d012a48:	8c47763c 	lw	a3,30268(v0)
9d012a4c:	01002025 	move	a0,t0
9d012a50:	0f403be4 	jal	9d00ef90 <__muldf3>
9d012a54:	00602825 	move	a1,v1
9d012a58:	00602025 	move	a0,v1
9d012a5c:	7c635500 	ext	v1,v1,0x14,0xb
9d012a60:	10600002 	beqz	v1,9d012a6c <normalize+0x5c>
9d012a64:	24050800 	li	a1,2048
9d012a68:	2465ffc1 	addiu	a1,v1,-63
9d012a6c:	000237c2 	srl	a2,v0,0x1f
9d012a70:	00041840 	sll	v1,a0,0x1
9d012a74:	00021040 	sll	v0,v0,0x1
9d012a78:	00c31825 	or	v1,a2,v1
9d012a7c:	8fbf001c 	lw	ra,28(sp)
9d012a80:	ae020000 	sw	v0,0(s0)
9d012a84:	7c63a000 	ext	v1,v1,0x0,0x15
9d012a88:	3c020020 	lui	v0,0x20
9d012a8c:	00431825 	or	v1,v0,v1
9d012a90:	32310800 	andi	s1,s1,0x800
9d012a94:	24a5fbcc 	addiu	a1,a1,-1076
9d012a98:	ae11000c 	sw	s1,12(s0)
9d012a9c:	02001025 	move	v0,s0
9d012aa0:	ae030004 	sw	v1,4(s0)
9d012aa4:	ae050008 	sw	a1,8(s0)
9d012aa8:	8fb10018 	lw	s1,24(sp)
9d012aac:	8fb00014 	lw	s0,20(sp)
9d012ab0:	03e00008 	jr	ra
9d012ab4:	27bd0020 	addiu	sp,sp,32

Disassembly of section .text.strtox:

9d012ab8 <strtox>:
9d012ab8:	27bdff80 	addiu	sp,sp,-128
9d012abc:	afb20078 	sw	s2,120(sp)
9d012ac0:	afb10074 	sw	s1,116(sp)
9d012ac4:	afb00070 	sw	s0,112(sp)
9d012ac8:	00c09025 	move	s2,a2
9d012acc:	00808025 	move	s0,a0
9d012ad0:	24060060 	li	a2,96
9d012ad4:	27a40010 	addiu	a0,sp,16
9d012ad8:	00a08825 	move	s1,a1
9d012adc:	afbf007c 	sw	ra,124(sp)
9d012ae0:	0f4051de 	jal	9d014778 <memset>
9d012ae4:	00002825 	move	a1,zero
9d012ae8:	2402ffff 	li	v0,-1
9d012aec:	00002825 	move	a1,zero
9d012af0:	27a40010 	addiu	a0,sp,16
9d012af4:	afa20050 	sw	v0,80(sp)
9d012af8:	afb00018 	sw	s0,24(sp)
9d012afc:	0f405189 	jal	9d014624 <__shlim>
9d012b00:	afb0004c 	sw	s0,76(sp)
9d012b04:	02402825 	move	a1,s2
9d012b08:	27a40010 	addiu	a0,sp,16
9d012b0c:	0f4026cc 	jal	9d009b30 <__floatscan>
9d012b10:	24060001 	li	a2,1
9d012b14:	00402025 	move	a0,v0
9d012b18:	12200008 	beqz	s1,9d012b3c <strtox+0x84>
9d012b1c:	00602825 	move	a1,v1
9d012b20:	8fa20050 	lw	v0,80(sp)
9d012b24:	8fa3004c 	lw	v1,76(sp)
9d012b28:	00621823 	subu	v1,v1,v0
9d012b2c:	8fa20064 	lw	v0,100(sp)
9d012b30:	00621821 	addu	v1,v1,v0
9d012b34:	02038021 	addu	s0,s0,v1
9d012b38:	ae300000 	sw	s0,0(s1)
9d012b3c:	8fbf007c 	lw	ra,124(sp)
9d012b40:	00801025 	move	v0,a0
9d012b44:	00a01825 	move	v1,a1
9d012b48:	8fb20078 	lw	s2,120(sp)
9d012b4c:	8fb10074 	lw	s1,116(sp)
9d012b50:	8fb00070 	lw	s0,112(sp)
9d012b54:	03e00008 	jr	ra
9d012b58:	27bd0080 	addiu	sp,sp,128

Disassembly of section .text.__skipws:

9d012b5c <__skipws>:
9d012b5c:	27bdffe0 	addiu	sp,sp,-32
9d012b60:	afb10018 	sw	s1,24(sp)
9d012b64:	afb00014 	sw	s0,20(sp)
9d012b68:	afbf001c 	sw	ra,28(sp)
9d012b6c:	00808025 	move	s0,a0
9d012b70:	00008825 	move	s1,zero
9d012b74:	8e02003c 	lw	v0,60(s0)
9d012b78:	8e03004c 	lw	v1,76(s0)
9d012b7c:	0043182b 	sltu	v1,v0,v1
9d012b80:	10600017 	beqz	v1,9d012be0 <__skipws+0x84>
9d012b84:	24430001 	addiu	v1,v0,1
9d012b88:	ae03003c 	sw	v1,60(s0)
9d012b8c:	90420000 	lbu	v0,0(v0)
9d012b90:	24030020 	li	v1,32
9d012b94:	10430010 	beq	v0,v1,9d012bd8 <__skipws+0x7c>
9d012b98:	2442fff7 	addiu	v0,v0,-9
9d012b9c:	2c420005 	sltiu	v0,v0,5
9d012ba0:	5440fff4 	bnezl	v0,9d012b74 <__skipws+0x18>
9d012ba4:	26310001 	addiu	s1,s1,1
9d012ba8:	8e02004c 	lw	v0,76(s0)
9d012bac:	10400005 	beqz	v0,9d012bc4 <__skipws+0x68>
9d012bb0:	8fbf001c 	lw	ra,28(sp)
9d012bb4:	8e02003c 	lw	v0,60(s0)
9d012bb8:	2442ffff 	addiu	v0,v0,-1
9d012bbc:	ae02003c 	sw	v0,60(s0)
9d012bc0:	8fbf001c 	lw	ra,28(sp)
9d012bc4:	02201025 	move	v0,s1
9d012bc8:	8fb00014 	lw	s0,20(sp)
9d012bcc:	8fb10018 	lw	s1,24(sp)
9d012bd0:	03e00008 	jr	ra
9d012bd4:	27bd0020 	addiu	sp,sp,32
9d012bd8:	1000ffe6 	b	9d012b74 <__skipws+0x18>
9d012bdc:	26310001 	addiu	s1,s1,1
9d012be0:	0f4049ab 	jal	9d0126ac <__shgetc>
9d012be4:	02002025 	move	a0,s0
9d012be8:	2403ffff 	li	v1,-1
9d012bec:	1443ffe8 	bne	v0,v1,9d012b90 <__skipws+0x34>
9d012bf0:	8fbf001c 	lw	ra,28(sp)
9d012bf4:	1000fff4 	b	9d012bc8 <__skipws+0x6c>
9d012bf8:	02201025 	move	v0,s1

Disassembly of section .text.__string_read:

9d012bfc <__string_read>:
9d012bfc:	27bdffd0 	addiu	sp,sp,-48
9d012c00:	afb00014 	sw	s0,20(sp)
9d012c04:	8c900038 	lw	s0,56(a0)
9d012c08:	afb2001c 	sw	s2,28(sp)
9d012c0c:	24d20100 	addiu	s2,a2,256
9d012c10:	afb50028 	sw	s5,40(sp)
9d012c14:	afb40024 	sw	s4,36(sp)
9d012c18:	afb30020 	sw	s3,32(sp)
9d012c1c:	00a0a825 	move	s5,a1
9d012c20:	00809825 	move	s3,a0
9d012c24:	00c0a025 	move	s4,a2
9d012c28:	00002825 	move	a1,zero
9d012c2c:	02403025 	move	a2,s2
9d012c30:	02002025 	move	a0,s0
9d012c34:	afbf002c 	sw	ra,44(sp)
9d012c38:	0f40504b 	jal	9d01412c <memchr>
9d012c3c:	afb10018 	sw	s1,24(sp)
9d012c40:	54400001 	bnezl	v0,9d012c48 <__string_read+0x4c>
9d012c44:	00509023 	subu	s2,v0,s0
9d012c48:	0292882b 	sltu	s1,s4,s2
9d012c4c:	0251a00a 	movz	s4,s2,s1
9d012c50:	02803025 	move	a2,s4
9d012c54:	02002825 	move	a1,s0
9d012c58:	0f405173 	jal	9d0145cc <memcpy>
9d012c5c:	02a02025 	move	a0,s5
9d012c60:	8fbf002c 	lw	ra,44(sp)
9d012c64:	02141021 	addu	v0,s0,s4
9d012c68:	02128021 	addu	s0,s0,s2
9d012c6c:	ae62003c 	sw	v0,60(s3)
9d012c70:	ae700040 	sw	s0,64(s3)
9d012c74:	ae700038 	sw	s0,56(s3)
9d012c78:	02801025 	move	v0,s4
9d012c7c:	8fb50028 	lw	s5,40(sp)
9d012c80:	8fb40024 	lw	s4,36(sp)
9d012c84:	8fb30020 	lw	s3,32(sp)
9d012c88:	8fb2001c 	lw	s2,28(sp)
9d012c8c:	8fb10018 	lw	s1,24(sp)
9d012c90:	8fb00014 	lw	s0,20(sp)
9d012c94:	03e00008 	jr	ra
9d012c98:	27bd0030 	addiu	sp,sp,48

Disassembly of section .text.__stdio_close:

9d012c9c <__stdio_close>:
9d012c9c:	14800003 	bnez	a0,9d012cac <__stdio_close+0x10>
9d012ca0:	00001025 	move	v0,zero
9d012ca4:	03e00008 	jr	ra
9d012ca8:	00000000 	nop
9d012cac:	8c820004 	lw	v0,4(a0)
9d012cb0:	27bdffe0 	addiu	sp,sp,-32
9d012cb4:	afb10018 	sw	s1,24(sp)
9d012cb8:	30420020 	andi	v0,v0,0x20
9d012cbc:	afb00014 	sw	s0,20(sp)
9d012cc0:	afbf001c 	sw	ra,28(sp)
9d012cc4:	00808025 	move	s0,a0
9d012cc8:	1440000b 	bnez	v0,9d012cf8 <__stdio_close+0x5c>
9d012ccc:	00a08825 	move	s1,a1
9d012cd0:	ae000028 	sw	zero,40(s0)
9d012cd4:	ae000018 	sw	zero,24(s0)
9d012cd8:	16200014 	bnez	s1,9d012d2c <__stdio_close+0x90>
9d012cdc:	ae000014 	sw	zero,20(s0)
9d012ce0:	00001025 	move	v0,zero
9d012ce4:	8fbf001c 	lw	ra,28(sp)
9d012ce8:	8fb10018 	lw	s1,24(sp)
9d012cec:	8fb00014 	lw	s0,20(sp)
9d012cf0:	03e00008 	jr	ra
9d012cf4:	27bd0020 	addiu	sp,sp,32
9d012cf8:	8c820014 	lw	v0,20(a0)
9d012cfc:	8c830018 	lw	v1,24(a0)
9d012d00:	0062102b 	sltu	v0,v1,v0
9d012d04:	1040fff2 	beqz	v0,9d012cd0 <__stdio_close+0x34>
9d012d08:	00003025 	move	a2,zero
9d012d0c:	8c82002c 	lw	v0,44(a0)
9d012d10:	0040f809 	jalr	v0
9d012d14:	00002825 	move	a1,zero
9d012d18:	8e030014 	lw	v1,20(s0)
9d012d1c:	1060fff1 	beqz	v1,9d012ce4 <__stdio_close+0x48>
9d012d20:	2402ffff 	li	v0,-1
9d012d24:	1000ffeb 	b	9d012cd4 <__stdio_close+0x38>
9d012d28:	ae000028 	sw	zero,40(s0)
9d012d2c:	0f4052f5 	jal	9d014bd4 <close>
9d012d30:	8e040000 	lw	a0,0(s0)
9d012d34:	1000ffec 	b	9d012ce8 <__stdio_close+0x4c>
9d012d38:	8fbf001c 	lw	ra,28(sp)

Disassembly of section .text.fpcmp:

9d012d3c <__eqsf2>:
9d012d3c:	2408fffe 00043040 00053840 00c74825     ...$@0..@8..%H..
9d012d4c:	1120001b 00000000 3c01ff00 34210001     .. ........<..!4
9d012d5c:	00c1082b 1020001a 00000000 3c01ff00     +..... ........<
9d012d6c:	34210001 00e1082b 10200015 00000000     ..!4+..... .....
9d012d7c:	04810002 00063042 00063023              ....B0..#0..

9d012d88 <i48>:
9d012d88:	04a10002 	bgez	a1,9d012d94 <i49>
9d012d8c:	00073842 	srl	a3,a3,0x1
9d012d90:	00073823 	negu	a3,a3

9d012d94 <i49>:
9d012d94:	00c7082a 	slt	at,a2,a3
9d012d98:	10200003 	beqz	at,9d012da8 <i50>
9d012d9c:	00000000 	nop
9d012da0:	10000007 	b	9d012dc0 <J999>
9d012da4:	2402ffff 	li	v0,-1

9d012da8 <i50>:
9d012da8:	00e6082a 	slt	at,a3,a2
9d012dac:	10200003 	beqz	at,9d012dbc <Jequ>
9d012db0:	00000000 	nop
9d012db4:	10000002 	b	9d012dc0 <J999>
9d012db8:	24020001 	li	v0,1

9d012dbc <Jequ>:
9d012dbc:	24020000 	li	v0,0

9d012dc0 <J999>:
9d012dc0:	03e00008 	jr	ra
9d012dc4:	00000000 	nop
9d012dc8:	00000000 	nop

9d012dcc <Jnan>:
9d012dcc:	1000fffc 	b	9d012dc0 <J999>
9d012dd0:	00081025 	or	v0,zero,t0
9d012dd4:	00000000 	nop

Disassembly of section .text.fpcmplt:

9d012dd8 <fpcmplt>:
9d012dd8:	2408fffe 	li	t0,-2
9d012ddc:	00043040 	sll	a2,a0,0x1
9d012de0:	00053840 	sll	a3,a1,0x1
9d012de4:	00c74825 	or	t1,a2,a3
9d012de8:	1120001b 	beqz	t1,9d012e58 <fpcmplt+0x80>
9d012dec:	00000000 	nop
9d012df0:	3c01ff00 	lui	at,0xff00
9d012df4:	34210001 	ori	at,at,0x1
9d012df8:	00c1082b 	sltu	at,a2,at
9d012dfc:	1020001a 	beqz	at,9d012e68 <fpcmplt+0x90>
9d012e00:	00000000 	nop
9d012e04:	3c01ff00 	lui	at,0xff00
9d012e08:	34210001 	ori	at,at,0x1
9d012e0c:	00e1082b 	sltu	at,a3,at
9d012e10:	10200015 	beqz	at,9d012e68 <fpcmplt+0x90>
9d012e14:	00000000 	nop
9d012e18:	04810002 	bgez	a0,9d012e24 <fpcmplt+0x4c>
9d012e1c:	00063042 	srl	a2,a2,0x1
9d012e20:	00063023 	negu	a2,a2
9d012e24:	04a10002 	bgez	a1,9d012e30 <fpcmplt+0x58>
9d012e28:	00073842 	srl	a3,a3,0x1
9d012e2c:	00073823 	negu	a3,a3
9d012e30:	00c7082a 	slt	at,a2,a3
9d012e34:	10200003 	beqz	at,9d012e44 <fpcmplt+0x6c>
9d012e38:	00000000 	nop
9d012e3c:	10000007 	b	9d012e5c <fpcmplt+0x84>
9d012e40:	2402ffff 	li	v0,-1
9d012e44:	00e6082a 	slt	at,a3,a2
9d012e48:	10200003 	beqz	at,9d012e58 <fpcmplt+0x80>
9d012e4c:	00000000 	nop
9d012e50:	10000002 	b	9d012e5c <fpcmplt+0x84>
9d012e54:	24020001 	li	v0,1
9d012e58:	24020000 	li	v0,0
9d012e5c:	03e00008 	jr	ra
9d012e60:	00000000 	nop
9d012e64:	00000000 	nop
9d012e68:	1000fffc 	b	9d012e5c <fpcmplt+0x84>
9d012e6c:	34020001 	li	v0,0x1
9d012e70:	00000000 	nop

Disassembly of section .text.__toread:

9d012e74 <__toread>:
9d012e74:	27bdffe8 	addiu	sp,sp,-24
9d012e78:	afb00010 	sw	s0,16(sp)
9d012e7c:	afbf0014 	sw	ra,20(sp)
9d012e80:	80820048 	lb	v0,72(a0)
9d012e84:	2443ffff 	addiu	v1,v0,-1
9d012e88:	00431025 	or	v0,v0,v1
9d012e8c:	a0820048 	sb	v0,72(a0)
9d012e90:	8c830018 	lw	v1,24(a0)
9d012e94:	8c820014 	lw	v0,20(a0)
9d012e98:	0062102b 	sltu	v0,v1,v0
9d012e9c:	10400005 	beqz	v0,9d012eb4 <__toread+0x40>
9d012ea0:	00808025 	move	s0,a0
9d012ea4:	8c82002c 	lw	v0,44(a0)
9d012ea8:	00003025 	move	a2,zero
9d012eac:	0040f809 	jalr	v0
9d012eb0:	00002825 	move	a1,zero
9d012eb4:	8e020004 	lw	v0,4(s0)
9d012eb8:	ae000028 	sw	zero,40(s0)
9d012ebc:	ae000018 	sw	zero,24(s0)
9d012ec0:	30430002 	andi	v1,v0,0x2
9d012ec4:	10600008 	beqz	v1,9d012ee8 <__toread+0x74>
9d012ec8:	ae000014 	sw	zero,20(s0)
9d012ecc:	34420010 	ori	v0,v0,0x10
9d012ed0:	ae020004 	sw	v0,4(s0)
9d012ed4:	2402ffff 	li	v0,-1
9d012ed8:	8fbf0014 	lw	ra,20(sp)
9d012edc:	8fb00010 	lw	s0,16(sp)
9d012ee0:	03e00008 	jr	ra
9d012ee4:	27bd0018 	addiu	sp,sp,24
9d012ee8:	8e030008 	lw	v1,8(s0)
9d012eec:	8e04000c 	lw	a0,12(s0)
9d012ef0:	7c4200c0 	ext	v0,v0,0x3,0x1
9d012ef4:	00021023 	negu	v0,v0
9d012ef8:	00641821 	addu	v1,v1,a0
9d012efc:	ae030040 	sw	v1,64(s0)
9d012f00:	1000fff5 	b	9d012ed8 <__toread+0x64>
9d012f04:	ae03003c 	sw	v1,60(s0)

Disassembly of section .text.__stdio_seek:

9d012f08 <__stdio_seek>:
9d012f08:	8c820004 	lw	v0,4(a0)
9d012f0c:	27bdffe0 	addiu	sp,sp,-32
9d012f10:	afb20018 	sw	s2,24(sp)
9d012f14:	30420020 	andi	v0,v0,0x20
9d012f18:	afb10014 	sw	s1,20(sp)
9d012f1c:	afb00010 	sw	s0,16(sp)
9d012f20:	afbf001c 	sw	ra,28(sp)
9d012f24:	00808025 	move	s0,a0
9d012f28:	00a08825 	move	s1,a1
9d012f2c:	10400009 	beqz	v0,9d012f54 <__stdio_seek+0x4c>
9d012f30:	00c09025 	move	s2,a2
9d012f34:	8c820014 	lw	v0,20(a0)
9d012f38:	8c830018 	lw	v1,24(a0)
9d012f3c:	0062102b 	sltu	v0,v1,v0
9d012f40:	5440000a 	bnezl	v0,9d012f6c <__stdio_seek+0x64>
9d012f44:	8c82002c 	lw	v0,44(a0)
9d012f48:	ae000028 	sw	zero,40(s0)
9d012f4c:	ae000018 	sw	zero,24(s0)
9d012f50:	ae000014 	sw	zero,20(s0)
9d012f54:	02403025 	move	a2,s2
9d012f58:	02202825 	move	a1,s1
9d012f5c:	0f405017 	jal	9d01405c <__stdio_seek_unbuffered>
9d012f60:	02002025 	move	a0,s0
9d012f64:	10000008 	b	9d012f88 <__stdio_seek+0x80>
9d012f68:	8fbf001c 	lw	ra,28(sp)
9d012f6c:	00003025 	move	a2,zero
9d012f70:	0040f809 	jalr	v0
9d012f74:	00002825 	move	a1,zero
9d012f78:	8e030014 	lw	v1,20(s0)
9d012f7c:	1460fff2 	bnez	v1,9d012f48 <__stdio_seek+0x40>
9d012f80:	2402ffff 	li	v0,-1
9d012f84:	8fbf001c 	lw	ra,28(sp)
9d012f88:	8fb20018 	lw	s2,24(sp)
9d012f8c:	8fb10014 	lw	s1,20(sp)
9d012f90:	8fb00010 	lw	s0,16(sp)
9d012f94:	03e00008 	jr	ra
9d012f98:	27bd0020 	addiu	sp,sp,32

Disassembly of section .text.__overflow:

9d012f9c <__overflow>:
9d012f9c:	8c820028 	lw	v0,40(a0)
9d012fa0:	27bdffe0 	addiu	sp,sp,-32
9d012fa4:	afb00018 	sw	s0,24(sp)
9d012fa8:	afbf001c 	sw	ra,28(sp)
9d012fac:	00808025 	move	s0,a0
9d012fb0:	10400010 	beqz	v0,9d012ff4 <__overflow+0x58>
9d012fb4:	a3a50010 	sb	a1,16(sp)
9d012fb8:	8e030014 	lw	v1,20(s0)
9d012fbc:	8e020028 	lw	v0,40(s0)
9d012fc0:	0062102b 	sltu	v0,v1,v0
9d012fc4:	14400014 	bnez	v0,9d013018 <__overflow+0x7c>
9d012fc8:	93a20010 	lbu	v0,16(sp)
9d012fcc:	8e02002c 	lw	v0,44(s0)
9d012fd0:	24060001 	li	a2,1
9d012fd4:	27a50010 	addiu	a1,sp,16
9d012fd8:	0040f809 	jalr	v0
9d012fdc:	02002025 	move	a0,s0
9d012fe0:	24030001 	li	v1,1
9d012fe4:	14430007 	bne	v0,v1,9d013004 <__overflow+0x68>
9d012fe8:	93a20010 	lbu	v0,16(sp)
9d012fec:	10000007 	b	9d01300c <__overflow+0x70>
9d012ff0:	8fbf001c 	lw	ra,28(sp)
9d012ff4:	0f40503a 	jal	9d0140e8 <__towrite>
9d012ff8:	00000000 	nop
9d012ffc:	5040ffef 	beqzl	v0,9d012fbc <__overflow+0x20>
9d013000:	8e030014 	lw	v1,20(s0)
9d013004:	2402ffff 	li	v0,-1
9d013008:	8fbf001c 	lw	ra,28(sp)
9d01300c:	8fb00018 	lw	s0,24(sp)
9d013010:	03e00008 	jr	ra
9d013014:	27bd0020 	addiu	sp,sp,32
9d013018:	82040034 	lb	a0,52(s0)
9d01301c:	1044ffeb 	beq	v0,a0,9d012fcc <__overflow+0x30>
9d013020:	24640001 	addiu	a0,v1,1
9d013024:	ae040014 	sw	a0,20(s0)
9d013028:	1000fff7 	b	9d013008 <__overflow+0x6c>
9d01302c:	a0620000 	sb	v0,0(v1)

Disassembly of section .text.dptoli:

9d013030 <__fixdfsi>:
9d013030:	00053ac0 00045542 00ea3825 3c018000     .:..BU..%8.....<
9d013040:	00e13825 00055040 000a5542 2406041e     %8..@P..BU.....$
9d013050:	00ca3023 18c0000c 00000000 2cc10020     #0.......... ..,
9d013060:	14200002 00000000 34070000              .. ........4

9d01306c <L42>:
9d01306c:	04a10002 	bgez	a1,9d013078 <i50>
9d013070:	00c73806 	srlv	a3,a3,a2
9d013074:	00073823 	negu	a3,a3

9d013078 <i50>:
9d013078:	00071025 	or	v0,zero,a3

9d01307c <I999>:
9d01307c:	03e00008 	jr	ra
9d013080:	00000000 	nop
9d013084:	00000000 	nop

9d013088 <Inaninf>:
9d013088:	10800002 	beqz	a0,9d013094 <i51>
9d01308c:	00000000 	nop
9d013090:	34a50001 	ori	a1,a1,0x1

9d013094 <i51>:
9d013094:	3c017ff0 	lui	at,0x7ff0
9d013098:	34210001 	ori	at,at,0x1
9d01309c:	00a1082b 	sltu	at,a1,at
9d0130a0:	14200003 	bnez	at,9d0130b0 <i52>
9d0130a4:	00000000 	nop
9d0130a8:	1000fff4 	b	9d01307c <I999>
9d0130ac:	3c028000 	lui	v0,0x8000

9d0130b0 <i52>:
9d0130b0:	3c027fff 	lui	v0,0x7fff
9d0130b4:	1000fff1 	b	9d01307c <I999>
9d0130b8:	3442ffff 	ori	v0,v0,0xffff
9d0130bc:	00000000 	nop

Disassembly of section .text.__out:

9d0130c0 <__out>:
9d0130c0:	8c820004 	lw	v0,4(a0)
9d0130c4:	27bdffe0 	addiu	sp,sp,-32
9d0130c8:	afbf001c 	sw	ra,28(sp)
9d0130cc:	30470100 	andi	a3,v0,0x100
9d0130d0:	afb10018 	sw	s1,24(sp)
9d0130d4:	10e00016 	beqz	a3,9d013130 <__out+0x70>
9d0130d8:	afb00014 	sw	s0,20(sp)
9d0130dc:	8c820010 	lw	v0,16(a0)
9d0130e0:	00808025 	move	s0,a0
9d0130e4:	00c01825 	move	v1,a2
9d0130e8:	00c2882b 	sltu	s1,a2,v0
9d0130ec:	8c840014 	lw	a0,20(a0)
9d0130f0:	0051180a 	movz	v1,v0,s1
9d0130f4:	00603025 	move	a2,v1
9d0130f8:	0f405173 	jal	9d0145cc <memcpy>
9d0130fc:	00608825 	move	s1,v1
9d013100:	8e020014 	lw	v0,20(s0)
9d013104:	8e030010 	lw	v1,16(s0)
9d013108:	00511021 	addu	v0,v0,s1
9d01310c:	00718823 	subu	s1,v1,s1
9d013110:	ae020014 	sw	v0,20(s0)
9d013114:	ae110010 	sw	s1,16(s0)
9d013118:	a0400000 	sb	zero,0(v0)
9d01311c:	8fbf001c 	lw	ra,28(sp)
9d013120:	8fb10018 	lw	s1,24(sp)
9d013124:	8fb00014 	lw	s0,20(sp)
9d013128:	03e00008 	jr	ra
9d01312c:	27bd0020 	addiu	sp,sp,32
9d013130:	30420010 	andi	v0,v0,0x10
9d013134:	5440fffa 	bnezl	v0,9d013120 <__out+0x60>
9d013138:	8fbf001c 	lw	ra,28(sp)
9d01313c:	0f4050fe 	jal	9d0143f8 <__fwrite>
9d013140:	00000000 	nop
9d013144:	1000fff6 	b	9d013120 <__out+0x60>
9d013148:	8fbf001c 	lw	ra,28(sp)

Disassembly of section .text.copysignf:

9d01314c <copysignf>:
9d01314c:	27bdffd0 	addiu	sp,sp,-48
9d013150:	afb30028 	sw	s3,40(sp)
9d013154:	afb20024 	sw	s2,36(sp)
9d013158:	00e09825 	move	s3,a3
9d01315c:	00c09025 	move	s2,a2
9d013160:	afbf002c 	sw	ra,44(sp)
9d013164:	afb10020 	sw	s1,32(sp)
9d013168:	0f4047fd 	jal	9d011ff4 <__truncdfsf2>
9d01316c:	afb0001c 	sw	s0,28(sp)
9d013170:	02602825 	move	a1,s3
9d013174:	02402025 	move	a0,s2
9d013178:	0f4047fd 	jal	9d011ff4 <__truncdfsf2>
9d01317c:	00408825 	move	s1,v0
9d013180:	00408025 	move	s0,v0
9d013184:	0f404a2f 	jal	9d0128bc <__extendsfdf2>
9d013188:	02202025 	move	a0,s1
9d01318c:	02002025 	move	a0,s0
9d013190:	afa20010 	sw	v0,16(sp)
9d013194:	7c707400 	ext	s0,v1,0x10,0xf
9d013198:	0f404a2f 	jal	9d0128bc <__extendsfdf2>
9d01319c:	afa30014 	sw	v1,20(sp)
9d0131a0:	00031c02 	srl	v1,v1,0x10
9d0131a4:	7c037004 	ins	v1,zero,0x0,0xf
9d0131a8:	02031825 	or	v1,s0,v1
9d0131ac:	a7a30016 	sh	v1,22(sp)
9d0131b0:	8fa40010 	lw	a0,16(sp)
9d0131b4:	0f4047fd 	jal	9d011ff4 <__truncdfsf2>
9d0131b8:	8fa50014 	lw	a1,20(sp)
9d0131bc:	8fbf002c 	lw	ra,44(sp)
9d0131c0:	8fb30028 	lw	s3,40(sp)
9d0131c4:	8fb20024 	lw	s2,36(sp)
9d0131c8:	8fb10020 	lw	s1,32(sp)
9d0131cc:	8fb0001c 	lw	s0,28(sp)
9d0131d0:	03e00008 	jr	ra
9d0131d4:	27bd0030 	addiu	sp,sp,48

Disassembly of section .text.__fopen_rw:

9d0131d8 <__fopen_rw>:
9d0131d8:	27bdffe8 	addiu	sp,sp,-24
9d0131dc:	afb00010 	sw	s0,16(sp)
9d0131e0:	afbf0014 	sw	ra,20(sp)
9d0131e4:	0f403eab 	jal	9d00faac <malloc>
9d0131e8:	24040468 	li	a0,1128
9d0131ec:	10400017 	beqz	v0,9d01324c <__fopen_rw+0x74>
9d0131f0:	00408025 	move	s0,v0
9d0131f4:	24060060 	li	a2,96
9d0131f8:	00002825 	move	a1,zero
9d0131fc:	0f4051de 	jal	9d014778 <memset>
9d013200:	00402025 	move	a0,v0
9d013204:	3c029d01 	lui	v0,0x9d01
9d013208:	2442483c 	addiu	v0,v0,18492
9d01320c:	ae02002c 	sw	v0,44(s0)
9d013210:	3c029d01 	lui	v0,0x9d01
9d013214:	24422470 	addiu	v0,v0,9328
9d013218:	ae020030 	sw	v0,48(s0)
9d01321c:	3c029d01 	lui	v0,0x9d01
9d013220:	24422534 	addiu	v0,v0,9524
9d013224:	ae02001c 	sw	v0,28(s0)
9d013228:	3c029d01 	lui	v0,0x9d01
9d01322c:	244223a4 	addiu	v0,v0,9124
9d013230:	ae020044 	sw	v0,68(s0)
9d013234:	2402ffff 	li	v0,-1
9d013238:	a2020034 	sb	v0,52(s0)
9d01323c:	26020068 	addiu	v0,s0,104
9d013240:	ae020008 	sw	v0,8(s0)
9d013244:	24020400 	li	v0,1024
9d013248:	ae02000c 	sw	v0,12(s0)
9d01324c:	8fbf0014 	lw	ra,20(sp)
9d013250:	02001025 	move	v0,s0
9d013254:	8fb00010 	lw	s0,16(sp)
9d013258:	03e00008 	jr	ra
9d01325c:	27bd0018 	addiu	sp,sp,24

Disassembly of section .text.write:

9d013260 <write>:
9d013260:	27bdffe0 	addiu	sp,sp,-32
9d013264:	afb10014 	sw	s1,20(sp)
9d013268:	afbf001c 	sw	ra,28(sp)
9d01326c:	afb20018 	sw	s2,24(sp)
9d013270:	afb00010 	sw	s0,16(sp)
9d013274:	10a0000d 	beqz	a1,9d0132ac <write+0x4c>
9d013278:	00008825 	move	s1,zero
9d01327c:	50c0000c 	beqzl	a2,9d0132b0 <write+0x50>
9d013280:	8fbf001c 	lw	ra,28(sp)
9d013284:	2c840003 	sltiu	a0,a0,3
9d013288:	10800008 	beqz	a0,9d0132ac <write+0x4c>
9d01328c:	00c08825 	move	s1,a2
9d013290:	3c020000 	lui	v0,0x0
9d013294:	24420000 	addiu	v0,v0,0
9d013298:	1040000b 	beqz	v0,9d0132c8 <write+0x68>
9d01329c:	00a08025 	move	s0,a1
9d0132a0:	00c02825 	move	a1,a2
9d0132a4:	0c000000 	jal	90000000 <_bmxdudba_address+0x8fff0000>
9d0132a8:	02002025 	move	a0,s0
9d0132ac:	8fbf001c 	lw	ra,28(sp)
9d0132b0:	02201025 	move	v0,s1
9d0132b4:	8fb20018 	lw	s2,24(sp)
9d0132b8:	8fb10014 	lw	s1,20(sp)
9d0132bc:	8fb00010 	lw	s0,16(sp)
9d0132c0:	03e00008 	jr	ra
9d0132c4:	27bd0020 	addiu	sp,sp,32
9d0132c8:	00a69021 	addu	s2,a1,a2
9d0132cc:	82040000 	lb	a0,0(s0)
9d0132d0:	0f404617 	jal	9d01185c <_mon_putc>
9d0132d4:	26100001 	addiu	s0,s0,1
9d0132d8:	1650fffc 	bne	s2,s0,9d0132cc <write+0x6c>
9d0132dc:	8fbf001c 	lw	ra,28(sp)
9d0132e0:	1000fff4 	b	9d0132b4 <write+0x54>
9d0132e4:	02201025 	move	v0,s1

Disassembly of section .text.__vsnprintf:

9d0132e8 <__vsnprintf>:
9d0132e8:	27bdffc8 	addiu	sp,sp,-56
9d0132ec:	2403ffff 	li	v1,-1
9d0132f0:	afa30010 	sw	v1,16(sp)
9d0132f4:	24030102 	li	v1,258
9d0132f8:	00a01025 	move	v0,a1
9d0132fc:	afbf0034 	sw	ra,52(sp)
9d013300:	00c02825 	move	a1,a2
9d013304:	afa30014 	sw	v1,20(sp)
9d013308:	14800002 	bnez	a0,9d013314 <__vsnprintf+0x2c>
9d01330c:	00e03025 	move	a2,a3
9d013310:	27a4002c 	addiu	a0,sp,44
9d013314:	afa40018 	sw	a0,24(sp)
9d013318:	afa2001c 	sw	v0,28(sp)
9d01331c:	10400002 	beqz	v0,9d013328 <__vsnprintf+0x40>
9d013320:	00001825 	move	v1,zero
9d013324:	2443ffff 	addiu	v1,v0,-1
9d013328:	04410008 	bgez	v0,9d01334c <__vsnprintf+0x64>
9d01332c:	afa30020 	sw	v1,32(sp)
9d013330:	3c02a000 	lui	v0,0xa000
9d013334:	2403004f 	li	v1,79
9d013338:	ac4353b4 	sw	v1,21428(v0)
9d01333c:	2402ffff 	li	v0,-1
9d013340:	8fbf0034 	lw	ra,52(sp)
9d013344:	03e00008 	jr	ra
9d013348:	27bd0038 	addiu	sp,sp,56
9d01334c:	afa40028 	sw	a0,40(sp)
9d013350:	afa40024 	sw	a0,36(sp)
9d013354:	a0800000 	sb	zero,0(a0)
9d013358:	0f4050a7 	jal	9d01429c <__vfprintf>
9d01335c:	27a40010 	addiu	a0,sp,16
9d013360:	1000fff8 	b	9d013344 <__vsnprintf+0x5c>
9d013364:	8fbf0034 	lw	ra,52(sp)

Disassembly of section .text.fptoli:

9d013368 <__fixsfsi>:
9d013368:	00042a00 3c018000 00a12825 00043dc2     .*.....<%(...=..
9d013378:	30e700ff 2406009e 00c73023 18c0000d     ...0...$#0......
9d013388:	00000000 28c10020 14200003 00000000     .... ..(.. .....
9d013398:	10000005 24020000                       .......$

9d0133a0 <i42>:
9d0133a0:	04810002 	bgez	a0,9d0133ac <i43>
9d0133a4:	00c52806 	srlv	a1,a1,a2
9d0133a8:	00052823 	negu	a1,a1

9d0133ac <i43>:
9d0133ac:	00051025 	or	v0,zero,a1

9d0133b0 <G999>:
9d0133b0:	03e00008 	jr	ra
9d0133b4:	00000000 	nop
9d0133b8:	00000000 	nop

9d0133bc <Gspec>:
9d0133bc:	3c017f80 	lui	at,0x7f80
9d0133c0:	34210001 	ori	at,at,0x1
9d0133c4:	0081082b 	sltu	at,a0,at
9d0133c8:	14200003 	bnez	at,9d0133d8 <i44>
9d0133cc:	00000000 	nop
9d0133d0:	1000fff7 	b	9d0133b0 <G999>
9d0133d4:	3c028000 	lui	v0,0x8000

9d0133d8 <i44>:
9d0133d8:	3c027fff 	lui	v0,0x7fff
9d0133dc:	1000fff4 	b	9d0133b0 <G999>
9d0133e0:	3442ffff 	ori	v0,v0,0xffff
9d0133e4:	00000000 	nop

Disassembly of section .text.dremf:

9d0133e8 <dremf>:
9d0133e8:	27bdffe0 	addiu	sp,sp,-32
9d0133ec:	afb10014 	sw	s1,20(sp)
9d0133f0:	afb00010 	sw	s0,16(sp)
9d0133f4:	00e08825 	move	s1,a3
9d0133f8:	00c08025 	move	s0,a2
9d0133fc:	afbf001c 	sw	ra,28(sp)
9d013400:	0f4047fd 	jal	9d011ff4 <__truncdfsf2>
9d013404:	afb20018 	sw	s2,24(sp)
9d013408:	02202825 	move	a1,s1
9d01340c:	02002025 	move	a0,s0
9d013410:	0f4047fd 	jal	9d011ff4 <__truncdfsf2>
9d013414:	00409025 	move	s2,v0
9d013418:	0f404a2f 	jal	9d0128bc <__extendsfdf2>
9d01341c:	00402025 	move	a0,v0
9d013420:	02402025 	move	a0,s2
9d013424:	00408025 	move	s0,v0
9d013428:	0f404a2f 	jal	9d0128bc <__extendsfdf2>
9d01342c:	00608825 	move	s1,v1
9d013430:	00402025 	move	a0,v0
9d013434:	02003025 	move	a2,s0
9d013438:	02203825 	move	a3,s1
9d01343c:	0f4033f5 	jal	9d00cfd4 <dreml>
9d013440:	00602825 	move	a1,v1
9d013444:	00402025 	move	a0,v0
9d013448:	0f4047fd 	jal	9d011ff4 <__truncdfsf2>
9d01344c:	00602825 	move	a1,v1
9d013450:	8fbf001c 	lw	ra,28(sp)
9d013454:	8fb20018 	lw	s2,24(sp)
9d013458:	8fb10014 	lw	s1,20(sp)
9d01345c:	8fb00010 	lw	s0,16(sp)
9d013460:	03e00008 	jr	ra
9d013464:	27bd0020 	addiu	sp,sp,32

Disassembly of section .text:

9d013468 <__dinit_copy_emb>:
9d013468:	03e00008 	jr	ra
9d01346c:	00000000 	nop

9d013470 <__pic32_data_init>:
9d013470:	03e01825 	move	v1,ra

9d013474 <_dinit_init>:
9d013474:	3c049d01 	lui	a0,0x9d01
9d013478:	24840b70 	addiu	a0,a0,2928
9d01347c:	10800016 	beqz	a0,9d0134d8 <_dinit_init+0x64>
9d013480:	00000000 	nop
9d013484:	8c850000 	lw	a1,0(a0)
9d013488:	10a00013 	beqz	a1,9d0134d8 <_dinit_init+0x64>
9d01348c:	24840004 	addiu	a0,a0,4
9d013490:	8c860000 	lw	a2,0(a0)
9d013494:	24840004 	addiu	a0,a0,4
9d013498:	848b0000 	lh	t3,0(a0)
9d01349c:	24840004 	addiu	a0,a0,4
9d0134a0:	3c0c9d01 	lui	t4,0x9d01
9d0134a4:	258c4af0 	addiu	t4,t4,19184
9d0134a8:	000b5880 	sll	t3,t3,0x2
9d0134ac:	016c6021 	addu	t4,t3,t4
9d0134b0:	8d8c0000 	lw	t4,0(t4)
9d0134b4:	0180f809 	jalr	t4
9d0134b8:	00000000 	nop
9d0134bc:	00402025 	move	a0,v0
9d0134c0:	24840003 	addiu	a0,a0,3
9d0134c4:	2406fffc 	li	a2,-4
9d0134c8:	00c42024 	and	a0,a2,a0
9d0134cc:	8c850000 	lw	a1,0(a0)
9d0134d0:	14a0ffec 	bnez	a1,9d013484 <_dinit_init+0x10>
9d0134d4:	00000000 	nop
9d0134d8:	0060f825 	move	ra,v1
9d0134dc:	03e00008 	jr	ra
9d0134e0:	00000000 	nop

Disassembly of section .text.atoi:

9d0134e4 <atoi>:
9d0134e4:	24050020 	li	a1,32
9d0134e8:	80820000 	lb	v0,0(a0)
9d0134ec:	1045000d 	beq	v0,a1,9d013524 <atoi+0x40>
9d0134f0:	2443fff7 	addiu	v1,v0,-9
9d0134f4:	2c630005 	sltiu	v1,v1,5
9d0134f8:	1460000a 	bnez	v1,9d013524 <atoi+0x40>
9d0134fc:	2403002b 	li	v1,43
9d013500:	1043000a 	beq	v0,v1,9d01352c <atoi+0x48>
9d013504:	2403002d 	li	v1,45
9d013508:	14430003 	bne	v0,v1,9d013518 <atoi+0x34>
9d01350c:	00002825 	move	a1,zero
9d013510:	24050001 	li	a1,1
9d013514:	24840001 	addiu	a0,a0,1
9d013518:	00001025 	move	v0,zero
9d01351c:	10000007 	b	9d01353c <atoi+0x58>
9d013520:	2407000a 	li	a3,10
9d013524:	1000fff0 	b	9d0134e8 <atoi+0x4>
9d013528:	24840001 	addiu	a0,a0,1
9d01352c:	1000fff9 	b	9d013514 <atoi+0x30>
9d013530:	00002825 	move	a1,zero
9d013534:	24840001 	addiu	a0,a0,1
9d013538:	00431023 	subu	v0,v0,v1
9d01353c:	80830000 	lb	v1,0(a0)
9d013540:	2463ffd0 	addiu	v1,v1,-48
9d013544:	2c66000a 	sltiu	a2,v1,10
9d013548:	54c0fffa 	bnezl	a2,9d013534 <atoi+0x50>
9d01354c:	70471002 	mul	v0,v0,a3
9d013550:	50a00001 	beqzl	a1,9d013558 <atoi+0x74>
9d013554:	00021023 	negu	v0,v0
9d013558:	03e00008 	jr	ra
9d01355c:	00000000 	nop

Disassembly of section .text.__readv:

9d013560 <readv>:
9d013560:	27bdffd8 	addiu	sp,sp,-40
9d013564:	afb40020 	sw	s4,32(sp)
9d013568:	afb3001c 	sw	s3,28(sp)
9d01356c:	afb20018 	sw	s2,24(sp)
9d013570:	afb10014 	sw	s1,20(sp)
9d013574:	afb00010 	sw	s0,16(sp)
9d013578:	afbf0024 	sw	ra,36(sp)
9d01357c:	0080a025 	move	s4,a0
9d013580:	00c09825 	move	s3,a2
9d013584:	00a08025 	move	s0,a1
9d013588:	00008825 	move	s1,zero
9d01358c:	00009025 	move	s2,zero
9d013590:	0253102a 	slt	v0,s2,s3
9d013594:	14400009 	bnez	v0,9d0135bc <readv+0x5c>
9d013598:	8fbf0024 	lw	ra,36(sp)
9d01359c:	02201025 	move	v0,s1
9d0135a0:	8fb40020 	lw	s4,32(sp)
9d0135a4:	8fb3001c 	lw	s3,28(sp)
9d0135a8:	8fb20018 	lw	s2,24(sp)
9d0135ac:	8fb10014 	lw	s1,20(sp)
9d0135b0:	8fb00010 	lw	s0,16(sp)
9d0135b4:	03e00008 	jr	ra
9d0135b8:	27bd0028 	addiu	sp,sp,40
9d0135bc:	8e060004 	lw	a2,4(s0)
9d0135c0:	8e050000 	lw	a1,0(s0)
9d0135c4:	02802025 	move	a0,s4
9d0135c8:	0f404534 	jal	9d0114d0 <read>
9d0135cc:	26520001 	addiu	s2,s2,1
9d0135d0:	02228821 	addu	s1,s1,v0
9d0135d4:	1000ffee 	b	9d013590 <readv+0x30>
9d0135d8:	26100008 	addiu	s0,s0,8

Disassembly of section .text.litodp:

9d0135dc <__floatsidf>:
9d0135dc:	24050000 00054825 00053825 00043025     ...$%H..%8..%0..
9d0135ec:	10c0000c 00000000 04c10006 00000000     ................
9d0135fc:	3c098000 0005502b 00052823 00063023     ...<+P..#(..#0..
9d01360c:	00ca3023                                #0..

9d013610 <i40>:
9d013610:	2407041e 	li	a3,1054
9d013614:	70c84020 	clz	t0,a2
9d013618:	00e83823 	subu	a3,a3,t0
9d01361c:	01063004 	sllv	a2,a2,t0

9d013620 <i39>:
9d013620:	000542c2 	srl	t0,a1,0xb
9d013624:	00065540 	sll	t2,a2,0x15
9d013628:	010a4025 	or	t0,t0,t2
9d01362c:	00065040 	sll	t2,a2,0x1
9d013630:	000a5302 	srl	t2,t2,0xc
9d013634:	012a4825 	or	t1,t1,t2
9d013638:	00075500 	sll	t2,a3,0x14
9d01363c:	012a4825 	or	t1,t1,t2
9d013640:	00081025 	or	v0,zero,t0
9d013644:	00091825 	or	v1,zero,t1

9d013648 <E999>:
9d013648:	03e00008 	jr	ra
9d01364c:	00000000 	nop
9d013650:	00000000 	nop

Disassembly of section .text.alloc_rev:

9d013654 <alloc_rev>:
9d013654:	8c860000 	lw	a2,0(a0)
9d013658:	30c20001 	andi	v0,a2,0x1
9d01365c:	10400009 	beqz	v0,9d013684 <alloc_rev+0x30>
9d013660:	00803825 	move	a3,a0
9d013664:	03e00008 	jr	ra
9d013668:	00001025 	move	v0,zero
9d01366c:	8ce60000 	lw	a2,0(a3)
9d013670:	30c20001 	andi	v0,a2,0x1
9d013674:	10400005 	beqz	v0,9d01368c <alloc_rev+0x38>
9d013678:	00001025 	move	v0,zero
9d01367c:	10000010 	b	9d0136c0 <alloc_rev+0x6c>
9d013680:	8fbf0014 	lw	ra,20(sp)
9d013684:	27bdffe8 	addiu	sp,sp,-24
9d013688:	afbf0014 	sw	ra,20(sp)
9d01368c:	0f404e8d 	jal	9d013a34 <bin_index>
9d013690:	00c02025 	move	a0,a2
9d013694:	00402025 	move	a0,v0
9d013698:	0f4050f1 	jal	9d0143c4 <lock_bin>
9d01369c:	00404025 	move	t0,v0
9d0136a0:	8ce40000 	lw	a0,0(a3)
9d0136a4:	1486fff1 	bne	a0,a2,9d01366c <alloc_rev+0x18>
9d0136a8:	7c040004 	ins	a0,zero,0x0,0x1
9d0136ac:	01002825 	move	a1,t0
9d0136b0:	0f404a04 	jal	9d012810 <unbin>
9d0136b4:	00e42023 	subu	a0,a3,a0
9d0136b8:	24020001 	li	v0,1
9d0136bc:	8fbf0014 	lw	ra,20(sp)
9d0136c0:	03e00008 	jr	ra
9d0136c4:	27bd0018 	addiu	sp,sp,24

Disassembly of section .text:

9d0136c8 <__floatdidf>:
9d0136c8:	27bdffe0 	addiu	sp,sp,-32
9d0136cc:	afb20018 	sw	s2,24(sp)
9d0136d0:	00809025 	move	s2,a0
9d0136d4:	00a02025 	move	a0,a1
9d0136d8:	afbf001c 	sw	ra,28(sp)
9d0136dc:	afb10014 	sw	s1,20(sp)
9d0136e0:	0f404d77 	jal	9d0135dc <__floatsidf>
9d0136e4:	afb00010 	sw	s0,16(sp)
9d0136e8:	3c049d00 	lui	a0,0x9d00
9d0136ec:	8c867668 	lw	a2,30312(a0)
9d0136f0:	8c87766c 	lw	a3,30316(a0)
9d0136f4:	00602825 	move	a1,v1
9d0136f8:	0f403be4 	jal	9d00ef90 <__muldf3>
9d0136fc:	00402025 	move	a0,v0
9d013700:	02402025 	move	a0,s2
9d013704:	00408025 	move	s0,v0
9d013708:	0f40505b 	jal	9d01416c <__floatunsidf>
9d01370c:	00608825 	move	s1,v1
9d013710:	00402025 	move	a0,v0
9d013714:	02003025 	move	a2,s0
9d013718:	02203825 	move	a3,s1
9d01371c:	0f40372a 	jal	9d00dca8 <__adddf3>
9d013720:	00602825 	move	a1,v1
9d013724:	8fbf001c 	lw	ra,28(sp)
9d013728:	8fb20018 	lw	s2,24(sp)
9d01372c:	8fb10014 	lw	s1,20(sp)
9d013730:	8fb00010 	lw	s0,16(sp)
9d013734:	03e00008 	jr	ra
9d013738:	27bd0020 	addiu	sp,sp,32

Disassembly of section .text.__scan_d:

9d01373c <__scan_d>:
9d01373c:	27bdffd8 	addiu	sp,sp,-40
9d013740:	afb10020 	sw	s1,32(sp)
9d013744:	afb0001c 	sw	s0,28(sp)
9d013748:	00a08825 	move	s1,a1
9d01374c:	8cd0000c 	lw	s0,12(a2)
9d013750:	00c02825 	move	a1,a2
9d013754:	afbf0024 	sw	ra,36(sp)
9d013758:	0f4044e5 	jal	9d011394 <__read_int>
9d01375c:	00e03025 	move	a2,a3
9d013760:	2403ffff 	li	v1,-1
9d013764:	1043000c 	beq	v0,v1,9d013798 <__scan_d+0x5c>
9d013768:	02002025 	move	a0,s0
9d01376c:	2406000a 	li	a2,10
9d013770:	0f405152 	jal	9d014548 <strtoll>
9d013774:	27a50010 	addiu	a1,sp,16
9d013778:	ae220000 	sw	v0,0(s1)
9d01377c:	8fa20010 	lw	v0,16(sp)
9d013780:	ae230004 	sw	v1,4(s1)
9d013784:	2404fffe 	li	a0,-2
9d013788:	00501026 	xor	v0,v0,s0
9d01378c:	24030001 	li	v1,1
9d013790:	0082180a 	movz	v1,a0,v0
9d013794:	00601025 	move	v0,v1
9d013798:	8fbf0024 	lw	ra,36(sp)
9d01379c:	8fb10020 	lw	s1,32(sp)
9d0137a0:	8fb0001c 	lw	s0,28(sp)
9d0137a4:	03e00008 	jr	ra
9d0137a8:	27bd0028 	addiu	sp,sp,40

Disassembly of section .text.__consumews:

9d0137ac <__consumews>:
9d0137ac:	8ca20000 	lw	v0,0(a1)
9d0137b0:	24030020 	li	v1,32
9d0137b4:	80420000 	lb	v0,0(v0)
9d0137b8:	10430004 	beq	v0,v1,9d0137cc <__consumews+0x20>
9d0137bc:	2442fff7 	addiu	v0,v0,-9
9d0137c0:	2c430005 	sltiu	v1,v0,5
9d0137c4:	10600013 	beqz	v1,9d013814 <__consumews+0x68>
9d0137c8:	00001025 	move	v0,zero
9d0137cc:	27bdffe8 	addiu	sp,sp,-24
9d0137d0:	afb00010 	sw	s0,16(sp)
9d0137d4:	afbf0014 	sw	ra,20(sp)
9d0137d8:	0f404ad7 	jal	9d012b5c <__skipws>
9d0137dc:	00a08025 	move	s0,a1
9d0137e0:	24040020 	li	a0,32
9d0137e4:	8e030000 	lw	v1,0(s0)
9d0137e8:	24650001 	addiu	a1,v1,1
9d0137ec:	ae050000 	sw	a1,0(s0)
9d0137f0:	80630001 	lb	v1,1(v1)
9d0137f4:	1064fffb 	beq	v1,a0,9d0137e4 <__consumews+0x38>
9d0137f8:	2463fff7 	addiu	v1,v1,-9
9d0137fc:	2c630005 	sltiu	v1,v1,5
9d013800:	1460fff8 	bnez	v1,9d0137e4 <__consumews+0x38>
9d013804:	8fbf0014 	lw	ra,20(sp)
9d013808:	8fb00010 	lw	s0,16(sp)
9d01380c:	03e00008 	jr	ra
9d013810:	27bd0018 	addiu	sp,sp,24
9d013814:	03e00008 	jr	ra
9d013818:	00000000 	nop

Disassembly of section .text.__putc:

9d01381c <__putc>:
9d01381c:	8ca20004 	lw	v0,4(a1)
9d013820:	27bdffe8 	addiu	sp,sp,-24
9d013824:	30420020 	andi	v0,v0,0x20
9d013828:	14400006 	bnez	v0,9d013844 <__putc+0x28>
9d01382c:	afbf0014 	sw	ra,20(sp)
9d013830:	0f404e75 	jal	9d0139d4 <__putc_unbuffered>
9d013834:	00000000 	nop
9d013838:	8fbf0014 	lw	ra,20(sp)
9d01383c:	03e00008 	jr	ra
9d013840:	27bd0018 	addiu	sp,sp,24
9d013844:	00803025 	move	a2,a0
9d013848:	308200ff 	andi	v0,a0,0xff
9d01384c:	80a40034 	lb	a0,52(a1)
9d013850:	10820009 	beq	a0,v0,9d013878 <__putc+0x5c>
9d013854:	00a01825 	move	v1,a1
9d013858:	8ca40014 	lw	a0,20(a1)
9d01385c:	8ca50028 	lw	a1,40(a1)
9d013860:	0085282b 	sltu	a1,a0,a1
9d013864:	10a00004 	beqz	a1,9d013878 <__putc+0x5c>
9d013868:	24850001 	addiu	a1,a0,1
9d01386c:	ac650014 	sw	a1,20(v1)
9d013870:	1000fff1 	b	9d013838 <__putc+0x1c>
9d013874:	a0860000 	sb	a2,0(a0)
9d013878:	00c02825 	move	a1,a2
9d01387c:	0f404be7 	jal	9d012f9c <__overflow>
9d013880:	00602025 	move	a0,v1
9d013884:	1000ffed 	b	9d01383c <__putc+0x20>
9d013888:	8fbf0014 	lw	ra,20(sp)

Disassembly of section .text.alloc_fwd:

9d01388c <alloc_fwd>:
9d01388c:	8c860004 	lw	a2,4(a0)
9d013890:	30c20001 	andi	v0,a2,0x1
9d013894:	10400009 	beqz	v0,9d0138bc <alloc_fwd+0x30>
9d013898:	00803825 	move	a3,a0
9d01389c:	03e00008 	jr	ra
9d0138a0:	00001025 	move	v0,zero
9d0138a4:	8ce60004 	lw	a2,4(a3)
9d0138a8:	30c20001 	andi	v0,a2,0x1
9d0138ac:	10400005 	beqz	v0,9d0138c4 <alloc_fwd+0x38>
9d0138b0:	00001025 	move	v0,zero
9d0138b4:	1000000f 	b	9d0138f4 <alloc_fwd+0x68>
9d0138b8:	8fbf0014 	lw	ra,20(sp)
9d0138bc:	27bdffe8 	addiu	sp,sp,-24
9d0138c0:	afbf0014 	sw	ra,20(sp)
9d0138c4:	0f404e8d 	jal	9d013a34 <bin_index>
9d0138c8:	00c02025 	move	a0,a2
9d0138cc:	00402025 	move	a0,v0
9d0138d0:	0f4050f1 	jal	9d0143c4 <lock_bin>
9d0138d4:	00404025 	move	t0,v0
9d0138d8:	8ce20004 	lw	v0,4(a3)
9d0138dc:	1446fff1 	bne	v0,a2,9d0138a4 <alloc_fwd+0x18>
9d0138e0:	01002825 	move	a1,t0
9d0138e4:	0f404a04 	jal	9d012810 <unbin>
9d0138e8:	00e02025 	move	a0,a3
9d0138ec:	24020001 	li	v0,1
9d0138f0:	8fbf0014 	lw	ra,20(sp)
9d0138f4:	03e00008 	jr	ra
9d0138f8:	27bd0018 	addiu	sp,sp,24

Disassembly of section .text.__vsscanf:

9d0138fc <__vsscanf>:
9d0138fc:	27bdff80 	addiu	sp,sp,-128
9d013900:	afb20078 	sw	s2,120(sp)
9d013904:	afb10074 	sw	s1,116(sp)
9d013908:	afb00070 	sw	s0,112(sp)
9d01390c:	00a08825 	move	s1,a1
9d013910:	00808025 	move	s0,a0
9d013914:	00c09025 	move	s2,a2
9d013918:	27a40010 	addiu	a0,sp,16
9d01391c:	24060060 	li	a2,96
9d013920:	afbf007c 	sw	ra,124(sp)
9d013924:	0f4051de 	jal	9d014778 <memset>
9d013928:	00002825 	move	a1,zero
9d01392c:	3c029d01 	lui	v0,0x9d01
9d013930:	2442497c 	addiu	v0,v0,18812
9d013934:	02403025 	move	a2,s2
9d013938:	02202825 	move	a1,s1
9d01393c:	27a40010 	addiu	a0,sp,16
9d013940:	afb00018 	sw	s0,24(sp)
9d013944:	afb00048 	sw	s0,72(sp)
9d013948:	0f405089 	jal	9d014224 <__vfscanf>
9d01394c:	afa20054 	sw	v0,84(sp)
9d013950:	8fbf007c 	lw	ra,124(sp)
9d013954:	8fb20078 	lw	s2,120(sp)
9d013958:	8fb10074 	lw	s1,116(sp)
9d01395c:	8fb00070 	lw	s0,112(sp)
9d013960:	03e00008 	jr	ra
9d013964:	27bd0080 	addiu	sp,sp,128

Disassembly of section .text.a_clz_64:

9d013968 <a_clz_64>:
9d013968:	24030020 	li	v1,32
9d01396c:	00a5200b 	movn	a0,a1,a1
9d013970:	0005180b 	movn	v1,zero,a1
9d013974:	00042c02 	srl	a1,a0,0x10
9d013978:	14a00004 	bnez	a1,9d01398c <a_clz_64+0x24>
9d01397c:	00051202 	srl	v0,a1,0x8
9d013980:	34630010 	ori	v1,v1,0x10
9d013984:	00802825 	move	a1,a0
9d013988:	00051202 	srl	v0,a1,0x8
9d01398c:	14400004 	bnez	v0,9d0139a0 <a_clz_64+0x38>
9d013990:	00022102 	srl	a0,v0,0x4
9d013994:	34630008 	ori	v1,v1,0x8
9d013998:	00a01025 	move	v0,a1
9d01399c:	00022102 	srl	a0,v0,0x4
9d0139a0:	54800004 	bnezl	a0,9d0139b4 <a_clz_64+0x4c>
9d0139a4:	00041082 	srl	v0,a0,0x2
9d0139a8:	34630004 	ori	v1,v1,0x4
9d0139ac:	00402025 	move	a0,v0
9d0139b0:	00041082 	srl	v0,a0,0x2
9d0139b4:	54400004 	bnezl	v0,9d0139c8 <a_clz_64+0x60>
9d0139b8:	00021042 	srl	v0,v0,0x1
9d0139bc:	34630002 	ori	v1,v1,0x2
9d0139c0:	00801025 	move	v0,a0
9d0139c4:	00021042 	srl	v0,v0,0x1
9d0139c8:	38420001 	xori	v0,v0,0x1
9d0139cc:	03e00008 	jr	ra
9d0139d0:	00431025 	or	v0,v0,v1

Disassembly of section .text.__putc_unbuffered:

9d0139d4 <__putc_unbuffered>:
9d0139d4:	8ca20004 	lw	v0,4(a1)
9d0139d8:	27bdffe0 	addiu	sp,sp,-32
9d0139dc:	308300ff 	andi	v1,a0,0xff
9d0139e0:	30420100 	andi	v0,v0,0x100
9d0139e4:	afbf001c 	sw	ra,28(sp)
9d0139e8:	1040000a 	beqz	v0,9d013a14 <__putc_unbuffered+0x40>
9d0139ec:	a3a30010 	sb	v1,16(sp)
9d0139f0:	8ca20014 	lw	v0,20(a1)
9d0139f4:	308400ff 	andi	a0,a0,0xff
9d0139f8:	24460001 	addiu	a2,v0,1
9d0139fc:	aca60014 	sw	a2,20(a1)
9d013a00:	a0430000 	sb	v1,0(v0)
9d013a04:	8fbf001c 	lw	ra,28(sp)
9d013a08:	00801025 	move	v0,a0
9d013a0c:	03e00008 	jr	ra
9d013a10:	27bd0020 	addiu	sp,sp,32
9d013a14:	00a02025 	move	a0,a1
9d013a18:	24060001 	li	a2,1
9d013a1c:	0f4050fe 	jal	9d0143f8 <__fwrite>
9d013a20:	27a50010 	addiu	a1,sp,16
9d013a24:	1040fff7 	beqz	v0,9d013a04 <__putc_unbuffered+0x30>
9d013a28:	2404ffff 	li	a0,-1
9d013a2c:	1000fff5 	b	9d013a04 <__putc_unbuffered+0x30>
9d013a30:	93a40010 	lbu	a0,16(sp)

Disassembly of section .text.bin_index:

9d013a34 <bin_index>:
9d013a34:	00042102 	srl	a0,a0,0x4
9d013a38:	2484ffff 	addiu	a0,a0,-1
9d013a3c:	2c820021 	sltiu	v0,a0,33
9d013a40:	14400012 	bnez	v0,9d013a8c <bin_index+0x58>
9d013a44:	00801025 	move	v0,a0
9d013a48:	2c820200 	sltiu	v0,a0,512
9d013a4c:	10400007 	beqz	v0,9d013a6c <bin_index+0x38>
9d013a50:	2c831c01 	sltiu	v1,a0,7169
9d013a54:	3c029d01 	lui	v0,0x9d01
9d013a58:	24423bd0 	addiu	v0,v0,15312
9d013a5c:	000420c2 	srl	a0,a0,0x3
9d013a60:	00822021 	addu	a0,a0,v0
9d013a64:	03e00008 	jr	ra
9d013a68:	9082fffc 	lbu	v0,-4(a0)
9d013a6c:	10600007 	beqz	v1,9d013a8c <bin_index+0x58>
9d013a70:	2402003f 	li	v0,63
9d013a74:	3c029d01 	lui	v0,0x9d01
9d013a78:	24423bd0 	addiu	v0,v0,15312
9d013a7c:	000421c2 	srl	a0,a0,0x7
9d013a80:	00822021 	addu	a0,a0,v0
9d013a84:	9082fffc 	lbu	v0,-4(a0)
9d013a88:	24420010 	addiu	v0,v0,16
9d013a8c:	03e00008 	jr	ra
9d013a90:	00000000 	nop

Disassembly of section .text.__fopen_std:

9d013a94 <__fopen_std>:
9d013a94:	27bdffe8 	addiu	sp,sp,-24
9d013a98:	afb00010 	sw	s0,16(sp)
9d013a9c:	afbf0014 	sw	ra,20(sp)
9d013aa0:	0f403eab 	jal	9d00faac <malloc>
9d013aa4:	24040038 	li	a0,56
9d013aa8:	1040000d 	beqz	v0,9d013ae0 <__fopen_std+0x4c>
9d013aac:	00408025 	move	s0,v0
9d013ab0:	24060038 	li	a2,56
9d013ab4:	00002825 	move	a1,zero
9d013ab8:	0f4051de 	jal	9d014778 <memset>
9d013abc:	00402025 	move	a0,v0
9d013ac0:	3c029d01 	lui	v0,0x9d01
9d013ac4:	2442483c 	addiu	v0,v0,18492
9d013ac8:	ae02002c 	sw	v0,44(s0)
9d013acc:	3c029d01 	lui	v0,0x9d01
9d013ad0:	24422f08 	addiu	v0,v0,12040
9d013ad4:	ae020030 	sw	v0,48(s0)
9d013ad8:	2402ffff 	li	v0,-1
9d013adc:	a2020034 	sb	v0,52(s0)
9d013ae0:	8fbf0014 	lw	ra,20(sp)
9d013ae4:	02001025 	move	v0,s0
9d013ae8:	8fb00010 	lw	s0,16(sp)
9d013aec:	03e00008 	jr	ra
9d013af0:	27bd0018 	addiu	sp,sp,24

Disassembly of section .text.sitofp:

9d013af4 <__floatsisf>:
9d013af4:	3c018000 10800012 00813024 04810002     ...<....$0......
9d013b04:	00000000 00042023                       ....# ..

9d013b0c <i40>:
9d013b0c:	2405009e 	li	a1,158
9d013b10:	70873820 	clz	a3,a0
9d013b14:	00a72823 	subu	a1,a1,a3
9d013b18:	00e42004 	sllv	a0,a0,a3
9d013b1c:	24840080 	addiu	a0,a0,128
9d013b20:	2c880080 	sltiu	t0,a0,128
9d013b24:	00a82821 	addu	a1,a1,t0
9d013b28:	00044203 	sra	t0,a0,0x8
9d013b2c:	31080001 	andi	t0,t0,0x1
9d013b30:	00882023 	subu	a0,a0,t0
9d013b34:	00042040 	sll	a0,a0,0x1
9d013b38:	00042242 	srl	a0,a0,0x9
9d013b3c:	000545c0 	sll	t0,a1,0x17
9d013b40:	00882025 	or	a0,a0,t0

9d013b44 <i39>:
9d013b44:	00861025 	or	v0,a0,a2

9d013b48 <E999>:
9d013b48:	03e00008 	jr	ra
9d013b4c:	00000000 	nop
9d013b50:	00000000 	nop

Disassembly of section .text.__string_out:

9d013b54 <__string_out>:
9d013b54:	8c820010 	lw	v0,16(a0)
9d013b58:	27bdffe0 	addiu	sp,sp,-32
9d013b5c:	afb00014 	sw	s0,20(sp)
9d013b60:	00808025 	move	s0,a0
9d013b64:	8c840014 	lw	a0,20(a0)
9d013b68:	afb10018 	sw	s1,24(sp)
9d013b6c:	00c2882b 	sltu	s1,a2,v0
9d013b70:	0051300a 	movz	a2,v0,s1
9d013b74:	afbf001c 	sw	ra,28(sp)
9d013b78:	0f405173 	jal	9d0145cc <memcpy>
9d013b7c:	00c08825 	move	s1,a2
9d013b80:	8e020014 	lw	v0,20(s0)
9d013b84:	8e060010 	lw	a2,16(s0)
9d013b88:	00511021 	addu	v0,v0,s1
9d013b8c:	00d18823 	subu	s1,a2,s1
9d013b90:	ae110010 	sw	s1,16(s0)
9d013b94:	ae020014 	sw	v0,20(s0)
9d013b98:	a0400000 	sb	zero,0(v0)
9d013b9c:	8fbf001c 	lw	ra,28(sp)
9d013ba0:	8fb10018 	lw	s1,24(sp)
9d013ba4:	8fb00014 	lw	s0,20(sp)
9d013ba8:	03e00008 	jr	ra
9d013bac:	27bd0020 	addiu	sp,sp,32

Disassembly of section .rodata:

9d013bb0 <debruijn32.1767>:
9d013bb0:	02170100 0313181d 0b191b1e 0d040814     ................
9d013bc0:	121c161f 0c070a1a 06091115 0e0f0510     ................

9d013bd0 <bin_tab>:
9d013bd0:	23222120 25252424 27272626 28282828      !"#$$%%&&''((((
9d013be0:	29292929 2a2a2a2a 2b2b2b2b 2c2c2c2c     ))))****++++,,,,
9d013bf0:	2c2c2c2c 2d2d2d2d 2d2d2d2d 2e2e2e2e     ,,,,--------....
9d013c00:	2e2e2e2e 2f2f2f2f 2f2f2f2f              ....////////

Disassembly of section .text.__fmt_state:

9d013c0c <__fmt_state>:
9d013c0c:	3c069d01 	lui	a2,0x9d01
9d013c10:	00001025 	move	v0,zero
9d013c14:	24c64ac0 	addiu	a2,a2,19136
9d013c18:	00021840 	sll	v1,v0,0x1
9d013c1c:	00661821 	addu	v1,v1,a2
9d013c20:	80670000 	lb	a3,0(v1)
9d013c24:	54e00003 	bnezl	a3,9d013c34 <__fmt_state+0x28>
9d013c28:	8c850000 	lw	a1,0(a0)
9d013c2c:	03e00008 	jr	ra
9d013c30:	90620001 	lbu	v0,1(v1)
9d013c34:	24420001 	addiu	v0,v0,1
9d013c38:	80a80000 	lb	t0,0(a1)
9d013c3c:	15070004 	bne	t0,a3,9d013c50 <__fmt_state+0x44>
9d013c40:	304200ff 	andi	v0,v0,0xff
9d013c44:	90620001 	lbu	v0,1(v1)
9d013c48:	24a50001 	addiu	a1,a1,1
9d013c4c:	ac850000 	sw	a1,0(a0)
9d013c50:	2c43000b 	sltiu	v1,v0,11
9d013c54:	1460fff1 	bnez	v1,9d013c1c <__fmt_state+0x10>
9d013c58:	00021840 	sll	v1,v0,0x1
9d013c5c:	03e00008 	jr	ra
9d013c60:	00000000 	nop

Disassembly of section .text.adjust_size:

9d013c64 <adjust_size>:
9d013c64:	3c03a000 	lui	v1,0xa000
9d013c68:	8c665374 	lw	a2,21364(v1)
9d013c6c:	8c820000 	lw	v0,0(a0)
9d013c70:	3c037fff 	lui	v1,0x7fff
9d013c74:	3463ffef 	ori	v1,v1,0xffef
9d013c78:	2445ffff 	addiu	a1,v0,-1
9d013c7c:	00661823 	subu	v1,v1,a2
9d013c80:	0065182b 	sltu	v1,v1,a1
9d013c84:	5060000b 	beqzl	v1,9d013cb4 <adjust_size+0x50>
9d013c88:	24420017 	addiu	v0,v0,23
9d013c8c:	10400005 	beqz	v0,9d013ca4 <adjust_size+0x40>
9d013c90:	2403000c 	li	v1,12
9d013c94:	3c02a000 	lui	v0,0xa000
9d013c98:	ac4353b4 	sw	v1,21428(v0)
9d013c9c:	03e00008 	jr	ra
9d013ca0:	2402ffff 	li	v0,-1
9d013ca4:	24020010 	li	v0,16
9d013ca8:	ac820000 	sw	v0,0(a0)
9d013cac:	03e00008 	jr	ra
9d013cb0:	00001025 	move	v0,zero
9d013cb4:	1000fffc 	b	9d013ca8 <adjust_size+0x44>
9d013cb8:	7c021804 	ins	v0,zero,0x0,0x4

Disassembly of section .text.trim:

9d013cbc <trim>:
9d013cbc:	8c820004 	lw	v0,4(a0)
9d013cc0:	7c020004 	ins	v0,zero,0x0,0x1
9d013cc4:	00451823 	subu	v1,v0,a1
9d013cc8:	2c660011 	sltiu	a2,v1,17
9d013ccc:	14c0000f 	bnez	a2,9d013d0c <trim+0x50>
9d013cd0:	00853021 	addu	a2,a0,a1
9d013cd4:	27bdffe8 	addiu	sp,sp,-24
9d013cd8:	34a50001 	ori	a1,a1,0x1
9d013cdc:	34630001 	ori	v1,v1,0x1
9d013ce0:	00821021 	addu	v0,a0,v0
9d013ce4:	afbf0014 	sw	ra,20(sp)
9d013ce8:	acc50000 	sw	a1,0(a2)
9d013cec:	acc30004 	sw	v1,4(a2)
9d013cf0:	ac430000 	sw	v1,0(v0)
9d013cf4:	ac850004 	sw	a1,4(a0)
9d013cf8:	0f40415a 	jal	9d010568 <free>
9d013cfc:	24c40008 	addiu	a0,a2,8
9d013d00:	8fbf0014 	lw	ra,20(sp)
9d013d04:	03e00008 	jr	ra
9d013d08:	27bd0018 	addiu	sp,sp,24
9d013d0c:	03e00008 	jr	ra
9d013d10:	00000000 	nop

Disassembly of section .text.main_entry:

9d013d14 <_main_entry>:
9d013d14:	3c040000 	lui	a0,0x0
9d013d18:	27bdffe8 	addiu	sp,sp,-24
9d013d1c:	24840000 	addiu	a0,a0,0
9d013d20:	10800003 	beqz	a0,9d013d30 <_main_entry+0x1c>
9d013d24:	afbf0014 	sw	ra,20(sp)
9d013d28:	0080f809 	jalr	a0
9d013d2c:	00000000 	nop
9d013d30:	30840000 	andi	a0,a0,0x0
9d013d34:	30a50000 	andi	a1,a1,0x0
9d013d38:	3c089d01 	lui	t0,0x9d01
9d013d3c:	2508849c 	addiu	t0,t0,-31588
9d013d40:	0100f809 	jalr	t0
9d013d44:	00000000 	nop

9d013d48 <__crt0_exit>:
9d013d48:	3c020000 24420000 10400003 00000000     ...<..B$..@.....
9d013d58:	0040f809 00000000 1000fff9 00000000     ..@.............

Disassembly of section .text.__uflow:

9d013d68 <__uflow>:
9d013d68:	27bdffe0 	addiu	sp,sp,-32
9d013d6c:	afb00018 	sw	s0,24(sp)
9d013d70:	afbf001c 	sw	ra,28(sp)
9d013d74:	0f404b9d 	jal	9d012e74 <__toread>
9d013d78:	00808025 	move	s0,a0
9d013d7c:	50400006 	beqzl	v0,9d013d98 <__uflow+0x30>
9d013d80:	8e020044 	lw	v0,68(s0)
9d013d84:	2402ffff 	li	v0,-1
9d013d88:	8fbf001c 	lw	ra,28(sp)
9d013d8c:	8fb00018 	lw	s0,24(sp)
9d013d90:	03e00008 	jr	ra
9d013d94:	27bd0020 	addiu	sp,sp,32
9d013d98:	24060001 	li	a2,1
9d013d9c:	27a50010 	addiu	a1,sp,16
9d013da0:	0040f809 	jalr	v0
9d013da4:	02002025 	move	a0,s0
9d013da8:	24030001 	li	v1,1
9d013dac:	1443fff5 	bne	v0,v1,9d013d84 <__uflow+0x1c>
9d013db0:	93a20010 	lbu	v0,16(sp)
9d013db4:	1000fff5 	b	9d013d8c <__uflow+0x24>
9d013db8:	8fbf001c 	lw	ra,28(sp)

Disassembly of section .text.__pop_float:

9d013dbc <__pop_float>:
9d013dbc:	28a30080 	slti	v1,a1,128
9d013dc0:	14600010 	bnez	v1,9d013e04 <__pop_float+0x48>
9d013dc4:	00001025 	move	v0,zero
9d013dc8:	28a30082 	slti	v1,a1,130
9d013dcc:	14600003 	bnez	v1,9d013ddc <__pop_float+0x20>
9d013dd0:	24030083 	li	v1,131
9d013dd4:	14a3000b 	bne	a1,v1,9d013e04 <__pop_float+0x48>
9d013dd8:	00000000 	nop
9d013ddc:	8cc20000 	lw	v0,0(a2)
9d013de0:	24420007 	addiu	v0,v0,7
9d013de4:	7c021004 	ins	v0,zero,0x0,0x3
9d013de8:	24430008 	addiu	v1,v0,8
9d013dec:	acc30000 	sw	v1,0(a2)
9d013df0:	8c430004 	lw	v1,4(v0)
9d013df4:	8c420000 	lw	v0,0(v0)
9d013df8:	ac830004 	sw	v1,4(a0)
9d013dfc:	ac820000 	sw	v0,0(a0)
9d013e00:	24020001 	li	v0,1
9d013e04:	03e00008 	jr	ra
9d013e08:	00000000 	nop

Disassembly of section .text.__malloc0:

9d013e0c <__malloc0>:
9d013e0c:	27bdffe8 	addiu	sp,sp,-24
9d013e10:	afb00010 	sw	s0,16(sp)
9d013e14:	afbf0014 	sw	ra,20(sp)
9d013e18:	0f403eab 	jal	9d00faac <malloc>
9d013e1c:	00808025 	move	s0,a0
9d013e20:	10400006 	beqz	v0,9d013e3c <__malloc0+0x30>
9d013e24:	26100003 	addiu	s0,s0,3
9d013e28:	7c100804 	ins	s0,zero,0x0,0x2
9d013e2c:	00508021 	addu	s0,v0,s0
9d013e30:	00401825 	move	v1,v0
9d013e34:	54700005 	bnel	v1,s0,9d013e4c <__malloc0+0x40>
9d013e38:	8c640000 	lw	a0,0(v1)
9d013e3c:	8fbf0014 	lw	ra,20(sp)
9d013e40:	8fb00010 	lw	s0,16(sp)
9d013e44:	03e00008 	jr	ra
9d013e48:	27bd0018 	addiu	sp,sp,24
9d013e4c:	54800001 	bnezl	a0,9d013e54 <__malloc0+0x48>
9d013e50:	ac600000 	sw	zero,0(v1)
9d013e54:	1000fff7 	b	9d013e34 <__malloc0+0x28>
9d013e58:	24630004 	addiu	v1,v1,4

Disassembly of section .text.__stdio_exit:

9d013e5c <__stdio_exit>:
9d013e5c:	27bdffe8 	addiu	sp,sp,-24
9d013e60:	afbf0014 	sw	ra,20(sp)
9d013e64:	0f4052e5 	jal	9d014b94 <__stdio_exit_ofl>
9d013e68:	00000000 	nop
9d013e6c:	3c02a000 	lui	v0,0xa000
9d013e70:	8c44512c 	lw	a0,20780(v0)
9d013e74:	0f4050e3 	jal	9d01438c <__fclose>
9d013e78:	00002825 	move	a1,zero
9d013e7c:	3c02a000 	lui	v0,0xa000
9d013e80:	8c44512c 	lw	a0,20780(v0)
9d013e84:	0f4050e3 	jal	9d01438c <__fclose>
9d013e88:	00002825 	move	a1,zero
9d013e8c:	3c02a000 	lui	v0,0xa000
9d013e90:	8c44512c 	lw	a0,20780(v0)
9d013e94:	0f4050e3 	jal	9d01438c <__fclose>
9d013e98:	00002825 	move	a1,zero
9d013e9c:	8fbf0014 	lw	ra,20(sp)
9d013ea0:	03e00008 	jr	ra
9d013ea4:	27bd0018 	addiu	sp,sp,24

Disassembly of section .text.sbrk:

9d013ea8 <sbrk>:
9d013ea8:	27bdffe8 	addiu	sp,sp,-24
9d013eac:	afb00010 	sw	s0,16(sp)
9d013eb0:	afbf0014 	sw	ra,20(sp)
9d013eb4:	0f4049d8 	jal	9d012760 <_sbrk>
9d013eb8:	00808025 	move	s0,a0
9d013ebc:	1a000008 	blez	s0,9d013ee0 <sbrk+0x38>
9d013ec0:	00401825 	move	v1,v0
9d013ec4:	2402ffff 	li	v0,-1
9d013ec8:	10620005 	beq	v1,v0,9d013ee0 <sbrk+0x38>
9d013ecc:	00602025 	move	a0,v1
9d013ed0:	02003025 	move	a2,s0
9d013ed4:	0f4051de 	jal	9d014778 <memset>
9d013ed8:	00002825 	move	a1,zero
9d013edc:	00401825 	move	v1,v0
9d013ee0:	8fbf0014 	lw	ra,20(sp)
9d013ee4:	00601025 	move	v0,v1
9d013ee8:	8fb00010 	lw	s0,16(sp)
9d013eec:	03e00008 	jr	ra
9d013ef0:	27bd0018 	addiu	sp,sp,24

Disassembly of section .text:

9d013ef4 <set_position_Kp>:
#include "position_control.h"

void set_position_Kp(float kp) {
    position_Kp = kp;
9d013ef4:	af848060 	sw	a0,-32672(gp)
    return;
}
9d013ef8:	03e00008 	jr	ra
9d013efc:	00000000 	nop

9d013f00 <set_position_Ki>:

void set_position_Ki(float ki) {
    position_Ki = ki;
9d013f00:	af84804c 	sw	a0,-32692(gp)
    return;
}
9d013f04:	03e00008 	jr	ra
9d013f08:	00000000 	nop

9d013f0c <set_position_Kd>:

void set_position_Kd(float kd) {
    position_Kd = kd;
9d013f0c:	af848054 	sw	a0,-32684(gp)
    return;
}
9d013f10:	03e00008 	jr	ra
9d013f14:	00000000 	nop

9d013f18 <get_position_Kp>:

volatile float get_position_Kp() {
    return position_Kp;
9d013f18:	8f828060 	lw	v0,-32672(gp)
}
9d013f1c:	03e00008 	jr	ra
9d013f20:	00000000 	nop

9d013f24 <get_poistion_Ki>:

volatile float get_poistion_Ki() {
    return position_Ki;
9d013f24:	8f82804c 	lw	v0,-32692(gp)
}
9d013f28:	03e00008 	jr	ra
9d013f2c:	00000000 	nop

9d013f30 <get_poistion_Kd>:

volatile float get_poistion_Kd() {
    return position_Kd;
9d013f30:	8f828054 	lw	v0,-32684(gp)
9d013f34:	03e00008 	jr	ra
9d013f38:	00000000 	nop

Disassembly of section .text._bootstrap_exception_handler:

9d013f3c <_bootstrap_exception_handler>:
9d013f3c:	3c020000 	lui	v0,0x0
9d013f40:	24420000 	addiu	v0,v0,0
9d013f44:	10400005 	beqz	v0,9d013f5c <_bootstrap_exception_handler+0x20>
9d013f48:	3c020000 	lui	v0,0x0
9d013f4c:	24420000 	addiu	v0,v0,0
9d013f50:	10400003 	beqz	v0,9d013f60 <_bootstrap_exception_handler+0x24>
9d013f54:	3c029d01 	lui	v0,0x9d01
9d013f58:	7000003f 	sdbbp
9d013f5c:	3c029d01 	lui	v0,0x9d01
9d013f60:	244240a4 	addiu	v0,v0,16548
9d013f64:	10400005 	beqz	v0,9d013f7c <_bootstrap_exception_handler+0x40>
9d013f68:	00000000 	nop
9d013f6c:	27bdffe8 	addiu	sp,sp,-24
9d013f70:	afbf0014 	sw	ra,20(sp)
9d013f74:	0040f809 	jalr	v0
9d013f78:	00000000 	nop
9d013f7c:	1000ffff 	b	9d013f7c <_bootstrap_exception_handler+0x40>
9d013f80:	00000000 	nop

Disassembly of section .text._general_exception_handler:

9d013f84 <_general_exception_handler>:
9d013f84:	3c020000 	lui	v0,0x0
9d013f88:	24420000 	addiu	v0,v0,0
9d013f8c:	10400005 	beqz	v0,9d013fa4 <_general_exception_handler+0x20>
9d013f90:	3c020000 	lui	v0,0x0
9d013f94:	24420000 	addiu	v0,v0,0
9d013f98:	10400003 	beqz	v0,9d013fa8 <_general_exception_handler+0x24>
9d013f9c:	3c029d01 	lui	v0,0x9d01
9d013fa0:	7000003f 	sdbbp
9d013fa4:	3c029d01 	lui	v0,0x9d01
9d013fa8:	244240a4 	addiu	v0,v0,16548
9d013fac:	10400005 	beqz	v0,9d013fc4 <_general_exception_handler+0x40>
9d013fb0:	00000000 	nop
9d013fb4:	27bdffe8 	addiu	sp,sp,-24
9d013fb8:	afbf0014 	sw	ra,20(sp)
9d013fbc:	0040f809 	jalr	v0
9d013fc0:	00000000 	nop
9d013fc4:	1000ffff 	b	9d013fc4 <_general_exception_handler+0x40>
9d013fc8:	00000000 	nop

Disassembly of section .vector_default:

9d013fcc <_DefaultInterrupt>:
9d013fcc:	3c020000 	lui	v0,0x0
9d013fd0:	24420000 	addiu	v0,v0,0
9d013fd4:	10400007 	beqz	v0,9d013ff4 <_DefaultInterrupt+0x28>
9d013fd8:	3c020000 	lui	v0,0x0
9d013fdc:	24420000 	addiu	v0,v0,0
9d013fe0:	50400005 	beqzl	v0,9d013ff8 <_DefaultInterrupt+0x2c>
9d013fe4:	3c029d01 	lui	v0,0x9d01
9d013fe8:	7000003f 	sdbbp
9d013fec:	03e00008 	jr	ra
9d013ff0:	00000000 	nop
9d013ff4:	3c029d01 	lui	v0,0x9d01
9d013ff8:	244240a4 	addiu	v0,v0,16548
9d013ffc:	10400003 	beqz	v0,9d01400c <_DefaultInterrupt+0x40>
9d014000:	00000000 	nop
9d014004:	0040f809 	jalr	v0
9d014008:	00000000 	nop
9d01400c:	03e00008 	jr	ra
9d014010:	00000000 	nop

Disassembly of section .text.__ftello_adj_rw:

9d014014 <__ftello_adj_rw>:
9d014014:	8c820004 	lw	v0,4(a0)
9d014018:	30460002 	andi	a2,v0,0x2
9d01401c:	14c00004 	bnez	a2,9d014030 <__ftello_adj_rw+0x1c>
9d014020:	00001825 	move	v1,zero
9d014024:	8c830040 	lw	v1,64(a0)
9d014028:	8c86003c 	lw	a2,60(a0)
9d01402c:	00661823 	subu	v1,v1,a2
9d014030:	8c870014 	lw	a3,20(a0)
9d014034:	8c860018 	lw	a2,24(a0)
9d014038:	00e62023 	subu	a0,a3,a2
9d01403c:	00831821 	addu	v1,a0,v1
9d014040:	aca30000 	sw	v1,0(a1)
9d014044:	30430040 	andi	v1,v0,0x40
9d014048:	10600002 	beqz	v1,9d014054 <__ftello_adj_rw+0x40>
9d01404c:	00001025 	move	v0,zero
9d014050:	00c7102b 	sltu	v0,a2,a3
9d014054:	03e00008 	jr	ra
9d014058:	00000000 	nop

Disassembly of section .text.__stdio_seek_unbuffered:

9d01405c <__stdio_seek_unbuffered>:
9d01405c:	27bdffe8 	addiu	sp,sp,-24
9d014060:	afb00010 	sw	s0,16(sp)
9d014064:	00808025 	move	s0,a0
9d014068:	8c840000 	lw	a0,0(a0)
9d01406c:	afbf0014 	sw	ra,20(sp)
9d014070:	0f4052f3 	jal	9d014bcc <lseek>
9d014074:	00000000 	nop
9d014078:	04400005 	bltz	v0,9d014090 <__stdio_seek_unbuffered+0x34>
9d01407c:	2403ffff 	li	v1,-1
9d014080:	8e020004 	lw	v0,4(s0)
9d014084:	00001825 	move	v1,zero
9d014088:	7c0218c4 	ins	v0,zero,0x3,0x1
9d01408c:	ae020004 	sw	v0,4(s0)
9d014090:	8fbf0014 	lw	ra,20(sp)
9d014094:	00601025 	move	v0,v1
9d014098:	8fb00010 	lw	s0,16(sp)
9d01409c:	03e00008 	jr	ra
9d0140a0:	27bd0018 	addiu	sp,sp,24

Disassembly of section .text:

9d0140a4 <__pic32_software_reset>:
9d0140a4:	41606000 	di
9d0140a8:	000000c0 	ehb
9d0140ac:	3c03aa99 	lui	v1,0xaa99
9d0140b0:	3c02bf81 	lui	v0,0xbf81
9d0140b4:	24636655 	addiu	v1,v1,26197
9d0140b8:	ac40f230 	sw	zero,-3536(v0)
9d0140bc:	ac43f230 	sw	v1,-3536(v0)
9d0140c0:	3c035566 	lui	v1,0x5566
9d0140c4:	346399aa 	ori	v1,v1,0x99aa
9d0140c8:	ac43f230 	sw	v1,-3536(v0)
9d0140cc:	3c02bf81 	lui	v0,0xbf81
9d0140d0:	24030001 	li	v1,1
9d0140d4:	ac43f618 	sw	v1,-2536(v0)
9d0140d8:	3c02bf81 	lui	v0,0xbf81
9d0140dc:	8c42f610 	lw	v0,-2544(v0)
9d0140e0:	0b40502b 	j	9d0140ac <__pic32_software_reset+0x8>
9d0140e4:	00000000 	nop

Disassembly of section .text.__towrite:

9d0140e8 <__towrite>:
9d0140e8:	27bdffe8 	addiu	sp,sp,-24
9d0140ec:	afb00010 	sw	s0,16(sp)
9d0140f0:	afbf0014 	sw	ra,20(sp)
9d0140f4:	0f40507a 	jal	9d0141e8 <__towrite_rw>
9d0140f8:	00808025 	move	s0,a0
9d0140fc:	14400008 	bnez	v0,9d014120 <__towrite+0x38>
9d014100:	8fbf0014 	lw	ra,20(sp)
9d014104:	8e030008 	lw	v1,8(s0)
9d014108:	8e04000c 	lw	a0,12(s0)
9d01410c:	ae030018 	sw	v1,24(s0)
9d014110:	ae030014 	sw	v1,20(s0)
9d014114:	00641821 	addu	v1,v1,a0
9d014118:	ae030028 	sw	v1,40(s0)
9d01411c:	8fbf0014 	lw	ra,20(sp)
9d014120:	8fb00010 	lw	s0,16(sp)
9d014124:	03e00008 	jr	ra
9d014128:	27bd0018 	addiu	sp,sp,24

Disassembly of section .text.memchr:

9d01412c <memchr>:
9d01412c:	10c0000b 	beqz	a2,9d01415c <memchr+0x30>
9d014130:	30a500ff 	andi	a1,a1,0xff
9d014134:	90820000 	lbu	v0,0(a0)
9d014138:	1045000a 	beq	v0,a1,9d014164 <memchr+0x38>
9d01413c:	00863021 	addu	a2,a0,a2
9d014140:	10000004 	b	9d014154 <memchr+0x28>
9d014144:	24840001 	addiu	a0,a0,1
9d014148:	10450006 	beq	v0,a1,9d014164 <memchr+0x38>
9d01414c:	00000000 	nop
9d014150:	24840001 	addiu	a0,a0,1
9d014154:	54c4fffc 	bnel	a2,a0,9d014148 <memchr+0x1c>
9d014158:	90820000 	lbu	v0,0(a0)
9d01415c:	03e00008 	jr	ra
9d014160:	00001025 	move	v0,zero
9d014164:	03e00008 	jr	ra
9d014168:	00801025 	move	v0,a0

Disassembly of section .text:

9d01416c <__floatunsidf>:
9d01416c:	27bdffe8 	addiu	sp,sp,-24
9d014170:	afb00010 	sw	s0,16(sp)
9d014174:	afbf0014 	sw	ra,20(sp)
9d014178:	0f404d77 	jal	9d0135dc <__floatsidf>
9d01417c:	00808025 	move	s0,a0
9d014180:	06010006 	bgez	s0,9d01419c <__floatunsidf+0x30>
9d014184:	00602825 	move	a1,v1
9d014188:	3c049d00 	lui	a0,0x9d00
9d01418c:	8c867670 	lw	a2,30320(a0)
9d014190:	8c877674 	lw	a3,30324(a0)
9d014194:	0f40372a 	jal	9d00dca8 <__adddf3>
9d014198:	00402025 	move	a0,v0
9d01419c:	8fbf0014 	lw	ra,20(sp)
9d0141a0:	8fb00010 	lw	s0,16(sp)
9d0141a4:	03e00008 	jr	ra
9d0141a8:	27bd0018 	addiu	sp,sp,24

Disassembly of section .text.__sio_sprintf_deEfFgGn:

9d0141ac <__sio_sprintf_deEfFgGn>:
9d0141ac:	27bdffe8 	addiu	sp,sp,-24
9d0141b0:	afbf0014 	sw	ra,20(sp)
9d0141b4:	0f404442 	jal	9d011108 <__fmt_d>
9d0141b8:	00000000 	nop
9d0141bc:	0f4029c9 	jal	9d00a724 <__fmt_fp>
9d0141c0:	00000000 	nop
9d0141c4:	0f404f6f 	jal	9d013dbc <__pop_float>
9d0141c8:	00000000 	nop
9d0141cc:	0f4041c0 	jal	9d010700 <__pop_int>
9d0141d0:	00000000 	nop
9d0141d4:	0f404879 	jal	9d0121e4 <__pop_ptr>
9d0141d8:	00000000 	nop
9d0141dc:	8fbf0014 	lw	ra,20(sp)
9d0141e0:	03e00008 	jr	ra
9d0141e4:	27bd0018 	addiu	sp,sp,24

Disassembly of section .text.__towrite_rw:

9d0141e8 <__towrite_rw>:
9d0141e8:	80820048 	lb	v0,72(a0)
9d0141ec:	2443ffff 	addiu	v1,v0,-1
9d0141f0:	00431025 	or	v0,v0,v1
9d0141f4:	a0820048 	sb	v0,72(a0)
9d0141f8:	8c820004 	lw	v0,4(a0)
9d0141fc:	30430004 	andi	v1,v0,0x4
9d014200:	50600005 	beqzl	v1,9d014218 <__towrite_rw+0x30>
9d014204:	ac800040 	sw	zero,64(a0)
9d014208:	34420010 	ori	v0,v0,0x10
9d01420c:	ac820004 	sw	v0,4(a0)
9d014210:	03e00008 	jr	ra
9d014214:	2402ffff 	li	v0,-1
9d014218:	ac80003c 	sw	zero,60(a0)
9d01421c:	03e00008 	jr	ra
9d014220:	00001025 	move	v0,zero

Disassembly of section .text.__vfscanf:

9d014224 <__vfscanf>:
9d014224:	27bdffe0 	addiu	sp,sp,-32
9d014228:	afb00018 	sw	s0,24(sp)
9d01422c:	afa60010 	sw	a2,16(sp)
9d014230:	00808025 	move	s0,a0
9d014234:	afbf001c 	sw	ra,28(sp)
9d014238:	0f402bf6 	jal	9d00afd8 <__scanf_core>
9d01423c:	27a60010 	addiu	a2,sp,16
9d014240:	8e030004 	lw	v1,4(s0)
9d014244:	8fbf001c 	lw	ra,28(sp)
9d014248:	2404ffff 	li	a0,-1
9d01424c:	30630010 	andi	v1,v1,0x10
9d014250:	0083100b 	movn	v0,a0,v1
9d014254:	8fb00018 	lw	s0,24(sp)
9d014258:	03e00008 	jr	ra
9d01425c:	27bd0020 	addiu	sp,sp,32

Disassembly of section .text.__expand_heap:

9d014260 <__expand_heap>:
9d014260:	8c840000 	lw	a0,0(a0)
9d014264:	04810003 	bgez	a0,9d014274 <__expand_heap+0x14>
9d014268:	00001025 	move	v0,zero
9d01426c:	03e00008 	jr	ra
9d014270:	00000000 	nop
9d014274:	27bdffe8 	addiu	sp,sp,-24
9d014278:	afbf0014 	sw	ra,20(sp)
9d01427c:	0f4049d8 	jal	9d012760 <_sbrk>
9d014280:	00000000 	nop
9d014284:	2403ffff 	li	v1,-1
9d014288:	50430001 	beql	v0,v1,9d014290 <__expand_heap+0x30>
9d01428c:	00001025 	move	v0,zero
9d014290:	8fbf0014 	lw	ra,20(sp)
9d014294:	03e00008 	jr	ra
9d014298:	27bd0018 	addiu	sp,sp,24

Disassembly of section .text.__vfprintf:

9d01429c <__vfprintf>:
9d01429c:	27bdffe0 	addiu	sp,sp,-32
9d0142a0:	afb00018 	sw	s0,24(sp)
9d0142a4:	afa60010 	sw	a2,16(sp)
9d0142a8:	00808025 	move	s0,a0
9d0142ac:	afbf001c 	sw	ra,28(sp)
9d0142b0:	0f40315e 	jal	9d00c578 <__printf_core>
9d0142b4:	27a60010 	addiu	a2,sp,16
9d0142b8:	8e030004 	lw	v1,4(s0)
9d0142bc:	8fbf001c 	lw	ra,28(sp)
9d0142c0:	2404ffff 	li	a0,-1
9d0142c4:	30630010 	andi	v1,v1,0x10
9d0142c8:	0083100b 	movn	v0,a0,v1
9d0142cc:	8fb00018 	lw	s0,24(sp)
9d0142d0:	03e00008 	jr	ra
9d0142d4:	27bd0020 	addiu	sp,sp,32

Disassembly of section .text.logbf:

9d0142d8 <logbf>:
9d0142d8:	27bdffe8 	addiu	sp,sp,-24
9d0142dc:	afbf0014 	sw	ra,20(sp)
9d0142e0:	0f4047fd 	jal	9d011ff4 <__truncdfsf2>
9d0142e4:	00000000 	nop
9d0142e8:	0f404a2f 	jal	9d0128bc <__extendsfdf2>
9d0142ec:	00402025 	move	a0,v0
9d0142f0:	00402025 	move	a0,v0
9d0142f4:	0f4046a9 	jal	9d011aa4 <logbl>
9d0142f8:	00602825 	move	a1,v1
9d0142fc:	00402025 	move	a0,v0
9d014300:	0f4047fd 	jal	9d011ff4 <__truncdfsf2>
9d014304:	00602825 	move	a1,v1
9d014308:	8fbf0014 	lw	ra,20(sp)
9d01430c:	03e00008 	jr	ra
9d014310:	27bd0018 	addiu	sp,sp,24

Disassembly of section .text:

9d014314 <__lshrdi3>:
9d014314:	10c00008 	beqz	a2,9d014338 <__lshrdi3+0x24>
9d014318:	00801025 	move	v0,a0
9d01431c:	24030020 	li	v1,32
9d014320:	00661823 	subu	v1,v1,a2
9d014324:	1c600006 	bgtz	v1,9d014340 <__lshrdi3+0x2c>
9d014328:	00c52006 	srlv	a0,a1,a2
9d01432c:	00002025 	move	a0,zero
9d014330:	00c51006 	srlv	v0,a1,a2
9d014334:	00802825 	move	a1,a0
9d014338:	03e00008 	jr	ra
9d01433c:	00a01825 	move	v1,a1
9d014340:	00c21006 	srlv	v0,v0,a2
9d014344:	00652804 	sllv	a1,a1,v1
9d014348:	1000fffa 	b	9d014334 <__lshrdi3+0x20>
9d01434c:	00451025 	or	v0,v0,a1

9d014350 <__ashldi3>:
9d014350:	10c00008 	beqz	a2,9d014374 <__ashldi3+0x24>
9d014354:	00801025 	move	v0,a0
9d014358:	24040020 	li	a0,32
9d01435c:	00862023 	subu	a0,a0,a2
9d014360:	5c800006 	bgtzl	a0,9d01437c <__ashldi3+0x2c>
9d014364:	00c21804 	sllv	v1,v0,a2
9d014368:	00001825 	move	v1,zero
9d01436c:	00c22804 	sllv	a1,v0,a2
9d014370:	00601025 	move	v0,v1
9d014374:	03e00008 	jr	ra
9d014378:	00a01825 	move	v1,a1
9d01437c:	00c52804 	sllv	a1,a1,a2
9d014380:	00821006 	srlv	v0,v0,a0
9d014384:	1000fffa 	b	9d014370 <__ashldi3+0x20>
9d014388:	00a22825 	or	a1,a1,v0

Disassembly of section .text.__fclose:

9d01438c <__fclose>:
9d01438c:	1080000b 	beqz	a0,9d0143bc <__fclose+0x30>
9d014390:	00001025 	move	v0,zero
9d014394:	8c83001c 	lw	v1,28(a0)
9d014398:	10600008 	beqz	v1,9d0143bc <__fclose+0x30>
9d01439c:	00000000 	nop
9d0143a0:	27bdffe8 	addiu	sp,sp,-24
9d0143a4:	afbf0014 	sw	ra,20(sp)
9d0143a8:	0060f809 	jalr	v1
9d0143ac:	00000000 	nop
9d0143b0:	8fbf0014 	lw	ra,20(sp)
9d0143b4:	03e00008 	jr	ra
9d0143b8:	27bd0018 	addiu	sp,sp,24
9d0143bc:	03e00008 	jr	ra
9d0143c0:	00000000 	nop

Disassembly of section .text.lock_bin:

9d0143c4 <lock_bin>:
9d0143c4:	24840001 	addiu	a0,a0,1
9d0143c8:	000410c0 	sll	v0,a0,0x3
9d0143cc:	3c04a000 	lui	a0,0xa000
9d0143d0:	24845138 	addiu	a0,a0,20792
9d0143d4:	00441821 	addu	v1,v0,a0
9d0143d8:	8c650000 	lw	a1,0(v1)
9d0143dc:	14a00004 	bnez	a1,9d0143f0 <lock_bin+0x2c>
9d0143e0:	2442fff8 	addiu	v0,v0,-8
9d0143e4:	00822021 	addu	a0,a0,v0
9d0143e8:	ac640004 	sw	a0,4(v1)
9d0143ec:	ac640000 	sw	a0,0(v1)
9d0143f0:	03e00008 	jr	ra
9d0143f4:	00000000 	nop

Disassembly of section .text.__fwrite:

9d0143f8 <__fwrite>:
9d0143f8:	8c83002c 	lw	v1,44(a0)
9d0143fc:	27bdffe8 	addiu	sp,sp,-24
9d014400:	10600006 	beqz	v1,9d01441c <__fwrite+0x24>
9d014404:	afbf0014 	sw	ra,20(sp)
9d014408:	0060f809 	jalr	v1
9d01440c:	00000000 	nop
9d014410:	8fbf0014 	lw	ra,20(sp)
9d014414:	03e00008 	jr	ra
9d014418:	27bd0018 	addiu	sp,sp,24
9d01441c:	0f404c98 	jal	9d013260 <write>
9d014420:	8c840000 	lw	a0,0(a0)
9d014424:	1000fffb 	b	9d014414 <__fwrite+0x1c>
9d014428:	8fbf0014 	lw	ra,20(sp)

Disassembly of section .text.finitef:

9d01442c <finitef>:
9d01442c:	27bdffe8 	addiu	sp,sp,-24
9d014430:	afbf0014 	sw	ra,20(sp)
9d014434:	0f4047fd 	jal	9d011ff4 <__truncdfsf2>
9d014438:	00000000 	nop
9d01443c:	0f404a2f 	jal	9d0128bc <__extendsfdf2>
9d014440:	00402025 	move	a0,v0
9d014444:	00031403 	sra	v0,v1,0x10
9d014448:	8fbf0014 	lw	ra,20(sp)
9d01444c:	30427ff0 	andi	v0,v0,0x7ff0
9d014450:	38427ff0 	xori	v0,v0,0x7ff0
9d014454:	0002102b 	sltu	v0,zero,v0
9d014458:	03e00008 	jr	ra
9d01445c:	27bd0018 	addiu	sp,sp,24

Disassembly of section .text:

9d014460 <set_current_Kp>:
#include "current_control.h"

void set_current_Kp(float kp) {
    current_Kp = kp;
9d014460:	af848048 	sw	a0,-32696(gp)
    return;
}
9d014464:	03e00008 	jr	ra
9d014468:	00000000 	nop

9d01446c <set_current_Ki>:

void set_current_Ki(float ki) {
    current_Ki = ki;
9d01446c:	af848044 	sw	a0,-32700(gp)
    return;
}
9d014470:	03e00008 	jr	ra
9d014474:	00000000 	nop

9d014478 <get_current_Kp>:

volatile float get_current_Kp() {
    return current_Kp;
9d014478:	8f828048 	lw	v0,-32696(gp)
}
9d01447c:	03e00008 	jr	ra
9d014480:	00000000 	nop

9d014484 <get_current_Ki>:

volatile float get_current_Ki() {
    return current_Ki;
9d014484:	8f828044 	lw	v0,-32700(gp)
9d014488:	03e00008 	jr	ra
9d01448c:	00000000 	nop

Disassembly of section .text.strlen:

9d014490 <strlen>:
9d014490:	80820000 	lb	v0,0(a0)
9d014494:	10400008 	beqz	v0,9d0144b8 <strlen+0x28>
9d014498:	00000000 	nop
9d01449c:	00801025 	move	v0,a0
9d0144a0:	24420001 	addiu	v0,v0,1
9d0144a4:	80430000 	lb	v1,0(v0)
9d0144a8:	5460fffe 	bnezl	v1,9d0144a4 <strlen+0x14>
9d0144ac:	24420001 	addiu	v0,v0,1
9d0144b0:	03e00008 	jr	ra
9d0144b4:	00441023 	subu	v0,v0,a0
9d0144b8:	03e00008 	jr	ra
9d0144bc:	00001025 	move	v0,zero

Disassembly of section .text.copysign:

9d0144c0 <copysign>:
9d0144c0:	00071c02 	srl	v1,a3,0x10
9d0144c4:	7c037004 	ins	v1,zero,0x0,0xf
9d0144c8:	7ca27400 	ext	v0,a1,0x10,0xf
9d0144cc:	27bdfff8 	addiu	sp,sp,-8
9d0144d0:	00431025 	or	v0,v0,v1
9d0144d4:	afa50004 	sw	a1,4(sp)
9d0144d8:	afa40000 	sw	a0,0(sp)
9d0144dc:	a7a20006 	sh	v0,6(sp)
9d0144e0:	8fa30004 	lw	v1,4(sp)
9d0144e4:	8fa20000 	lw	v0,0(sp)
9d0144e8:	03e00008 	jr	ra
9d0144ec:	27bd0008 	addiu	sp,sp,8

Disassembly of section .text.__sio_sscanf_deEfFgGn:

9d0144f0 <__sio_sscanf_deEfFgGn>:
9d0144f0:	27bdffe8 	addiu	sp,sp,-24
9d0144f4:	afbf0014 	sw	ra,20(sp)
9d0144f8:	0f404dcf 	jal	9d01373c <__scan_d>
9d0144fc:	00000000 	nop
9d014500:	0f403834 	jal	9d00e0d0 <__scan_fp>
9d014504:	00000000 	nop
9d014508:	0f403caf 	jal	9d00f2bc <__scan_i>
9d01450c:	00000000 	nop
9d014510:	8fbf0014 	lw	ra,20(sp)
9d014514:	03e00008 	jr	ra
9d014518:	27bd0018 	addiu	sp,sp,24

Disassembly of section .text.strtoull:

9d01451c <strtoull>:
9d01451c:	27bdffe0 	addiu	sp,sp,-32
9d014520:	2402ffff 	li	v0,-1
9d014524:	2403ffff 	li	v1,-1
9d014528:	afa20010 	sw	v0,16(sp)
9d01452c:	afa30014 	sw	v1,20(sp)
9d014530:	afbf001c 	sw	ra,28(sp)
9d014534:	0f40497d 	jal	9d0125f4 <strtox>
9d014538:	00000000 	nop
9d01453c:	8fbf001c 	lw	ra,28(sp)
9d014540:	03e00008 	jr	ra
9d014544:	27bd0020 	addiu	sp,sp,32

Disassembly of section .text.strtoll:

9d014548 <strtoll>:
9d014548:	27bdffe0 	addiu	sp,sp,-32
9d01454c:	00001025 	move	v0,zero
9d014550:	3c038000 	lui	v1,0x8000
9d014554:	afa20010 	sw	v0,16(sp)
9d014558:	afa30014 	sw	v1,20(sp)
9d01455c:	afbf001c 	sw	ra,28(sp)
9d014560:	0f40497d 	jal	9d0125f4 <strtox>
9d014564:	00000000 	nop
9d014568:	8fbf001c 	lw	ra,28(sp)
9d01456c:	03e00008 	jr	ra
9d014570:	27bd0020 	addiu	sp,sp,32

Disassembly of section .text.strtoul:

9d014574 <strtoul>:
9d014574:	27bdffe0 	addiu	sp,sp,-32
9d014578:	2402ffff 	li	v0,-1
9d01457c:	00001825 	move	v1,zero
9d014580:	afa20010 	sw	v0,16(sp)
9d014584:	afa30014 	sw	v1,20(sp)
9d014588:	afbf001c 	sw	ra,28(sp)
9d01458c:	0f40497d 	jal	9d0125f4 <strtox>
9d014590:	00000000 	nop
9d014594:	8fbf001c 	lw	ra,28(sp)
9d014598:	03e00008 	jr	ra
9d01459c:	27bd0020 	addiu	sp,sp,32

Disassembly of section .text.strtol:

9d0145a0 <strtol>:
9d0145a0:	27bdffe0 	addiu	sp,sp,-32
9d0145a4:	3c028000 	lui	v0,0x8000
9d0145a8:	00001825 	move	v1,zero
9d0145ac:	afa20010 	sw	v0,16(sp)
9d0145b0:	afa30014 	sw	v1,20(sp)
9d0145b4:	afbf001c 	sw	ra,28(sp)
9d0145b8:	0f40497d 	jal	9d0125f4 <strtox>
9d0145bc:	00000000 	nop
9d0145c0:	8fbf001c 	lw	ra,28(sp)
9d0145c4:	03e00008 	jr	ra
9d0145c8:	27bd0020 	addiu	sp,sp,32

Disassembly of section .text.memcpy:

9d0145cc <memcpy>:
9d0145cc:	10c00008 	beqz	a2,9d0145f0 <memcpy+0x24>
9d0145d0:	00801025 	move	v0,a0
9d0145d4:	00863021 	addu	a2,a0,a2
9d0145d8:	00801825 	move	v1,a0
9d0145dc:	24a50001 	addiu	a1,a1,1
9d0145e0:	90a7ffff 	lbu	a3,-1(a1)
9d0145e4:	24630001 	addiu	v1,v1,1
9d0145e8:	1466fffc 	bne	v1,a2,9d0145dc <memcpy+0x10>
9d0145ec:	a067ffff 	sb	a3,-1(v1)
9d0145f0:	03e00008 	jr	ra
9d0145f4:	00000000 	nop

Disassembly of section .rodata:

9d0145f8 <CSWTCH.35>:
9d0145f8:	fbceff6b 0000fbce                       k.......

9d014600 <CSWTCH.34>:
9d014600:	00353518                                .55.

9d014604 <p10s.2639>:
9d014604:	0000000a 00000064 000003e8 00002710     ....d........'..
9d014614:	000186a0 000f4240 00989680 05f5e100     ....@B..........

Disassembly of section .text.__shlim:

9d014624 <__shlim>:
9d014624:	8c830040 	lw	v1,64(a0)
9d014628:	8c86003c 	lw	a2,60(a0)
9d01462c:	ac850050 	sw	a1,80(a0)
9d014630:	00661023 	subu	v0,v1,a2
9d014634:	10a00004 	beqz	a1,9d014648 <__shlim+0x24>
9d014638:	ac820054 	sw	v0,84(a0)
9d01463c:	00a2102a 	slt	v0,a1,v0
9d014640:	54400001 	bnezl	v0,9d014648 <__shlim+0x24>
9d014644:	00c51821 	addu	v1,a2,a1
9d014648:	03e00008 	jr	ra
9d01464c:	ac83004c 	sw	v1,76(a0)

Disassembly of section .text.__dummy:

9d014650 <__dummy>:
9d014650:	8c870014 	lw	a3,20(a0)
9d014654:	8c860018 	lw	a2,24(a0)
9d014658:	8c830004 	lw	v1,4(a0)
9d01465c:	00e61023 	subu	v0,a3,a2
9d014660:	30630040 	andi	v1,v1,0x40
9d014664:	aca20000 	sw	v0,0(a1)
9d014668:	10600002 	beqz	v1,9d014674 <__dummy+0x24>
9d01466c:	00001025 	move	v0,zero
9d014670:	00c7102b 	sltu	v0,a2,a3
9d014674:	03e00008 	jr	ra
9d014678:	00000000 	nop

Disassembly of section .text.__init_stdio:

9d01467c <__init_stdio>:
9d01467c:	27bdffe8 	addiu	sp,sp,-24
9d014680:	afbf0014 	sw	ra,20(sp)
9d014684:	0f4052ef 	jal	9d014bbc <__init_stderr>
9d014688:	00000000 	nop
9d01468c:	0f4052ef 	jal	9d014bbc <__init_stderr>
9d014690:	00000000 	nop
9d014694:	0f4052ef 	jal	9d014bbc <__init_stderr>
9d014698:	00000000 	nop
9d01469c:	8fbf0014 	lw	ra,20(sp)
9d0146a0:	03e00008 	jr	ra
9d0146a4:	27bd0018 	addiu	sp,sp,24

Disassembly of section .text.copysignl:

9d0146a8 <copysignl>:
9d0146a8:	afa50004 	sw	a1,4(sp)
9d0146ac:	97a20006 	lhu	v0,6(sp)
9d0146b0:	00073c02 	srl	a3,a3,0x10
9d0146b4:	7c077004 	ins	a3,zero,0x0,0xf
9d0146b8:	30427fff 	andi	v0,v0,0x7fff
9d0146bc:	00471025 	or	v0,v0,a3
9d0146c0:	a7a20006 	sh	v0,6(sp)
9d0146c4:	afa40000 	sw	a0,0(sp)
9d0146c8:	8fa20000 	lw	v0,0(sp)
9d0146cc:	03e00008 	jr	ra
9d0146d0:	8fa30004 	lw	v1,4(sp)

Disassembly of section .text._stub_sbd_memlayout:

9d0146d4 <_stub_sbd_memlayout>:
9d0146d4:	3c04a000 	lui	a0,0xa000
9d0146d8:	24825390 	addiu	v0,a0,21392
9d0146dc:	24030001 	li	v1,1
9d0146e0:	ac430008 	sw	v1,8(v0)
9d0146e4:	3c03a000 	lui	v1,0xa000
9d0146e8:	246353c0 	addiu	v1,v1,21440
9d0146ec:	ac835390 	sw	v1,21392(a0)
9d0146f0:	3c030000 	lui	v1,0x0
9d0146f4:	24630000 	addiu	v1,v1,0
9d0146f8:	03e00008 	jr	ra
9d0146fc:	ac430004 	sw	v1,4(v0)

Disassembly of section .text.__wrap_sprintf:

9d014700 <_dsprintf_deEfFgGn>:
9d014700:	27bdffe0 	addiu	sp,sp,-32
9d014704:	afa60028 	sw	a2,40(sp)
9d014708:	27a60028 	addiu	a2,sp,40
9d01470c:	afbf001c 	sw	ra,28(sp)
9d014710:	afa7002c 	sw	a3,44(sp)
9d014714:	0f4051f2 	jal	9d0147c8 <__vsprintf>
9d014718:	afa60010 	sw	a2,16(sp)
9d01471c:	8fbf001c 	lw	ra,28(sp)
9d014720:	03e00008 	jr	ra
9d014724:	27bd0020 	addiu	sp,sp,32

Disassembly of section .text.__wrap_sscanf:

9d014728 <_dsscanf_deEfFgGn>:
9d014728:	27bdffe0 	addiu	sp,sp,-32
9d01472c:	afa60028 	sw	a2,40(sp)
9d014730:	27a60028 	addiu	a2,sp,40
9d014734:	afbf001c 	sw	ra,28(sp)
9d014738:	afa7002c 	sw	a3,44(sp)
9d01473c:	0f404e3f 	jal	9d0138fc <__vsscanf>
9d014740:	afa60010 	sw	a2,16(sp)
9d014744:	8fbf001c 	lw	ra,28(sp)
9d014748:	03e00008 	jr	ra
9d01474c:	27bd0020 	addiu	sp,sp,32

Disassembly of section .text.strtof:

9d014750 <strtof>:
9d014750:	27bdffe8 	addiu	sp,sp,-24
9d014754:	afbf0014 	sw	ra,20(sp)
9d014758:	0f404aae 	jal	9d012ab8 <strtox>
9d01475c:	00003025 	move	a2,zero
9d014760:	00402025 	move	a0,v0
9d014764:	0f4047fd 	jal	9d011ff4 <__truncdfsf2>
9d014768:	00602825 	move	a1,v1
9d01476c:	8fbf0014 	lw	ra,20(sp)
9d014770:	03e00008 	jr	ra
9d014774:	27bd0018 	addiu	sp,sp,24

Disassembly of section .text.memset:

9d014778 <memset>:
9d014778:	10c00007 	beqz	a2,9d014798 <memset+0x20>
9d01477c:	00801025 	move	v0,a0
9d014780:	7c052c20 	seb	a1,a1
9d014784:	00863021 	addu	a2,a0,a2
9d014788:	00801825 	move	v1,a0
9d01478c:	24630001 	addiu	v1,v1,1
9d014790:	1466fffe 	bne	v1,a2,9d01478c <memset+0x14>
9d014794:	a065ffff 	sb	a1,-1(v1)
9d014798:	03e00008 	jr	ra
9d01479c:	00000000 	nop

Disassembly of section .text.strcpy:

9d0147a0 <strcpy>:
9d0147a0:	27bdffe8 	addiu	sp,sp,-24
9d0147a4:	afb00010 	sw	s0,16(sp)
9d0147a8:	afbf0014 	sw	ra,20(sp)
9d0147ac:	0f4051fc 	jal	9d0147f0 <stpcpy>
9d0147b0:	00808025 	move	s0,a0
9d0147b4:	8fbf0014 	lw	ra,20(sp)
9d0147b8:	02001025 	move	v0,s0
9d0147bc:	8fb00010 	lw	s0,16(sp)
9d0147c0:	03e00008 	jr	ra
9d0147c4:	27bd0018 	addiu	sp,sp,24

Disassembly of section .text.__vsprintf:

9d0147c8 <__vsprintf>:
9d0147c8:	00c03825 	move	a3,a2
9d0147cc:	00a03025 	move	a2,a1
9d0147d0:	3c057fff 	lui	a1,0x7fff
9d0147d4:	27bdffe8 	addiu	sp,sp,-24
9d0147d8:	afbf0014 	sw	ra,20(sp)
9d0147dc:	0f404cba 	jal	9d0132e8 <__vsnprintf>
9d0147e0:	34a5ffff 	ori	a1,a1,0xffff
9d0147e4:	8fbf0014 	lw	ra,20(sp)
9d0147e8:	03e00008 	jr	ra
9d0147ec:	27bd0018 	addiu	sp,sp,24

Disassembly of section .text.stpcpy:

9d0147f0 <stpcpy>:
9d0147f0:	10000002 	b	9d0147fc <stpcpy+0xc>
9d0147f4:	00801025 	move	v0,a0
9d0147f8:	00c01025 	move	v0,a2
9d0147fc:	24a50001 	addiu	a1,a1,1
9d014800:	80a3ffff 	lb	v1,-1(a1)
9d014804:	24460001 	addiu	a2,v0,1
9d014808:	1460fffb 	bnez	v1,9d0147f8 <stpcpy+0x8>
9d01480c:	a0c3ffff 	sb	v1,-1(a2)
9d014810:	03e00008 	jr	ra
9d014814:	00000000 	nop

Disassembly of section .text.isxdigit:

9d014818 <isxdigit>:
9d014818:	2483ffd0 	addiu	v1,a0,-48
9d01481c:	2c63000a 	sltiu	v1,v1,10
9d014820:	14600004 	bnez	v1,9d014834 <isxdigit+0x1c>
9d014824:	24020001 	li	v0,1
9d014828:	34840020 	ori	a0,a0,0x20
9d01482c:	2482ff9f 	addiu	v0,a0,-97
9d014830:	2c420006 	sltiu	v0,v0,6
9d014834:	03e00008 	jr	ra
9d014838:	00000000 	nop

Disassembly of section .text.__fwrite_min:

9d01483c <__stdio_write>:
9d01483c:	8c840000 	lw	a0,0(a0)
9d014840:	27bdffe8 	addiu	sp,sp,-24
9d014844:	afbf0014 	sw	ra,20(sp)
9d014848:	0f404c98 	jal	9d013260 <write>
9d01484c:	00000000 	nop
9d014850:	8fbf0014 	lw	ra,20(sp)
9d014854:	03e00008 	jr	ra
9d014858:	27bd0018 	addiu	sp,sp,24

Disassembly of section .text.__fseeko:

9d01485c <__fseeko>:
9d01485c:	8c820030 	lw	v0,48(a0)
9d014860:	27bdffe8 	addiu	sp,sp,-24
9d014864:	afbf0014 	sw	ra,20(sp)
9d014868:	0040f809 	jalr	v0
9d01486c:	00000000 	nop
9d014870:	8fbf0014 	lw	ra,20(sp)
9d014874:	03e00008 	jr	ra
9d014878:	27bd0018 	addiu	sp,sp,24

Disassembly of section .text:

9d01487c <__dinit_copy>:
9d01487c:	908c0000 	lbu	t4,0(a0)
9d014880:	24c6ffff 	addiu	a2,a2,-1
9d014884:	24840001 	addiu	a0,a0,1
9d014888:	a0ac0000 	sb	t4,0(a1)
9d01488c:	14c0fffb 	bnez	a2,9d01487c <__dinit_copy>
9d014890:	24a50001 	addiu	a1,a1,1
9d014894:	03e00008 	jr	ra
9d014898:	00801025 	move	v0,a0

Disassembly of section .text.atof:

9d01489c <atof>:
9d01489c:	27bdffe8 	addiu	sp,sp,-24
9d0148a0:	afbf0014 	sw	ra,20(sp)
9d0148a4:	0f40522e 	jal	9d0148b8 <strtod>
9d0148a8:	00002825 	move	a1,zero
9d0148ac:	8fbf0014 	lw	ra,20(sp)
9d0148b0:	03e00008 	jr	ra
9d0148b4:	27bd0018 	addiu	sp,sp,24

Disassembly of section .text.strtod:

9d0148b8 <strtod>:
9d0148b8:	27bdffe8 	addiu	sp,sp,-24
9d0148bc:	afbf0014 	sw	ra,20(sp)
9d0148c0:	0f404aae 	jal	9d012ab8 <strtox>
9d0148c4:	24060001 	li	a2,1
9d0148c8:	8fbf0014 	lw	ra,20(sp)
9d0148cc:	03e00008 	jr	ra
9d0148d0:	27bd0018 	addiu	sp,sp,24

Disassembly of section .text.strtold:

9d0148d4 <strtold>:
9d0148d4:	27bdffe8 	addiu	sp,sp,-24
9d0148d8:	afbf0014 	sw	ra,20(sp)
9d0148dc:	0f404aae 	jal	9d012ab8 <strtox>
9d0148e0:	24060002 	li	a2,2
9d0148e4:	8fbf0014 	lw	ra,20(sp)
9d0148e8:	03e00008 	jr	ra
9d0148ec:	27bd0018 	addiu	sp,sp,24

Disassembly of section .text.strtoimax:

9d0148f0 <strtoimax>:
9d0148f0:	27bdffe8 	addiu	sp,sp,-24
9d0148f4:	afbf0014 	sw	ra,20(sp)
9d0148f8:	0f405152 	jal	9d014548 <strtoll>
9d0148fc:	00000000 	nop
9d014900:	8fbf0014 	lw	ra,20(sp)
9d014904:	03e00008 	jr	ra
9d014908:	27bd0018 	addiu	sp,sp,24

Disassembly of section .text.strtoumax:

9d01490c <strtoumax>:
9d01490c:	27bdffe8 	addiu	sp,sp,-24
9d014910:	afbf0014 	sw	ra,20(sp)
9d014914:	0f405147 	jal	9d01451c <strtoull>
9d014918:	00000000 	nop
9d01491c:	8fbf0014 	lw	ra,20(sp)
9d014920:	03e00008 	jr	ra
9d014924:	27bd0018 	addiu	sp,sp,24

Disassembly of section .text.__isxdigit_l:

9d014928 <__isxdigit_l>:
9d014928:	27bdffe8 	addiu	sp,sp,-24
9d01492c:	afbf0014 	sw	ra,20(sp)
9d014930:	0f405206 	jal	9d014818 <isxdigit>
9d014934:	00000000 	nop
9d014938:	8fbf0014 	lw	ra,20(sp)
9d01493c:	03e00008 	jr	ra
9d014940:	27bd0018 	addiu	sp,sp,24

Disassembly of section .text.tolower:

9d014944 <tolower>:
9d014944:	2483ffbf 	addiu	v1,a0,-65
9d014948:	2c63001a 	sltiu	v1,v1,26
9d01494c:	10600002 	beqz	v1,9d014958 <tolower+0x14>
9d014950:	00801025 	move	v0,a0
9d014954:	34820020 	ori	v0,a0,0x20
9d014958:	03e00008 	jr	ra
9d01495c:	00000000 	nop

Disassembly of section .text.__tolower_l:

9d014960 <__tolower_l>:
9d014960:	27bdffe8 	addiu	sp,sp,-24
9d014964:	afbf0014 	sw	ra,20(sp)
9d014968:	0f405251 	jal	9d014944 <tolower>
9d01496c:	00000000 	nop
9d014970:	8fbf0014 	lw	ra,20(sp)
9d014974:	03e00008 	jr	ra
9d014978:	27bd0018 	addiu	sp,sp,24

Disassembly of section .text.do_read:

9d01497c <do_read>:
9d01497c:	27bdffe8 	addiu	sp,sp,-24
9d014980:	afbf0014 	sw	ra,20(sp)
9d014984:	0f404aff 	jal	9d012bfc <__string_read>
9d014988:	00000000 	nop
9d01498c:	8fbf0014 	lw	ra,20(sp)
9d014990:	03e00008 	jr	ra
9d014994:	27bd0018 	addiu	sp,sp,24

Disassembly of section .text.__toread_needs_stdio_exit:

9d014998 <__toread_needs_stdio_exit>:
9d014998:	27bdffe8 	addiu	sp,sp,-24
9d01499c:	afbf0014 	sw	ra,20(sp)
9d0149a0:	0f404f97 	jal	9d013e5c <__stdio_exit>
9d0149a4:	00000000 	nop
9d0149a8:	8fbf0014 	lw	ra,20(sp)
9d0149ac:	03e00008 	jr	ra
9d0149b0:	27bd0018 	addiu	sp,sp,24

Disassembly of section .text.putc:

9d0149b4 <putc>:
9d0149b4:	27bdffe8 	addiu	sp,sp,-24
9d0149b8:	afbf0014 	sw	ra,20(sp)
9d0149bc:	0f404e07 	jal	9d01381c <__putc>
9d0149c0:	00000000 	nop
9d0149c4:	8fbf0014 	lw	ra,20(sp)
9d0149c8:	03e00008 	jr	ra
9d0149cc:	27bd0018 	addiu	sp,sp,24

Disassembly of section .text.__fopen:

9d0149d0 <__fopen>:
9d0149d0:	27bdffe8 	addiu	sp,sp,-24
9d0149d4:	afbf0014 	sw	ra,20(sp)
9d0149d8:	0f404c76 	jal	9d0131d8 <__fopen_rw>
9d0149dc:	00000000 	nop
9d0149e0:	8fbf0014 	lw	ra,20(sp)
9d0149e4:	03e00008 	jr	ra
9d0149e8:	27bd0018 	addiu	sp,sp,24

Disassembly of section .text.__ftello_adj:

9d0149ec <__ftello_adj>:
9d0149ec:	27bdffe8 	addiu	sp,sp,-24
9d0149f0:	afbf0014 	sw	ra,20(sp)
9d0149f4:	0f405005 	jal	9d014014 <__ftello_adj_rw>
9d0149f8:	00000000 	nop
9d0149fc:	8fbf0014 	lw	ra,20(sp)
9d014a00:	03e00008 	jr	ra
9d014a04:	27bd0018 	addiu	sp,sp,24

Disassembly of section .text.logb:

9d014a08 <logb>:
9d014a08:	27bdffe8 	addiu	sp,sp,-24
9d014a0c:	afbf0014 	sw	ra,20(sp)
9d014a10:	0f4046a9 	jal	9d011aa4 <logbl>
9d014a14:	00000000 	nop
9d014a18:	8fbf0014 	lw	ra,20(sp)
9d014a1c:	03e00008 	jr	ra
9d014a20:	27bd0018 	addiu	sp,sp,24

Disassembly of section .text.drem:

9d014a24 <drem>:
9d014a24:	27bdffe8 	addiu	sp,sp,-24
9d014a28:	afbf0014 	sw	ra,20(sp)
9d014a2c:	0f4033f5 	jal	9d00cfd4 <dreml>
9d014a30:	00000000 	nop
9d014a34:	8fbf0014 	lw	ra,20(sp)
9d014a38:	03e00008 	jr	ra
9d014a3c:	27bd0018 	addiu	sp,sp,24

Disassembly of section .text.fabsl:

9d014a40 <fabsl>:
9d014a40:	27bdffe8 	addiu	sp,sp,-24
9d014a44:	afbf0014 	sw	ra,20(sp)
9d014a48:	0f4052cb 	jal	9d014b2c <fabs>
9d014a4c:	00000000 	nop
9d014a50:	8fbf0014 	lw	ra,20(sp)
9d014a54:	03e00008 	jr	ra
9d014a58:	27bd0018 	addiu	sp,sp,24

Disassembly of section .text.scalbnl:

9d014a5c <scalbnl>:
9d014a5c:	27bdffe8 	addiu	sp,sp,-24
9d014a60:	afbf0014 	sw	ra,20(sp)
9d014a64:	0f40483d 	jal	9d0120f4 <scalbn>
9d014a68:	00000000 	nop
9d014a6c:	8fbf0014 	lw	ra,20(sp)
9d014a70:	03e00008 	jr	ra
9d014a74:	27bd0018 	addiu	sp,sp,24

Disassembly of section .text:

9d014a90 <get_mode>:
// volatile int pwm = 0;



volatile enum mode_t get_mode(void){
    return cur_mode;
9d014a90:	8f828058 	lw	v0,-32680(gp)
}
9d014a94:	03e00008 	jr	ra
9d014a98:	00000000 	nop

9d014a9c <set_mode>:

void set_mode(enum mode_t s) {
    cur_mode = s;
9d014a9c:	af848058 	sw	a0,-32680(gp)
}
9d014aa0:	03e00008 	jr	ra
9d014aa4:	00000000 	nop

9d014aa8 <_nmi_handler>:
9d014aa8:	401a6000 	mfc0	k0,c0_status
9d014aac:	3c1bffbf 	lui	k1,0xffbf
9d014ab0:	377bffff 	ori	k1,k1,0xffff
9d014ab4:	035bd024 	and	k0,k0,k1
9d014ab8:	409a6000 	mtc0	k0,c0_status
9d014abc:	42000018 	eret

Disassembly of section .rodata:

9d014ac0 <state_table>:
9d014ac0:	096c0768 906a834c c07aa074 88688000     h.l.L.j.t.z...h.
9d014ad0:	826c8400 00008100                       ..l.....

Disassembly of section .text:

9d014ad8 <__dinit_clear>:
9d014ad8:	24c6ffff 	addiu	a2,a2,-1
9d014adc:	a0a00000 	sb	zero,0(a1)
9d014ae0:	14c0fffd 	bnez	a2,9d014ad8 <__dinit_clear>
9d014ae4:	24a50001 	addiu	a1,a1,1
9d014ae8:	03e00008 	jr	ra
9d014aec:	00801025 	move	v0,a0

Disassembly of section .rodata:

9d014af0 <_dinit_func_table>:
9d014af0:	9d014ad8 9d01487c 9d013468 9d013468     .J..|H..h4..h4..
9d014b00:	9d013468                                h4..

Disassembly of section .text.finitel:

9d014b04 <finitel>:
9d014b04:	00051403 	sra	v0,a1,0x10
9d014b08:	30427ff0 	andi	v0,v0,0x7ff0
9d014b0c:	38427ff0 	xori	v0,v0,0x7ff0
9d014b10:	03e00008 	jr	ra
9d014b14:	0002102b 	sltu	v0,zero,v0

Disassembly of section .text.finite:

9d014b18 <finite>:
9d014b18:	00051403 	sra	v0,a1,0x10
9d014b1c:	30427ff0 	andi	v0,v0,0x7ff0
9d014b20:	38427ff0 	xori	v0,v0,0x7ff0
9d014b24:	03e00008 	jr	ra
9d014b28:	0002102b 	sltu	v0,zero,v0

Disassembly of section .text.fabs:

9d014b2c <fabs>:
9d014b2c:	7ca6f000 	ext	a2,a1,0x0,0x1f
9d014b30:	00801025 	move	v0,a0
9d014b34:	03e00008 	jr	ra
9d014b38:	00c01825 	move	v1,a2

Disassembly of section .text.__get_stderr:

9d014b3c <__get_stderr>:
9d014b3c:	3c02a000 	lui	v0,0xa000
9d014b40:	03e00008 	jr	ra
9d014b44:	2442506c 	addiu	v0,v0,20588

Disassembly of section .text.__get_stdout:

9d014b48 <__get_stdout>:
9d014b48:	3c02a000 	lui	v0,0xa000
9d014b4c:	03e00008 	jr	ra
9d014b50:	244250cc 	addiu	v0,v0,20684

Disassembly of section .text._on_reset:

9d014b54 <_on_reset>:
9d014b54:	03e00008 	jr	ra
9d014b58:	00000000 	nop

Disassembly of section .text._on_bootstrap:

9d014b5c <_on_bootstrap>:
9d014b5c:	03e00008 	jr	ra
9d014b60:	00000000 	nop

Disassembly of section .text.__dummy_fmt3:

9d014b64 <__fmt_o>:
9d014b64:	03e00008 	jr	ra
9d014b68:	00001025 	move	v0,zero

Disassembly of section .text.__dummy_fmt4:

9d014b6c <__fmt_a>:
9d014b6c:	03e00008 	jr	ra
9d014b70:	00001025 	move	v0,zero

Disassembly of section .text.__dummy_fmts:

9d014b74 <__fmt_s>:
9d014b74:	03e00008 	jr	ra
9d014b78:	00001025 	move	v0,zero

Disassembly of section .text.__dummy_scan:

9d014b7c <__scan_a>:
9d014b7c:	03e00008 	jr	ra
9d014b80:	00001025 	move	v0,zero

Disassembly of section .text.__dummy_scan_s:

9d014b84 <__scan_s>:
9d014b84:	03e00008 	jr	ra
9d014b88:	00001025 	move	v0,zero

Disassembly of section .text.__dummy:

9d014b8c <__dummy>:
9d014b8c:	03e00008 	jr	ra
9d014b90:	00000000 	nop

9d014b94 <__stdio_exit_ofl>:
9d014b94:	03e00008 	jr	ra
9d014b98:	00000000 	nop

Disassembly of section .text.__dummy1:

9d014b9c <__dummy1>:
9d014b9c:	03e00008 	jr	ra
9d014ba0:	00001025 	move	v0,zero

Disassembly of section .text.__dummy:

9d014ba4 <__dummy>:
9d014ba4:	03e00008 	jr	ra
9d014ba8:	00000000 	nop

9d014bac <__dummy>:
9d014bac:	03e00008 	jr	ra
9d014bb0:	00001025 	move	v0,zero

Disassembly of section .text.__dummy:

9d014bb4 <__dummy>:
9d014bb4:	03e00008 	jr	ra
9d014bb8:	00001025 	move	v0,zero

9d014bbc <__init_stderr>:
9d014bbc:	03e00008 	jr	ra
9d014bc0:	00000000 	nop

Disassembly of section .text.getpagesize:

9d014bc4 <getpagesize>:
9d014bc4:	03e00008 	jr	ra
9d014bc8:	24020080 	li	v0,128

Disassembly of section .text.lseek:

9d014bcc <lseek>:
9d014bcc:	03e00008 	jr	ra
9d014bd0:	00001025 	move	v0,zero

Disassembly of section .text.close:

9d014bd4 <close>:
9d014bd4:	03e00008 	jr	ra
9d014bd8:	00001025 	move	v0,zero
